******************************************************************************
                  TI ARM Linker PC v16.9.6                     
******************************************************************************
>> Linked Mon Oct 05 15:32:24 2020

OUTPUT FILE NAME:   <xwr64xxODS_mmw_mss.xer4f>
ENTRY POINT SYMBOL: "_c_int00"  address: 0001e768


MEMORY CONFIGURATION

         name            origin    length      used     unused   attr    fill
----------------------  --------  ---------  --------  --------  ----  --------
PAGE 0:
  VECTORS               00000000   00000100  0000003c  000000c4     X
  PROG_RAM              00000100   0007ff00  0002637e  00059b82  R  X
  DATA_RAM              08000000   00030000  0002242c  0000dbd4  RW  
  L3_RAM                51000000   000c0000  000c0000  00000000  RW  
  HWA_RAM               52030000   00010000  00000000  00010000  RW  
  HS_RAM                52080000   00008000  00000000  00008000  RW  

PAGE 1:
  L3_RAM                51000000   000c0000  00000000  000c0000  RW  


SEGMENT ALLOCATION MAP

run origin  load origin   length   init length attrs members
----------  ----------- ---------- ----------- ----- -------
00000000    00000000    0000003c   0000003c    r--
  00000000    00000000    0000003c   0000003c    r-- .vecs
00000100    00000100    00026388   00026388    r-x
  00000100    00000100    00024c72   00024c72    r-x .text
  00024d78    00024d78    00001194   00001194    r-- .const
  00025f10    00025f10    00000578   00000578    r-- .cinit
08000000    08000000    00022430   00000000    rw-
  08000000    08000000    00010000   00000000    rw- systemHeap
  08010000    08010000    0000c400   00000000    rw- .DPC_objDetTcmbHeap
  0801c400    0801c400    0000381c   00000000    rw- .bss
  0801fc20    0801fc20    00001b60   00000000    rw- .data
  08021780    08021780    00000800   00000000    rw- .myFiqStack
  08021f80    08021f80    000004b0   00000000    rw- .stack
51000000    51000000    000c0000   00000000    rw-
  51000000    51000000    000c0000   00000000    rw- .l3ram


SECTION ALLOCATION MAP

 output                                  attributes/
section   page    origin      length       input sections
--------  ----  ----------  ----------   ----------------
.vecs      0    00000000    0000003c     
                  00000000    0000003c     mmw_per4ft.oer4ft (.vecs)

.text      0    00000100    00024c72     
                  00000100    0000107a     rtsv7R4_T_le_v3D16_eabi.lib : _printfi.obj (.text)
                  0000117a    00000002     libadcbuf_xwr68xx.aer4f : adcbuf_mmwave.oer4f (.text:ADCBUF_MMWave_init)
                  0000117c    00000898     rtsv7R4_T_le_v3D16_eabi.lib : _scanfi.obj (.text)
                  00001a14    000007bd     main.oer4f (.text:MmwDemo_dataPathConfig)
                  000021d1    00000001     --HOLE-- [fill = 0]
                  000021d2    00000002     libhwa_xwr68xx.aer4f : hwa.oer4f (.text:HWA_init)
                  000021d4    0000069e     mmw_cli.oer4f (.text:MmwDemo_CLIInit)
                  00002872    00000002     libmmwave_xwr68xx.aer4f : mmwave_link.oer4f (.text:MMWave_maskHostIRQ)
                  00002874    00000670     libdopplerproc_hwa_xwr68xx.aer4f : dopplerprochwa.oer4f (.text:DPU_DopplerProcHWA_config)
                  00002ee4    00000658     libhwa_xwr68xx.aer4f : hwa.oer4f (.text:HWA_configParamSet)
                  0000353c    000005fc     rtsv7R4_T_le_v3D16_eabi.lib : k_rem_pio2.obj (.text)
                  00003b38    000005e1     objectdetection.oer4f (.text:DPC_ObjectDetection_ioctl)
                  00004119    00000001     --HOLE-- [fill = 0]
                  0000411a    000005b4     libaoa2dproc_hwa_xwr68xx.aer4f : aoa2dprochwa.oer4f (.text:AoAProcHWA_config_HWA)
                  000046ce    0000056a                                    : aoa2dprochwa.oer4f (.text:AoAProcHWA_config_EDMA)
                  00004c38    00000564     librangeproc_hwa_xwr68xx.aer4f : rangeprochwa.oer4f (.text:DPU_RangeProcHWA_process)
                  0000519c    00000500     mmwdemo_rfparser.oer4f (.text:MmwDemo_RFParser_parseCtrlConfig)
                  0000569c    00000004     libaoa2dproc_hwa_xwr68xx.aer4f : aoa2dprochwa.oer4f (.text:DPU_AoAProcHWA_getNumHwaParamSets)
                  000056a0    000004e1     sysbios.aer4ft : BIOS.obj (.text:xdc_runtime_System_doPrint__I)
                  00005b81    00000001     --HOLE-- [fill = 0]
                  00005b82    00000002     libuart_xwr68xx.aer4f : uartsci.oer4f (.text:UartSci_init)
                  00005b84    000004a8     libadcbuf_xwr68xx.aer4f : adcbuf_mmwave.oer4f (.text:ADCBUF_MMWave_control)
                  0000602c    00000488     main.oer4f (.text:MmwDemo_initTask)
                  000064b4    0000044c     objectdetection.oer4f (.text:DPC_ObjDet_rangeBiasRxChPhaseMeasure)
                  00006900    0000043c     librangeproc_hwa_xwr68xx.aer4f : rangeprochwa.oer4f (.text:DPU_RangeProcHWA_config)
                  00006d3c    00000410     libcli_xwr68xx.aer4f : cli_mmwave.oer4f (.text:CLI_MMWaveVersion)
                  0000714c    00000405     mmw_cli.oer4f (.text:MmwDemo_CLISensorStart)
                  00007551    00000001     --HOLE-- [fill = 0]
                  00007552    00000002     rtsv7R4_T_le_v3D16_eabi.lib : i_div0.obj (.text)
                  00007554    000003f4                                 : s_cos.obj (.text)
                  00007948    000003f4                                 : s_sin.obj (.text)
                  00007d3c    000003f0     libaoa2dproc_hwa_xwr68xx.aer4f : aoa2dprochwa.oer4f (.text:DPU_AoAProcHWA_process)
                  0000812c    00000388     main.oer4f (.text:MmwDemo_DPC_ObjectDetection_dpmTask)
                  000084b4    00000314     main.oer4f (.text:MmwDemo_transmitProcessedOutput)
                  000087c8    00000314     libsoc_xwr68xx.aer4f : soc_xwr68xx_mss.oer4f (.text:SOC_deviceInit)
                  00008adc    00000304     librangeproc_hwa_xwr68xx.aer4f : rangeprochwa.oer4f (.text:rangeProcHWA_ConfigEDMA_DataOut_nonInterleave)
                  00008de0    000002f8     libcbuff_xwr68xx.aer4f : cbuff.oer4f (.text:CBUFF_createSession)
                  000090d8    00000008     libaoa2dproc_hwa_xwr68xx.aer4f : aoa2dprochwa.oer4f (.text:AOAProcHWADoneIsrCallback)
                  000090e0    000002f4     sysbios.aer4ft : BIOS.obj (.text:ti_sysbios_knl_Semaphore_pend__E)
                  000093d4    0000000c     libedma_xwr68xx.aer4f : edma_low_level.oer4f (.text:EDMA3ChannelToParamMap)
                  000093e0    000002cc     sysbios.aer4ft : BIOS.obj (.text:ti_sysbios_knl_Task_Instance_finalize__E)
                  000096ac    000002c4     libhwa_xwr68xx.aer4f : hwa.oer4f (.text:HWA_configCommon)
                  00009970    000002c4     main.oer4f (.text:MmwDemo_DPC_ObjectDetection_reportFxn)
                  00009c34    000002b8     libaoa2dproc_hwa_xwr68xx.aer4f : aoa2dprochwa.oer4f (.text:AoAProcHWA_dopplerCompensation)
                  00009eec    000002b8     objectdetection.oer4f (.text:DPC_ObjectDetection_execute)
                  0000a1a4    000002b8     rtsv7R4_T_le_v3D16_eabi.lib : ull_div32.obj (.text)
                  0000a45c    00000004     libedma_xwr68xx.aer4f : edma.oer4f (.text:EDMA_getNumInstances)
                  0000a460    000002a4     sysbios.aer4ft : BIOS.obj (.text:ti_sysbios_heaps_HeapMem_freeUnprotected__E)
                  0000a704    00000298     objectdetection.oer4f (.text:DPC_ObjDet_AoAconfig)
                  0000a99c    00000284     libmmwave_xwr68xx.aer4f : mmwave_dualcore.oer4f (.text:MMWave_deviceExecuteFxn)
                  0000ac20    00000284     main.oer4f (.text:MmwDemo_processPendingDynamicCfgCommands)
                  0000aea4    00000280     libhsiheader_xwr68xx.aer4f : hsiheader.oer4f (.text:HSIHeader_createHeader)
                  0000b124    0000000c     libedma_xwr68xx.aer4f : edma_low_level.oer4f (.text:EDMAsetRegion)
                  0000b130    00000280     sysbios.aer4ft : BIOS.obj (.text:ti_sysbios_family_arm_exc_Exception_excDumpContext__I)
                  0000b3b0    00000264     libcbuff_xwr68xx.aer4f : cbuff.oer4f (.text:CBUFF_init)
                  0000b614    00000260     objectdetection.oer4f (.text:DPC_ObjDet_rangeConfig)
                  0000b874    00000260     libmailbox_xwr68xx.aer4f : mailbox.oer4f (.text:Mailbox_open)
                  0000bad4    0000025c     main.oer4f (.text:MmwDemo_sensorStopEpilog)
                  0000bd30    00000254     libcli_xwr68xx.aer4f : cli_mmwave.oer4f (.text:CLI_MMWaveProfileCfg)
                  0000bf84    00000240     mmw_lvds_stream.oer4f (.text:MmwDemo_LVDSStreamHwConfig)
                  0000c1c4    0000022c     libcbuff_xwr68xx.aer4f : cbuff_lvds.oer4f (.text:CBUFF_openLVDS)
                  0000c3f0    0000022c     librangeproc_hwa_xwr68xx.aer4f : rangeprochwa.oer4f (.text:rangeProcHWA_ConfigHWA)
                  0000c61c    00000228     data_path.oer4f (.text:MmwDemo_checkEdmaErrors)
                  0000c844    0000000c     libmmwave_xwr68xx.aer4f : mmwave_dualcore.oer4f (.text:MMWave_deviceMailboxCallbackFxn)
                  0000c850    00000228     sysbios.aer4ft : BIOS.obj (.text:ti_sysbios_heaps_HeapMem_allocUnprotected__E)
                  0000ca78    00000008     libcfarcaproc_hwa_xwr68xx.aer4f : cfarcaprochwa.oer4f (.text:CFARCAHWADoneIsrCallback)
                  0000ca80    00000224     sysbios.aer4ft : BIOS.obj (.text:ti_sysbios_timers_rti_Timer_Module_startup__E)
                  0000cca4    00000214     libuart_xwr68xx.aer4f : uartsci.oer4f (.text:UartSci_open)
                  0000ceb8    0000020a     libcbuff_xwr68xx.aer4f : cbuff_transfer.oer4f (.text:CBUFF_addLinkedList)
                  0000d0c2    00000002     mmw_per4ft.oer4ft (.text:ti_sysbios_BIOS_nullFunc__I)
                  0000d0c4    00000204     libcli_xwr68xx.aer4f : cli_mmwave.oer4f (.text:CLI_MMWaveChirpCfg)
                  0000d2c8    00000204     objectdetection.oer4f (.text:DPC_ObjDet_preStartConfig)
                  0000d4cc    00000004     libosal_xwr68xx.aer4f : HwiP_tirtos.oer4f (.text:HwiP_disableInterrupt)
                  0000d4d0    00000204     sysbios.aer4ft : BIOS.obj (.text:ti_sysbios_knl_Task_sleep__E)
                  0000d6d4    00000200     libcrc_xwr68xx.aer4f : crc.oer4f (.text:CRC_open)
                  0000d8d4    00000200     main.oer4f (.text:MmwDemo_eventCallbackFxn)
                  0000dad4    0000000c     libmmwave_xwr68xx.aer4f : mmwave_osal.oer4f (.text:MMWave_osalMutexUnlock)
                  0000dae0    00000200     sysbios.aer4ft : BIOS.obj (.text:ti_sysbios_knl_Task_Instance_init__E)
                  0000dce0    000001fa     libaoa2dproc_hwa_xwr68xx.aer4f : aoa2dprochwa.oer4f (.text:AoAProcHWA_config_azimuthHeatMap_HWA)
                  0000deda    00000002     mmw_per4ft.oer4ft (.text:xdc_runtime_Startup_reset__I)
                  0000dedc    000001f0     libdma_xwr68xx.aer4f : dma.oer4f (.text:DMA_setChannelParams)
                  0000e0cc    000001e6     libaoa2dproc_hwa_xwr68xx.aer4f : aoa2dprochwa.oer4f (.text:AoAProcHWA_peakGrouping)
                  0000e2b2    00000002     --HOLE-- [fill = 0]
                  0000e2b4    000001e4     rtsv7R4_T_le_v3D16_eabi.lib : strtod.obj (.text)
                  0000e498    000001e4                                 : strtoll.obj (.text)
                  0000e67c    000001dc     libaoa2dproc_hwa_xwr68xx.aer4f : aoa2dprochwa.oer4f (.text:DPU_AoAProcHWA_config)
                  0000e858    000001d4     libcbuff_xwr68xx.aer4f : cbuff_edma.oer4f (.text:CBUFF_configEDMA)
                  0000ea2c    00000004     libosal_xwr68xx.aer4f : HwiP_tirtos.oer4f (.text:HwiP_enableInterrupt)
                  0000ea30    000001cc     sysbios.aer4ft : BIOS.obj (.text:ti_sysbios_family_arm_v7r_vim_Hwi_dispatchIRQC__I)
                  0000ebfc    000001c8     libcbuff_xwr68xx.aer4f : cbuff_lvds.oer4f (.text:CBUFF_initLVDS)
                  0000edc4    000001c8     libmmwavelink_xwr68xx.aer4f : rl_driver.oer4f (.text:rlDriverRxHdrRead)
                  0000ef8c    000001c8     rtsv7R4_T_le_v3D16_eabi.lib : fopen.obj (.text)
                  0000f154    000001c0     libedma_xwr68xx.aer4f : edma.oer4f (.text:EDMA_open)
                  0000f314    000001b4     libaoa2dproc_hwa_xwr68xx.aer4f : aoa2dprochwa.oer4f (.text:AoAProcHWA_XYZestimationAoA2D)
                  0000f4c8    000001b0     libmmwavelink_xwr68xx.aer4f : rl_driver.oer4f (.text:rlDriverMsgRead)
                  0000f678    000001a4     libcbuff_xwr68xx.aer4f : cbuff.oer4f (.text:CBUFF_activateSession)
                  0000f81c    000001a4     libcli_xwr68xx.aer4f : cli_mmwave.oer4f (.text:CLI_MMWaveSubFrameCfg)
                  0000f9c0    000001a4     objectdetection.oer4f (.text:DPC_ObjectDetection_init)
                  0000fb64    000001a4     libmmwave_xwr68xx.aer4f : mmwave_dualcore.oer4f (.text:MMWave_serializeCfg)
                  0000fd08    00000008     objectdetection.oer4f (.text:DPC_ObjDet_MemPoolReset)
                  0000fd10    0000019c     sysbios.aer4ft : BIOS.obj (.text:xdc_runtime_Error_policyDefault__E)
                  0000feac    00000194     libmmwave_xwr68xx.aer4f : mmwave_link.oer4f (.text:MMWave_openLink)
                  00010040    00000190     libmmwavelink_xwr68xx.aer4f : rl_driver.oer4f (.text:rlDriverCmdInvoke)
                  000101d0    0000018c     libstaticclutterproc_xwr68xx.aer4f : staticclutterproc.oer4f (.text:DPU_StaticClutterProc_process)
                  0001035c    00000188     libcfarcaproc_hwa_xwr68xx.aer4f : cfarcaprochwa.oer4f (.text:DPU_CFARCAProcHWA_process)
                  000104e4    00000188     libedma_xwr68xx.aer4f : edma.oer4f (.text:EDMA_configChannel)
                  0001066c    00000188     libhwa_xwr68xx.aer4f : hwa.oer4f (.text:HWA_open)
                  000107f4    00000188     mmw_cli.oer4f (.text:MmwDemo_CLIConfigDataPort)
                  0001097c    00000004     libmmwave_xwr68xx.aer4f : mmwave_link.oer4f (.text:MMWave_disableDevice)
                  00010980    00000184     sysbios.aer4ft : BIOS.obj (.text:xdc_runtime_LoggerBuf_write8__E)
                  00010b04    00000180     libdpm_xwr68xx.aer4f : dpm_core.oer4f (.text:DPM_init)
                  00010c84    00000180                          : dpm_msg.oer4f (.text:DPM_msgRecv)
                  00010e04    00000170     libgpio_xwr68xx.aer4f : gpio.oer4f (.text:GPIO_setConfig)
                  00010f74    0000000c     libmmwave_xwr68xx.aer4f : mmwave_osal.oer4f (.text:MMWave_osalSemSignal)
                  00010f80    0000016c     sysbios.aer4ft : BIOS.obj (.text:ti_sysbios_knl_Semaphore_post__E)
                  000110ec    0000016a     libaoa2dproc_hwa_xwr68xx.aer4f : aoa2dprochwa.oer4f (.text:AoAProcHWA_config_azimuthHeatMap_EDMA)
                  00011256    00000002     --HOLE-- [fill = 0]
                  00011258    00000168     mmw_lvds_stream.oer4f (.text:MmwDemo_LVDSStreamInit)
                  000113c0    00000168     main.oer4f (.text:MmwDemo_openSensor)
                  00011528    00000008     libdopplerproc_hwa_xwr68xx.aer4f : dopplerprochwa.oer4f (.text:DPU_DopplerProcHWA_edmaDoneIsrCallback)
                  00011530    00000168     sysbios.aer4ft : BIOS.obj (.text:ti_sysbios_family_arm_exc_Exception_excHandler__I)
                  00011698    00000164     mmw_lvds_stream.oer4f (.text:MmwDemo_LVDSStreamSwConfig)
                  000117fc    00000164     rtsv7R4_T_le_v3D16_eabi.lib : strtoull.obj (.text)
                  00011960    00000160     sysbios.aer4ft : BIOS.obj (.text:ti_sysbios_family_arm_v7r_vim_Hwi_reconfig__E)
                  00011ac0    00000158                    : BIOS.obj (.text:ti_sysbios_knl_Task_postInit__I)
                  00011c18    0000014c     libcli_xwr68xx.aer4f : cli_mmwave.oer4f (.text:CLI_MMWaveFrameCfg)
                  00011d64    0000014c                          : cli.oer4f (.text:CLI_task)
                  00011eb0    0000014c     libmmwave_xwr68xx.aer4f : mmwave_link.oer4f (.text:MMWave_initMMWaveLink)
                  00011ffc    0000014c     main.oer4f (.text:MmwDemo_startSensor)
                  00012148    0000014a     libuart_xwr68xx.aer4f : uartsci.oer4f (.text:UartSci_ISR)
                  00012292    00000148     libstaticclutterproc_xwr68xx.aer4f : staticclutterproc.oer4f (.text:DPU_StaticClutterProc_configEdma)
                  000123da    00000002     --HOLE-- [fill = 0]
                  000123dc    00000148     libhsiheader_xwr68xx.aer4f : hsiheader.oer4f (.text:HSIHeader_init)
                  00012524    00000148     libmmwavelink_xwr68xx.aer4f : rl_driver.oer4f (.text:rlDriverCmdSendRetry)
                  0001266c    00000146     mmw_cli.oer4f (.text:MmwDemo_CLICalibDcRangeSig)
                  000127b2    00000002     --HOLE-- [fill = 0]
                  000127b4    00000144     objectdetection.oer4f (.text:DPC_ObjDet_dopplerConfig)
                  000128f8    00000140     mmw_lvds_stream.oer4f (.text:MmwDemo_LVDSStreamDeleteHwSession)
                  00012a38    00000008     libdopplerproc_hwa_xwr68xx.aer4f : dopplerprochwa.oer4f (.text:DPU_DopplerProcHWA_hwaDoneIsrCallback)
                  00012a40    00000140     sysbios.aer4ft : BIOS.obj (.text:ti_sysbios_heaps_HeapMem_Instance_init__E)
                  00012b80    00000140                    : BIOS.obj (.text:xdc_runtime_Core_createObject__I)
                  00012cc0    0000013c                    : BIOS.obj (.text:ti_sysbios_knl_Clock_workFunc__E)
                  00012dfc    00000134     libadcbuf_xwr68xx.aer4f : adcbuf_mmwave.oer4f (.text:ADCBUF_MMWave_open)
                  00012f30    00000134     libcfarcaproc_hwa_xwr68xx.aer4f : cfarcaprochwa.oer4f (.text:CFARHWA_cfarRange_AND_cfarDoppler)
                  00013064    00000134                                     : cfarcaprochwa.oer4f (.text:DPU_CFARCAProcHWA_config)
                  00013198    00000134     mmw_lvds_stream.oer4f (.text:MmwDemo_LVDSStreamDeleteSwSession)
                  000132cc    00000134     main.oer4f (.text:MmwDemo_transferLVDSUserData)
                  00013400    00000134     main.oer4f (.text:main)
                  00013534    0000000c     libuart_xwr68xx.aer4f : UART.oer4f (.text:UART_Params_init)
                  00013540    00000134     sysbios.aer4ft : BIOS.obj (.text:xdc_runtime_Startup_startMods__I)
                  00013674    00000132     libaoa2dproc_hwa_xwr68xx.aer4f : aoa2dprochwa.oer4f (.text:AoAProcHWA_PrepareRangeAzimuthHeatmap)
                  000137a6    00000002     --HOLE-- [fill = 0]
                  000137a8    00000130     rtsv7R4_T_le_v3D16_eabi.lib : strtol.obj (.text)
                  000138d8    0000012c     libcfarcaproc_hwa_xwr68xx.aer4f : cfarcaprochwa.oer4f (.text:HWAutil_configCFAR)
                  00013a04    0000012c     main.oer4f (.text:MmwDemo_MMWave_stop)
                  00013b30    0000012c     librangeproc_hwa_xwr68xx.aer4f : rangeprochwa.oer4f (.text:rangeProcHWA_ConfigEDMADummyThreeLinks)
                  00013c5c    0000012a     libaoa2dproc_hwa_xwr68xx.aer4f : aoa2dprochwa.oer4f (.text:AoAProc_configLUT)
                  00013d86    00000002     --HOLE-- [fill = 0]
                  00013d88    00000128     data_path.oer4f (.text:MmwDemo_edmaOpen)
                  00013eb0    00000128     main.oer4f (.text:MmwDemo_stopSensor)
                  00013fd8    00000128     libmathutils.aer4f : mathutils.oer4f (.text:mathUtils_genWindow)
                  00014100    00000128     sysbios.aer4ft : BIOS.obj (.text:ti_sysbios_utils_Load_updateThreadContexts__E)
                  00014228    00000124     libcli_xwr68xx.aer4f : cli_mmwave.oer4f (.text:CLI_MMWaveAdvFrameCfg)
                  0001434c    00000124                          : cli_mmwave.oer4f (.text:CLI_MMWaveContModeCfg)
                  00014470    00000124     libedma_xwr68xx.aer4f : edma.oer4f (.text:EDMA_init)
                  00014594    0000000c     libuart_xwr68xx.aer4f : uartsci_dma.oer4f (.text:UartSci_isDMAEnabled)
                  000145a0    00000120     sysbios.aer4ft : BIOS.obj (.text:xdc_runtime_LoggerBuf_write4__E)
                  000146c0    0000011c     mmw_cli.oer4f (.text:MmwDemo_CLILvdsStreamCfg)
                  000147dc    00000118     main.oer4f (.text:MmwDemo_dataPathStart)
                  000148f4    0000000c     sysbios.aer4ft : arm_IntrinsicsSupport_asm.obj (.text:_ti_sysbios_family_arm_IntrinsicsSupport_maxbitA)
                  00014900    00000118                    : BIOS.obj (.text:ti_sysbios_family_arm_v7r_vim_Hwi_Instance_init__E)
                  00014a18    00000114     libedma_xwr68xx.aer4f : edma.oer4f (.text:EDMA_configErrorMonitoring)
                  00014b2c    00000110     objectdetection.oer4f (.text:DPC_ObjDet_CFARCAconfig)
                  00014c3c    00000110     libedma_xwr68xx.aer4f : edma.oer4f (.text:EDMA_transferComplete_isr)
                  00014d4c    00000110     rtsv7R4_T_le_v3D16_eabi.lib : strtoul.obj (.text)
                  00014e5c    0000010c     libdpedma_hwa_xwr68xx.aer4f : dpedma.oer4f (.text:DPEDMA_configSyncAB)
                  00014f68    0000010c     libdpm_xwr68xx.aer4f : dpm_msg.oer4f (.text:DPM_msgResultHandler)
                  00015074    0000010c     libmmwave_xwr68xx.aer4f : mmwave_link.oer4f (.text:MMWave_asyncEventHandler)
                  00015180    0000010c                             : mmwave_dualcore.oer4f (.text:MMWave_deviceInitFxn)
                  0001528c    00000004                             : mmwave_link.oer4f (.text:MMWave_enableDevice)
                  00015290    0000010c     sysbios.aer4ft : BIOS.obj (.text:ti_sysbios_knl_Task_schedule__I)
                  0001539c    00000004     libmmwave_xwr68xx.aer4f : mmwave_listlib.oer4f (.text:MMWave_listGetHead)
                  000153a0    0000010c     sysbios.aer4ft : BIOS.obj (.text:xdc_runtime_Core_constructObject__I)
                  000154ac    00000108     libdma_xwr68xx.aer4f : dma.oer4f (.text:DMA_disableInterrupt)
                  000155b4    00000108     libmailbox_xwr68xx.aer4f : mailbox.oer4f (.text:Mailbox_write)
                  000156bc    00000108     mmw_cli.oer4f (.text:MmwDemo_CLICfarCfg)
                  000157c4    00000104     libcbuff_xwr68xx.aer4f : cbuff.oer4f (.text:CBUFF_deinit)
                  000158c8    00000104     libdpedma_hwa_xwr68xx.aer4f : dpedma.oer4f (.text:DPEDMA_configSyncA_singleFrame)
                  000159cc    00000104     libmmwave_xwr68xx.aer4f : mmwave_link.oer4f (.text:MMWave_startLink)
                  00015ad0    00000104     mmw_cli.oer4f (.text:MmwDemo_CLIChirpQualityRxSatMonCfg)
                  00015bd4    00000104     mmw_cli.oer4f (.text:MmwDemo_CLICompRangeBiasAndRxChanPhaseCfg)
                  00015cd8    00000008     libosal_xwr68xx.aer4f : HwiP_tirtos.oer4f (.text:HwiP_disable)
                  00015ce0    00000104     sysbios.aer4ft : BIOS.obj (.text:ti_sysbios_timers_rti_Timer_getFreq__E)
                  00015de4    00000100     libcli_xwr68xx.aer4f : cli_mmwave.oer4f (.text:CLI_MMWaveBPMCfgAdvanced)
                  00015ee4    00000100     libdma_xwr68xx.aer4f : dma.oer4f (.text:DMA_clearChannelInterruptFlag)
                  00015fe4    00000100     libmmwavelink_xwr68xx.aer4f : rl_driver.oer4f (.text:rlDriverInit)
                  000160e4    000000fc     libcbuff_xwr68xx.aer4f : cbuff.oer4f (.text:CBUFF_deleteSession)
                  000161e0    000000fc     libcrc_xwr68xx.aer4f : crc.oer4f (.text:CRC_computeSignature)
                  000162dc    000000fc     mmw_cli.oer4f (.text:MmwDemo_CLIADCBufCfg)
                  000163d8    000000fc     mmw_lvds_stream.oer4f (.text:MmwDemo_configLVDSHwData)
                  000164d4    0000000c     rtsv7R4_T_le_v3D16_eabi.lib : copy_zero_init.obj (.text:decompress:ZI)
                  000164e0    000000fc     sysbios.aer4ft : BIOS.obj (.text:ti_sysbios_knl_Task_exit__E)
                  000165dc    000000f8     objectdetection.oer4f (.text:DPC_ObjectDetection_frameStart)
                  000166d4    000000f8     libmmwavelink_xwr68xx.aer4f : rl_driver.oer4f (.text:rlDriverRdVerifyMsg)
                  000167cc    000000f8     mmw_per4ft.oer4ft (.text:xdc_runtime_System_printfExtend__I)
                  000168c4    000000f4     mmw_cli.oer4f (.text:MmwDemo_CLICalibDataSaveRestore)
                  000169b8    00000008     libmmwave_xwr68xx.aer4f : mmwave.oer4f (.text:MMWave_decodeErrorLevel)
                  000169c0    000000f0     sysbios.aer4ft : BIOS.obj (.text:ti_sysbios_family_arm_v7r_vim_Hwi_Module_startup__E)
                  00016ab0    000000f0                    : BIOS.obj (.text:ti_sysbios_knl_Task_startCore__E)
                  00016ba0    000000f0                    : BIOS.obj (.text:ti_sysbios_utils_Load_taskCreateHook__E)
                  00016c90    000000ec     libaoa2dproc_hwa_xwr68xx.aer4f : aoa2dprochwa.oer4f (.text:DPU_AoAProcHWA_init)
                  00016d7c    000000ec     rtsv7R4_T_le_v3D16_eabi.lib : s_scalbn.obj (.text)
                  00016e68    00000008     libmmwave_xwr68xx.aer4f : mmwave_link.oer4f (.text:MMWave_mboxCallbackFxn)
                  00016e70    000000ec     sysbios.aer4ft : BIOS.obj (.text:ti_sysbios_heaps_HeapBuf_Module_startup__E)
                  00016f5c    000000ea     libdpedma_hwa_xwr68xx.aer4f : dpedmahwa.oer4f (.text:DPEDMAHWA_configTwoHotSignature)
                  00017046    00000002     --HOLE-- [fill = 0]
                  00017048    000000ea     main.oer4f (.text:MmwDemo_setSubFramePendingState)
                  00017132    00000002     --HOLE-- [fill = 0]
                  00017134    000000e8     libdopplerproc_hwa_xwr68xx.aer4f : dopplerprochwa.oer4f (.text:DPU_DopplerProcHWA_process)
                  0001721c    000000e8     mmw_cli.oer4f (.text:MmwDemo_CLIChirpQualitySigImgMonCfg)
                  00017304    000000e4     objectdetection.oer4f (.text:DPC_ObjectDetection_start)
                  000173e8    000000e4     libmmwavelink_xwr68xx.aer4f : rl_sensor.oer4f (.text:rlRfPhShiftCalibDataRestore)
                  000174cc    000000e2     libedma_xwr68xx.aer4f : edma.oer4f (.text:EDMA_paramConfig_assist)
                  000175ae    00000002     --HOLE-- [fill = 0]
                  000175b0    000000e0     libcli_xwr68xx.aer4f : cli.oer4f (.text:CLI_open)
                  00017690    000000e0     libdma_xwr68xx.aer4f : dma.oer4f (.text:DMA_enableInterrupt)
                  00017770    000000e0     libcfarcaproc_hwa_xwr68xx.aer4f : cfarcaprochwa.oer4f (.text:DPU_CFARCAProcHWA_control)
                  00017850    000000e0     rtsv7R4_T_le_v3D16_eabi.lib : s_floor.obj (.text)
                  00017930    000000dc     libmmwave_xwr68xx.aer4f : mmwave.oer4f (.text:MMWave_init)
                  00017a0c    000000dc     libmmwavelink_xwr68xx.aer4f : rl_driver.oer4f (.text:rlDriverMsgCmdReply)
                  00017ae8    000000dc     rtsv7R4_T_le_v3D16_eabi.lib : setvbuf.obj (.text)
                  00017bc4    000000d4     libdopplerproc_hwa_xwr68xx.aer4f : dopplerprochwa.oer4f (.text:DPU_DopplerProcHWA_init)
                  00017c98    000000d4     libmailbox_xwr68xx.aer4f : mailbox.oer4f (.text:Mailbox_read)
                  00017d6c    000000d4     librangeproc_hwa_xwr68xx.aer4f : rangeprochwa.oer4f (.text:rangeProcHWA_ConfigEDMA_DataIn)
                  00017e40    000000d4     libmmwavelink_xwr68xx.aer4f : rl_sensor.oer4f (.text:rlSetMultiBpmChirpConfig)
                  00017f14    0000000c                                 : rl_driver.oer4f (.text:rlDriverGetPlatformId)
                  00017f20    000000d4     sysbios.aer4ft : BIOS.obj (.text:ti_sysbios_utils_Load_logLoads__I)
                  00017ff4    000000d0     librangeproc_hwa_xwr68xx.aer4f : rangeprochwa.oer4f (.text:DPU_RangeProcHWA_control)
                  000180c4    000000d0     libsoc_xwr68xx.aer4f : soc_xwr68xx_mss.oer4f (.text:SOC_controlSecureFirewall)
                  00018194    000000d0     sysbios.aer4ft : exc_Exception_asm.obj (.text:ti_sysbios_family_arm_exc_Exception_excHandlerAsm__I)
                  00018264    0000000c                    : BIOS.obj (.text:ti_sysbios_family_arm_v7a_Pmu_configureCounterI__I)
                  00018270    000000d0                    : BIOS.obj (.text:ti_sysbios_utils_Load_idleFxn__E)
                  00018340    000000d0                    : BIOS.obj (.text:xdc_runtime_LoggerBuf_Instance_init__E)
                  00018410    000000cc     objectdetection.oer4f (.text:DPC_ObjDet_staticClutterConfig)
                  000184dc    000000cc     libhwa_xwr68xx.aer4f : hwa.oer4f (.text:HWA_enableParamSetInterrupt)
                  000185a8    000000cc     libmmwavelink_xwr68xx.aer4f : rl_sensor.oer4f (.text:rlRfCalibDataRestore)
                  00018674    000000cc                                 : rl_sensor.oer4f (.text:rlSetChirpConfig)
                  00018740    000000cc     rtsv7R4_T_le_v3D16_eabi.lib : fflush.obj (.text)
                  0001880c    000000cc                                 : sscanf.obj (.text)
                  000188d8    00000008     libosal_xwr68xx.aer4f : MemoryP_tirtos.oer4f (.text:MemoryP_getStats)
                  000188e0    000000cc     sysbios.aer4ft : BIOS.obj (.text:ti_sysbios_knl_Task_checkStacks__E)
                  000189ac    000000ca     libdpedma_hwa_xwr68xx.aer4f : dpedmahwa.oer4f (.text:DPEDMAHWA_configOneHotSignature)
                  00018a76    00000002     --HOLE-- [fill = 0]
                  00018a78    000000c8     libmmwave_xwr68xx.aer4f : mmwave_fullcfg.oer4f (.text:MMWave_addChirp)
                  00018b40    000000c8                             : mmwave_link.oer4f (.text:MMWave_configBPM)
                  00018c08    000000c8                             : mmwave_fullcfg.oer4f (.text:MMWave_flushCfg)
                  00018cd0    000000c8                             : mmwave_fullcfg.oer4f (.text:MMWave_getChirpHandle)
                  00018d98    000000c8     libsoc_xwr68xx.aer4f : soc_xwr68xx.oer4f (.text:SOC_ungateClock)
                  00018e60    000000c8     libmmwavelink_xwr68xx.aer4f : rl_sensor.oer4f (.text:rlSetFrameConfig)
                  00018f28    000000c4     libaoa2dproc_hwa_xwr68xx.aer4f : aoa2dprochwa.oer4f (.text:AoAProcHWA_SelectMaxPeaks)
                  00018fec    000000c4     libcbuff_xwr68xx.aer4f : cbuff_transfer.oer4f (.text:CBUFF_setupNonInterleaved_CP_ADC_CQ)
                  000190b0    000000c4     libdpm_xwr68xx.aer4f : dpm_core.oer4f (.text:DPM_deinit)
                  00019174    000000c4                          : dpm_core.oer4f (.text:DPM_ioctl)
                  00019238    00000008     data_path.oer4f (.text:MmwDemo_dataPathObjInit)
                  00019240    000000c4     sysbios.aer4ft : BIOS.obj (.text:ti_sysbios_family_arm_v7a_Pmu_configureCounter__E)
                  00019304    000000c0     librangeproc_hwa_xwr68xx.aer4f : rangeprochwa.oer4f (.text:DPU_RangeProcHWA_init)
                  000193c4    000000c0     mmw_cli.oer4f (.text:MmwDemo_CLIAnalogMonitorCfg)
                  00019484    000000c0     libmmwavelink_xwr68xx.aer4f : rl_driver.oer4f (.text:rlDriverMsgWrite)
                  00019544    0000000c     sysbios.aer4ft : BIOS.obj (.text:ti_sysbios_family_arm_v7a_Pmu_getCountI__E)
                  00019550    000000c0                    : BIOS.obj (.text:ti_sysbios_timers_rti_Timer_startup__E)
                  00019610    000000bc     libcli_xwr68xx.aer4f : cli.oer4f (.text:CLI_help)
                  000196cc    000000bc     libgpio_xwr68xx.aer4f : gpio.oer4f (.text:GPIO_write)
                  00019788    000000bc     libmmwave_xwr68xx.aer4f : mmwave_link.oer4f (.text:MMWave_computeCRC)
                  00019844    000000bc     mmw_lvds_stream.oer4f (.text:MmwDemo_LVDSStream_EDMAInit)
                  00019900    000000bc     rtsv7R4_T_le_v3D16_eabi.lib : open.obj (.text)
                  000199bc    000000b8     libcbuff_xwr68xx.aer4f : cbuff.oer4f (.text:CBUFF_ISR)
                  00019a74    000000b8                            : cbuff_transfer.oer4f (.text:CBUFF_setupTransfer)
                  00019b2c    000000b8     libdma_xwr68xx.aer4f : dma.oer4f (.text:DMA_getChannelInterruptFlag)
                  00019be4    000000b8     rtsv7R4_T_le_v3D16_eabi.lib : k_cos.obj (.text)
                  00019c9c    000000b6     libsoc_xwr68xx.aer4f : soc_mpu.o (.text)
                  00019d52    00000002     --HOLE-- [fill = 0]
                  00019d54    000000b4     libedma_xwr68xx.aer4f : edma.oer4f (.text:EDMA_startTransfer)
                  00019e08    00000008     libosal_xwr68xx.aer4f : SemaphoreP_tirtos.oer4f (.text:SemaphoreP_Params_init)
                  00019e10    000000b4     sysbios.aer4ft : BIOS.obj (.text:ti_sysbios_gates_GateMutex_enter__E)
                  00019ec4    0000000c     mmw_per4ft.oer4ft (.text:ti_sysbios_knl_Queue_Object__get__S)
                  00019ed0    000000b4     sysbios.aer4ft : BIOS.obj (.text:xdc_runtime_LoggerBuf_setFilterLevel__E)
                  00019f84    000000b2     libuart_xwr68xx.aer4f : uartsci_dma.oer4f (.text:UartSci_openDMA)
                  0001a036    00000002     --HOLE-- [fill = 0]
                  0001a038    000000b0     libcbuff_xwr68xx.aer4f : cbuff.oer4f (.text:CBUFF_deactivateSession)
                  0001a0e8    000000b0     libmmwave_xwr68xx.aer4f : mmwave_fullcfg.oer4f (.text:MMWave_addProfile)
                  0001a198    000000b0     libmmwavelink_xwr68xx.aer4f : rl_sensor.oer4f (.text:rlSetProfileConfig)
                  0001a248    00000008     librangeproc_hwa_xwr68xx.aer4f : rangeprochwa.oer4f (.text:rangeProcHWADoneIsrCallback)
                  0001a250    000000b0     sysbios.aer4ft : BIOS.obj (.text:ti_sysbios_utils_Load_updateLoads__E)
                  0001a300    000000b0                    : BIOS.obj (.text:xdc_runtime_Text_putMod__E)
                  0001a3b0    000000ae     mmwdemo_adcconfig.oer4f (.text:MmwDemo_ADCBufConfig)
                  0001a45e    000000ae     rtsv7R4_T_le_v3D16_eabi.lib : _io_perm.obj (.text)
                  0001a50c    000000ac     libaoa2dproc_hwa_xwr68xx.aer4f : aoa2dprochwa.oer4f (.text:AoAProcHWA_ConvertFov)
                  0001a5b8    000000ac                                    : aoa2dprochwa.oer4f (.text:AoAProcHWA_rxChanPhaseBiasCompensation)
                  0001a664    000000ac     libesm_xwr68xx.aer4f : esm.oer4f (.text:ESM_processInterrupt)
                  0001a710    000000ac     main.oer4f (.text:MmwDemo_isAllCfgInPendingState)
                  0001a7bc    000000ac     main.oer4f (.text:MmwDemo_measurementResultOutput)
                  0001a868    00000008     libmmwavelink_xwr68xx.aer4f : rl_driver.oer4f (.text:rlDriverConstructOutMsg)
                  0001a870    000000ac     sysbios.aer4ft : BIOS.obj (.text:ti_sysbios_knl_Task_Module_startup__E)
                  0001a91c    00000004     libmmwave_xwr68xx.aer4f : mmwave_listlib.oer4f (.text:MMWave_listGetNext)
                  0001a920    000000ac     sysbios.aer4ft : BIOS.obj (.text:ti_sysbios_utils_Load_startup__E)
                  0001a9cc    000000a8     libadcbuf_xwr68xx.aer4f : adcbuf_mmwave.oer4f (.text:ADCBUF_MMWave_getChanBufAddr)
                  0001aa74    000000a8     libcli_xwr68xx.aer4f : cli_mmwave.oer4f (.text:CLI_MMWaveExtensionHelp)
                  0001ab1c    000000a8     libedma_xwr68xx.aer4f : edma_low_level.oer4f (.text:EDMA3Init)
                  0001abc4    000000a8     libmmwave_xwr68xx.aer4f : mmwave_link.oer4f (.text:MMWave_configureProfileChirp)
                  0001ac6c    000000a8                             : mmwave_fullcfg.oer4f (.text:MMWave_getBpmChirpHandle)
                  0001ad14    000000a8     libpinmux_xwr68xx.aer4f : pinmux.oer4f (.text:Pinmux_Set_OverrideCtrl)
                  0001adbc    000000a8     libsoc_xwr68xx.aer4f : soc.oer4f (.text:SOC_deregisterSysIntListener)
                  0001ae64    000000a8     libmmwavelink_xwr68xx.aer4f : rl_driver.oer4f (.text:rlDriverWaitForResponse)
                  0001af0c    000000a8                                 : rl_sensor.oer4f (.text:rlSetAdvFrameConfig)
                  0001afb4    000000a7     data_path.oer4f (.text:MmwDemo_edmaInit)
                  0001b05b    00000001     --HOLE-- [fill = 0]
                  0001b05c    000000a4     libdma_xwr68xx.aer4f : dma.oer4f (.text:DMA_assignChannel)
                  0001b100    000000a4     libesm_xwr68xx.aer4f : esm.oer4f (.text:ESM_init)
                  0001b1a4    000000a4     libmmwave_xwr68xx.aer4f : mmwave_fullcfg.oer4f (.text:MMWave_addBpmChirp)
                  0001b248    000000a4                             : mmwave.oer4f (.text:MMWave_start)
                  0001b2ec    000000a4     libsoc_xwr68xx.aer4f : soc_xwr68xx_mss.oer4f (.text:SOC_unhaltDSS)
                  0001b390    000000a4     rtsv7R4_T_le_v3D16_eabi.lib : k_sin.obj (.text)
                  0001b434    0000000a     libadcbuf_xwr68xx.aer4f : ADCBuf.oer4f (.text:ADCBuf_control)
                  0001b43e    00000002     --HOLE-- [fill = 0]
                  0001b440    000000a2     sysbios.aer4ft : BIOS.obj (.text:xdc_runtime_Text_putSite__E)
                  0001b4e2    00000002     --HOLE-- [fill = 0]
                  0001b4e4    000000a0     libsoc_xwr68xx.aer4f : soc.oer4f (.text:SOC_registerSysIntListener)
                  0001b584    000000a0     auto_init.aer4ft : auto_init.oer4ft (.text)
                  0001b624    0000000a     libadcbuf_xwr68xx.aer4f : ADCBuf.oer4f (.text:ADCBuf_getChanBufAddr)
                  0001b62e    00000002     --HOLE-- [fill = 0]
                  0001b630    000000a0     sysbios.aer4ft : BIOS.obj (.text:ti_sysbios_knl_Task_blockI__E)
                  0001b6d0    0000009c     libmmwave_xwr68xx.aer4f : mmwave_link.oer4f (.text:MMWave_configLink)
                  0001b76c    0000009c                             : mmwave_fullcfg.oer4f (.text:MMWave_getProfileHandle)
                  0001b808    0000009c     mmw_cli.oer4f (.text:MmwDemo_CLIMeasureRangeBiasAndRxChanPhaseCfg)
                  0001b8a4    0000009c     libuart_xwr68xx.aer4f : uartsci.oer4f (.text:UartSci_write)
                  0001b940    0000009c     rtsv7R4_T_le_v3D16_eabi.lib : memcpy_t2.obj (.text)
                  0001b9dc    00000004     libmmwave_xwr68xx.aer4f : mmwave_link.oer4f (.text:MMWave_mboxClose)
                  0001b9e0    0000009c     sysbios.aer4ft : BIOS.obj (.text:ti_sysbios_family_arm_v7r_vim_Hwi_initIntController__I)
                  0001ba7c    00000004     libmmwave_xwr68xx.aer4f : mmwave_link.oer4f (.text:MMWave_mboxRead)
                  0001ba80    0000009c     sysbios.aer4ft : BIOS.obj (.text:ti_sysbios_family_arm_v7r_vim_Hwi_mapChannel__I)
                  0001bb1c    00000004     libmmwave_xwr68xx.aer4f : mmwave_link.oer4f (.text:MMWave_registerInterruptHandler)
                  0001bb20    0000009c     sysbios.aer4ft : BIOS.obj (.text:ti_sysbios_knl_Semaphore_Instance_init__E)
                  0001bbbc    0000009a     libdpm_xwr68xx.aer4f : dpm_msg.oer4f (.text:DPM_msgResponseHandler)
                  0001bc56    00000002     --HOLE-- [fill = 0]
                  0001bc58    0000009a     main.oer4f (.text:MmwDemo_dataPathStop)
                  0001bcf2    00000002     --HOLE-- [fill = 0]
                  0001bcf4    00000098     libaoa2dproc_hwa_xwr68xx.aer4f : aoa2dprochwa.oer4f (.text:DPU_AoAProcHWA_control)
                  0001bd8c    00000098     libmmwave_xwr68xx.aer4f : mmwave_fullcfg.oer4f (.text:MMWave_getChirpCfg)
                  0001be24    00000098     mmwdemo_rfparser.oer4f (.text:MmwDemo_RFParser_parseConfig)
                  0001bebc    00000098     main.oer4f (.text:MmwDemo_isAllCfgInNonPendingState)
                  0001bf54    00000098     rtsv7R4_T_le_v3D16_eabi.lib : fclose.obj (.text)
                  0001bfec    00000098                                 : fputc.obj (.text)
                  0001c084    00000098     sysbios.aer4ft : vim_Hwi_asm_switch.obj (.text)
                  0001c11c    00000004     libmmwave_xwr68xx.aer4f : mmwave_link.oer4f (.text:MMWave_unmaskHostIRQ)
                  0001c120    00000098     sysbios.aer4ft : BIOS.obj (.text:ti_sysbios_utils_Load_taskDeleteHook__E)
                  0001c1b8    00000096     libedma_xwr68xx.aer4f : edma.oer4f (.text:EDMA_getErrorStatusInfo)
                  0001c24e    00000096     libhwa_xwr68xx.aer4f : hwa.oer4f (.text:HWA_configRam)
                  0001c2e4    00000096     libuart_xwr68xx.aer4f : uartsci.oer4f (.text:UartSci_readChar)
                  0001c37a    00000094     libcbuff_xwr68xx.aer4f : cbuff_transfer.oer4f (.text:CBUFF_setupNonInterleaved_ADC)
                  0001c40e    00000002     --HOLE-- [fill = 0]
                  0001c410    00000094     mmw_lvds_stream.oer4f (.text:MmwDemo_LVDSStream_EDMAAllocateCBUFFHwChannel)
                  0001c4a4    00000094     mmw_lvds_stream.oer4f (.text:MmwDemo_LVDSStream_EDMAAllocateCBUFFSwChannel)
                  0001c538    00000094     libsoc_xwr68xx.aer4f : soc_xwr68xx.oer4f (.text:SOC_gateClock)
                  0001c5cc    00000094     libmmwavelink_xwr68xx.aer4f : rl_driver.oer4f (.text:rlDriverDeInit)
                  0001c660    00000094                                 : rl_driver.oer4f (.text:rlDriverMsgReadCmdCtx)
                  0001c6f4    00000094                                 : rl_driver.oer4f (.text:rlDriverProcRdMsg)
                  0001c788    00000094     sysbios.aer4ft : vim_Hwi_asm.obj (.text:ti_sysbios_family_arm_v7r_vim_Hwi_dispatchIRQ__I)
                  0001c81c    00000093     objectdetection.oer4f (.text:DPC_ObjectDetection_stop)
                  0001c8af    00000001     --HOLE-- [fill = 0]
                  0001c8b0    00000090     libgpio_xwr68xx.aer4f : gpio.oer4f (.text:GPIO_init)
                  0001c940    00000090     libmailbox_xwr68xx.aer4f : mailbox.oer4f (.text:Mailbox_close)
                  0001c9d0    00000090     libuart_xwr68xx.aer4f : uartsci_dma.oer4f (.text:UartSci_initiateTxDMA)
                  0001ca60    00000090                           : uartsci.oer4f (.text:UartSci_read)
                  0001caf0    00000090     sysbios.aer4ft : BIOS.obj (.text:ti_sysbios_family_arm_v7a_Pmu_startCounter__E)
                  0001cb80    00000090                    : BIOS.obj (.text:ti_sysbios_knl_Task_unblockI__E)
                  0001cc10    00000090                    : BIOS.obj (.text:xdc_runtime_LoggerBuf_getFilterLevel__E)
                  0001cca0    0000008c     libcli_xwr68xx.aer4f : cli_mmwave.oer4f (.text:CLI_MMWaveDataOutputMode)
                  0001cd2c    0000008c     libsoc_xwr68xx.aer4f : soc.oer4f (.text:SOC_init)
                  0001cdb8    0000008c                          : soc_xwr68xx.oer4f (.text:SOC_translateAddress)
                  0001ce44    0000008c     libuart_xwr68xx.aer4f : uartsci_dma.oer4f (.text:UartSci_initiateRxDMA)
                  0001ced0    0000008c     libmmwavelink_xwr68xx.aer4f : rl_device.oer4f (.text:rlDevicePowerOn)
                  0001cf5c    0000008c                                 : rl_driver.oer4f (.text:rlDriverMsgReadSpawnCtx)
                  0001cfe8    00000008                                 : rl_driver.oer4f (.text:rlDriverGetHandle)
                  0001cff0    0000008c     sysbios.aer4ft : BIOS.obj (.text:ti_sysbios_family_arm_v7a_Pmu_getCount__E)
                  0001d07c    00000004     libmmwave_xwr68xx.aer4f : mmwave_link.oer4f (.text:MMWave_waitIRQStatus)
                  0001d080    0000008c     sysbios.aer4ft : BIOS.obj (.text:ti_sysbios_family_arm_v7r_vim_Hwi_Instance_finalize__E)
                  0001d10c    00000004     data_path.oer4f (.text:MmwDemo_hwaInit)
                  0001d110    0000008c     sysbios.aer4ft : BIOS.obj (.text:xdc_runtime_Memory_alloc__E)
                  0001d19c    00000088     libhwa_xwr68xx.aer4f : hwa.oer4f (.text:HWA_disableParamSetInterrupt)
                  0001d224    00000088     libmmwave_xwr68xx.aer4f : mmwave_fullcfg.oer4f (.text:MMWave_getProfileCfg)
                  0001d2ac    00000088     rtsv7R4_T_le_v3D16_eabi.lib : vsnprintf.obj (.text)
                  0001d334    00000086     libaoa2dproc_hwa_xwr68xx.aer4f : aoa2dprochwa.oer4f (.text:AoAProcHWA_cfgAndTrigger_EDMA_2DFFT)
                  0001d3ba    00000002     --HOLE-- [fill = 0]
                  0001d3bc    00000086     libcbuff_xwr68xx.aer4f : cbuff_edma.oer4f (.text:CBUFF_closeEDMA)
                  0001d442    00000002     --HOLE-- [fill = 0]
                  0001d444    00000084     libcfarcaproc_hwa_xwr68xx.aer4f : cfarcaprochwa.oer4f (.text:DPU_CFARCAProcHWA_init)
                  0001d4c8    00000084     libmmwave_xwr68xx.aer4f : mmwave_dualcore.oer4f (.text:MMWave_deviceCfgAsyncEvent)
                  0001d54c    00000084                             : mmwave_dualcore.oer4f (.text:MMWave_deviceEventFxn)
                  0001d5d0    00000084                             : mmwave_fullcfg.oer4f (.text:MMWave_getNumBpmChirp)
                  0001d654    00000084                             : mmwave.oer4f (.text:MMWave_open)
                  0001d6d8    00000082     libhwa_xwr68xx.aer4f : hwa.oer4f (.text:HWA_paramDoneISR)
                  0001d75a    00000002     --HOLE-- [fill = 0]
                  0001d75c    00000081     libcbuff_xwr68xx.aer4f : cbuff_edma.oer4f (.text:CBUFF_setupEDMAShadowLink)
                  0001d7dd    00000003     --HOLE-- [fill = 0]
                  0001d7e0    00000080     libcli_xwr68xx.aer4f : cli_mmwave.oer4f (.text:CLI_MMWaveChannelCfg)
                  0001d860    00000080     libdpm_xwr68xx.aer4f : dpm_mailbox.oer4f (.text:DPM_mboxRemoteMailboxCallbackFxn)
                  0001d8e0    00000080     libmmwave_xwr68xx.aer4f : mmwave_fullcfg.oer4f (.text:MMWave_getBpmChirpCfg)
                  0001d960    00000080     mmw_cli.oer4f (.text:MmwDemo_CLIAoAFovCfg)
                  0001d9e0    00000080     mmw_lvds_stream.oer4f (.text:MmwDemo_LVDSStream_SwTriggerFrameDone)
                  0001da60    00000080     main.oer4f (.text:MmwDemo_configSensor)
                  0001dae0    00000080     libsoc_xwr68xx.aer4f : soc.oer4f (.text:SOC_getDeviceRFFreqScaleFactor)
                  0001db60    00000080     libuart_xwr68xx.aer4f : uartsci.oer4f (.text:UartSci_writePolling)
                  0001dbe0    00000080     libmmwavelink_xwr68xx.aer4f : rl_driver.oer4f (.text:rlDriverExecuteGetApi)
                  0001dc60    00000080     sysbios.aer4ft : BIOS.obj (.text:ti_sysbios_timers_rti_Timer_initDevice__I)
                  0001dce0    0000007e     objectdetection.oer4f (.text:DPC_ObjDet_GetRxChPhaseComp)
                  0001dd5e    00000002     --HOLE-- [fill = 0]
                  0001dd60    0000007e     libosal_xwr68xx.aer4f : HwiP_tirtos.oer4f (.text:HwiP_create)
                  0001ddde    00000002     --HOLE-- [fill = 0]
                  0001dde0    0000007d     libcbuff_xwr68xx.aer4f : cbuff_lvds.oer4f (.text:CBUFF_initLVDSLinkListParams)
                  0001de5d    00000003     --HOLE-- [fill = 0]
                  0001de60    0000007c     libdpm_xwr68xx.aer4f : dpm_pipe.oer4f (.text:DPM_pipeSend)
                  0001dedc    0000007c     libedma_xwr68xx.aer4f : edma.oer4f (.text:EDMA_clearErrors)
                  0001df58    0000007c     libmmwave_xwr68xx.aer4f : mmwave_dualcore.oer4f (.text:MMWave_deviceOpenFxn)
                  0001dfd4    0000007c     libmailbox_xwr68xx.aer4f : mailbox.oer4f (.text:Mailbox_init)
                  0001e050    0000007c     libuart_xwr68xx.aer4f : uartsci.oer4f (.text:UartSci_readPolling)
                  0001e0cc    0000007c     sysbios.aer4ft : arm_TaskSupport_asm.obj (.text:_ti_sysbios_family_arm_TaskSupport_buildTaskStack)
                  0001e148    00000008                    : BIOS.obj (.text:ti_sysbios_family_arm_v7a_Pmu_getEnabled__E)
                  0001e150    0000007c                    : BIOS.obj (.text:xdc_runtime_Core_deleteObject__I)
                  0001e1cc    0000007b     mmw_cli.oer4f (.text:MmwDemo_CLIGetSubframe)
                  0001e247    00000001     --HOLE-- [fill = 0]
                  0001e248    0000007a     rtsv7R4_T_le_v3D16_eabi.lib : memset_t2.obj (.text)
                  0001e2c2    00000002     --HOLE-- [fill = 0]
                  0001e2c4    00000078     libadcbuf_xwr68xx.aer4f : adcbuf_mmwave.oer4f (.text:ADCBUF_MMWave_getCQBufAddr)
                  0001e33c    00000078     libcbuff_xwr68xx.aer4f : cbuff_transfer.oer4f (.text:CBUFF_configUserBufferEDMA)
                  0001e3b4    00000078                            : cbuff.oer4f (.text:CBUFF_setVC)
                  0001e42c    00000078     libcli_xwr68xx.aer4f : cli_mmwave.oer4f (.text:CLI_MMWaveADCCfg)
                  0001e4a4    00000078     libedma_xwr68xx.aer4f : edma.oer4f (.text:EDMA_configParamSet)
                  0001e51c    00000078     libmmwave_xwr68xx.aer4f : mmwave_fullcfg.oer4f (.text:MMWave_getNumChirps)
                  0001e594    00000077     data_path.oer4f (.text:MmwDemo_hwaOpen)
                  0001e60b    00000001     --HOLE-- [fill = 0]
                  0001e60c    00000074     objectdetection.oer4f (.text:DPC_ObjDet_reconfigSubFrame)
                  0001e680    00000074     libmmwave_xwr68xx.aer4f : mmwave.oer4f (.text:MMWave_config)
                  0001e6f4    00000074                             : mmwave_dualcore.oer4f (.text:MMWave_deviceStartFxn)
                  0001e768    00000074     boot.aer4ft : boot.oer4ft (.text)
                  0001e7dc    00000074     libmmwavelink_xwr68xx.aer4f : rl_driver.oer4f (.text:rlDriverAsyncEventHandler)
                  0001e850    00000074     rtsv7R4_T_le_v3D16_eabi.lib : getdevice.obj (.text)
                  0001e8c4    00000074                                 : s_frexp.obj (.text)
                  0001e938    00000072     libcfarcaproc_hwa_xwr68xx.aer4f : cfarcaprochwa.oer4f (.text:CFARHWA_saveConfiguration)
                  0001e9aa    00000072     libmmwavelink_xwr68xx.aer4f : rl_driver.oer4f (.text:rlDriverClientCbCheck)
                  0001ea1c    00000070     libhsiheader_xwr68xx.aer4f : hsiheader.oer4f (.text:HSIHeader_deleteHeader)
                  0001ea8c    00000070     libhwa_xwr68xx.aer4f : hwa.oer4f (.text:HWA_getDriverAccess)
                  0001eafc    00000070     libmmwave_xwr68xx.aer4f : mmwave_dualcore.oer4f (.text:MMWave_deviceCfgFxn)
                  0001eb6c    00000070     mmw_cli.oer4f (.text:MmwDemo_CLIGuiMonSel)
                  0001ebdc    00000070     mmw_lvds_stream.oer4f (.text:MmwDemo_LVDSStream_EDMAFreeCBUFFHwChannel)
                  0001ec4c    00000070     mmw_lvds_stream.oer4f (.text:MmwDemo_LVDSStream_EDMAFreeCBUFFSwChannel)
                  0001ecbc    00000070     mmw_lvds_stream.oer4f (.text:MmwDemo_LVDSStream_HwTriggerFrameDone)
                  0001ed2c    00000070     main.oer4f (.text:MmwDemo_platformInit)
                  0001ed9c    00000004     main.oer4f (.text:MmwDemo_sleep)
                  0001eda0    00000070     sysbios.aer4ft : BIOS.obj (.text:xdc_runtime_Error_print__E)
                  0001ee10    0000006e     libcfarcaproc_hwa_xwr68xx.aer4f : cfarcaprochwa.oer4f (.text:CFARCAHWA_config_EDMA)
                  0001ee7e    00000002     --HOLE-- [fill = 0]
                  0001ee80    0000006c     libdma_xwr68xx.aer4f : dma.oer4f (.text:DMA_disableChannel)
                  0001eeec    0000006c                          : dma.oer4f (.text:DMA_enableChannel)
                  0001ef58    0000006c     libedma_xwr68xx.aer4f : edma.oer4f (.text:EDMA_isTransferComplete)
                  0001efc4    0000006c     libmmwave_xwr68xx.aer4f : mmwave_link.oer4f (.text:MMWave_spawn)
                  0001f030    0000006c                             : mmwave_link.oer4f (.text:MMWave_stopLink)
                  0001f09c    0000006c     libpinmux_xwr68xx.aer4f : pinmux.oer4f (.text:Pinmux_Set_FuncSel)
                  0001f108    0000006c     rtsv7R4_T_le_v3D16_eabi.lib : copy_decompress_lzss.obj (.text:decompress:lzss)
                  0001f174    0000006c                                 : trgmsg.obj (.text)
                  0001f1e0    0000006a     libuart_xwr68xx.aer4f : uartsci.oer4f (.text:UartSci_control)
                  0001f24a    00000002     --HOLE-- [fill = 0]
                  0001f24c    00000068     objectdetection.oer4f (.text:DPC_ObjectDetection_deinit)
                  0001f2b4    00000068     libdpm_xwr68xx.aer4f : dpm_msg.oer4f (.text:DPM_msgDPCCfgHandler)
                  0001f31c    00000068     libmmwave_xwr68xx.aer4f : mmwave_dualcore.oer4f (.text:MMWave_deviceStopFxn)
                  0001f384    00000068     libmailbox_xwr68xx.aer4f : mailbox.oer4f (.text:Mailbox_readFlush)
                  0001f3ec    00000068     main.oer4f (.text:MmwDemo_convertCfarToLinear)
                  0001f454    00000068     librangeproc_hwa_xwr68xx.aer4f : rangeprochwa.oer4f (.text:rangeProcHWA_ConfigEDMATranspose)
                  0001f4bc    00000068                                    : rangeprochwa.oer4f (.text:rangeProcHWA_ConfigHWACommon)
                  0001f524    00000068     libmmwavelink_xwr68xx.aer4f : rl_driver.oer4f (.text:rlDriverExecuteSetApi)
                  0001f58c    00000068                                 : rl_driver.oer4f (.text:rlDriverHostIrqHandler)
                  0001f5f4    00000068     rtsv7R4_T_le_v3D16_eabi.lib : hostlseek.obj (.text)
                  0001f65c    00000068                                 : hostrename.obj (.text)
                  0001f6c4    00000067     main.oer4f (.text:MmwDemo_mssSetHsiClk)
                  0001f72b    00000001     --HOLE-- [fill = 0]
                  0001f72c    00000066     libmmwavelink_xwr68xx.aer4f : rl_device.oer4f (.text:rlDevicePowerOff)
                  0001f792    00000002     --HOLE-- [fill = 0]
                  0001f794    00000064     libcli_xwr68xx.aer4f : cli_mmwave.oer4f (.text:CLI_MMWaveLowPowerCfg)
                  0001f7f8    00000064     libedma_xwr68xx.aer4f : edma.oer4f (.text:EDMA_getTransferControllerErrorStatusInfo)
                  0001f85c    00000064                           : edma.oer4f (.text:EDMA_startDmaTransfer)
                  0001f8c0    00000064     libhwa_xwr68xx.aer4f : hwa.oer4f (.text:HWA_getDMAChanIndex)
                  0001f924    00000064     libosal_xwr68xx.aer4f : SemaphoreP_tirtos.oer4f (.text:SemaphoreP_create)
                  0001f988    00000064     rtsv7R4_T_le_v3D16_eabi.lib : fseek.obj (.text)
                  0001f9ec    00000064                                 : sprintf.obj (.text)
                  0001fa50    00000064     sysbios.aer4ft : exc_Exception_asm.obj (.text:ti_sysbios_family_arm_exc_Exception_initCore0__I)
                  0001fab4    0000000a     libcbuff_xwr68xx.aer4f : cbuff_lvds.oer4f (.text:CBUFF_deinitLVDS)
                  0001fabe    00000002     --HOLE-- [fill = 0]
                  0001fac0    00000064     sysbios.aer4ft : BIOS.obj (.text:ti_sysbios_family_arm_v7r_vim_Hwi_phantomIntHandler__I)
                  0001fb24    0000000a     objectdetection.oer4f (.text:DPC_ObjDet_GetRangeWinGenLen)
                  0001fb2e    00000002     --HOLE-- [fill = 0]
                  0001fb30    00000064     sysbios.aer4ft : BIOS.obj (.text:ti_sysbios_knl_Clock_logTick__E)
                  0001fb94    0000000a     libdpm_xwr68xx.aer4f : dpm_core.oer4f (.text:DPM_chirpISR)
                  0001fb9e    00000002     --HOLE-- [fill = 0]
                  0001fba0    00000064     sysbios.aer4ft : BIOS.obj (.text:ti_sysbios_utils_Load_logCPULoad__I)
                  0001fc04    0000000a     libdpm_xwr68xx.aer4f : dpm_core.oer4f (.text:DPM_frameStartISR)
                  0001fc0e    00000002     --HOLE-- [fill = 0]
                  0001fc10    00000064     sysbios.aer4ft : BIOS.obj (.text:xdc_runtime_Startup_exec__E)
                  0001fc74    00000062     mmw_cli.oer4f (.text:MmwDemo_CLICfarFovCfg)
                  0001fcd6    00000002     --HOLE-- [fill = 0]
                  0001fcd8    00000060     libcli_xwr68xx.aer4f : cli_mmwave.oer4f (.text:CLI_MMWaveExtensionHandler)
                  0001fd38    00000060     libosal_xwr68xx.aer4f : DebugP_tirtos.oer4f (.text:DebugP_log2)
                  0001fd98    00000060                           : DebugP_tirtos.oer4f (.text:DebugP_log3)
                  0001fdf8    00000008     mmw_per4ft.oer4ft (.text:xdc_runtime_Text_visitRope__I)
                  0001fe00    00000060     sysbios.aer4ft : BIOS.obj (.text:ti_sysbios_heaps_HeapMem_alloc__E)
                  0001fe60    00000060                    : BIOS.obj (.text:xdc_runtime_Assert_raise__I)
                  0001fec0    0000005f                    : BIOS.obj (.text:xdc_runtime_Text_putLab__E)
                  0001ff1f    00000001     --HOLE-- [fill = 0]
                  0001ff20    0000005e     libuart_xwr68xx.aer4f : uartsci.oer4f (.text:UartSci_writeChar)
                  0001ff7e    00000002     --HOLE-- [fill = 0]
                  0001ff80    0000005c     libcfarcaproc_hwa_xwr68xx.aer4f : cfarcaprochwa.oer4f (.text:CFARHWA_fovConvertDoppler)
                  0001ffdc    0000005c                                     : cfarcaprochwa.oer4f (.text:CFARHWA_prepareHwaRunTime)
                  00020038    0000005c     libmmwave_xwr68xx.aer4f : mmwave_link.oer4f (.text:MMWave_mboxOpen)
                  00020094    0000005c                             : mmwave.oer4f (.text:MMWave_stop)
                  000200f0    0000005c     main.oer4f (.text:MmwDemo_mmWaveCtrlTask)
                  0002014c    0000005c     libsoc_xwr68xx.aer4f : soc.oer4f (.text:SOC_enableLVDS)
                  000201a8    0000005c     rtsv7R4_T_le_v3D16_eabi.lib : hostopen.obj (.text)
                  00020204    0000005c                                 : hostread.obj (.text)
                  00020260    0000005c     sysbios.aer4ft : BIOS.obj (.text:ti_sysbios_utils_Load_updateCurrentThreadTime__E)
                  000202bc    0000005a     libuart_xwr68xx.aer4f : uartsci.oer4f (.text:UartSci_readCancel)
                  00020316    0000005a     libmmwavelink_xwr68xx.aer4f : rl_driver.oer4f (.text:rlDriverCalChkSum)
                  00020370    00000058     libdpm_xwr68xx.aer4f : dpm_core.oer4f (.text:DPM_execute)
                  000203c8    00000058                          : dpm_mailbox.oer4f (.text:DPM_mboxInit)
                  00020420    00000058     libosal_xwr68xx.aer4f : DebugP_tirtos.oer4f (.text:DebugP_log0)
                  00020478    00000058                           : DebugP_tirtos.oer4f (.text:DebugP_log1)
                  000204d0    00000058     libedma_xwr68xx.aer4f : edma_low_level.oer4f (.text:EDMA3EnableChInShadowReg)
                  00020528    00000058     libesm_xwr68xx.aer4f : esm.oer4f (.text:ESM_highpriority_FIQ)
                  00020580    00000058     libhwa_xwr68xx.aer4f : hwa.oer4f (.text:HWA_getDMAconfig)
                  000205d8    00000058     libmmwave_xwr68xx.aer4f : mmwave.oer4f (.text:MMWave_execute)
                  00020630    00000058                             : mmwave_link.oer4f (.text:MMWave_initCRC)
                  00020688    00000058     mmw_cli.oer4f (.text:MmwDemo_CLISensorStop)
                  000206e0    00000058     libuart_xwr68xx.aer4f : uartsci_dma.oer4f (.text:UartSci_closeDMA)
                  00020738    00000058     rtsv7R4_T_le_v3D16_eabi.lib : close.obj (.text)
                  00020790    00000058                                 : hostwrite.obj (.text)
                  000207e8    00000056     libaoa2dproc_hwa_xwr68xx.aer4f : aoa2dprochwa.oer4f (.text:AoAProcHWA_config_HWA_common)
                  0002083e    00000056     libmmwavelink_xwr68xx.aer4f : rl_driver.oer4f (.text:rlDriverOsiCbCheck)
                  00020894    00000054     libcrc_xwr68xx.aer4f : crc.oer4f (.text:CRC_getTransactionId)
                  000208e8    00000054     libdma_xwr68xx.aer4f : dma.oer4f (.text:DMA_freeChannel)
                  0002093c    00000054     libedma_xwr68xx.aer4f : edma.oer4f (.text:EDMA_error_isr)
                  00020990    00000054     libmmwave_xwr68xx.aer4f : mmwave_link.oer4f (.text:MMWave_initLink)
                  000209e4    00000054     main.oer4f (.text:MmwDemo_CfgUpdate)
                  00020a38    00000054     rtsv7R4_T_le_v3D16_eabi.lib : ltoa.obj (.text)
                  00020a8c    00000054     mmw_per4ft.oer4ft (.text:ti_sysbios_family_arm_v7r_vim_Hwi_create)
                  00020ae0    00000054     sysbios.aer4ft : BIOS.obj (.text:ti_sysbios_heaps_HeapMem_getStats__E)
                  00020b34    0000000a     libosal_xwr68xx.aer4f : MemoryP_tirtos.oer4f (.text:MemoryP_ctrlFree)
                  00020b3e    00000002     --HOLE-- [fill = 0]
                  00020b40    00000054     sysbios.aer4ft : BIOS.obj (.text:xdc_runtime_Core_assignLabel__I)
                  00020b94    00000052     libdpedma_hwa_xwr68xx.aer4f : dpedma.oer4f (.text:DPEDMA_setup_shadow_link)
                  00020be6    00000002     --HOLE-- [fill = 0]
                  00020be8    00000050     libcrc_xwr68xx.aer4f : crc.oer4f (.text:CRC_getSignature)
                  00020c38    00000050     libedma_xwr68xx.aer4f : edma_low_level.oer4f (.text:EDMA3MapChToEvtQ)
                  00020c88    00000050     libmmwave_xwr68xx.aer4f : mmwave.oer4f (.text:MMWave_sync)
                  00020cd8    00000050     mmw_cli.oer4f (.text:MmwDemo_CLIMultiObjBeamForming)
                  00020d28    00000050     mmw_cli.oer4f (.text:MmwDemo_CLIQueryDemoStatus)
                  00020d78    00000050     libmmwavelink_xwr68xx.aer4f : rl_driver.oer4f (.text:rlDeviceIdentifyCmdDir)
                  00020dc8    00000050                                 : rl_driver.oer4f (.text:rlDriverVerifyCRC)
                  00020e18    00000050     rtsv7R4_T_le_v3D16_eabi.lib : atoi.obj (.text)
                  00020e68    00000050                                 : exit.obj (.text)
                  00020eb8    00000050                                 : u_div32.obj (.text)
                  00020f08    00000006     libosal_xwr68xx.aer4f : CycleprofilerP_tirtos.oer4f (.text:CycleprofilerP_getTimeStamp)
                  00020f0e    00000002     --HOLE-- [fill = 0]
                  00020f10    00000050     sysbios.aer4ft : BIOS.obj (.text:xdc_runtime_System_exit__E)
                  00020f60    0000004d     mmw_lvds_stream.oer4f (.text:MmwDemo_LVDSStream_EDMAAllocateCBUFFChannel)
                  00020fad    00000001     --HOLE-- [fill = 0]
                  00020fae    0000004c     libaoa2dproc_hwa_xwr68xx.aer4f : aoa2dprochwa.oer4f (.text:AoAProcHWA_findSinglePeak)
                  00020ffa    00000002     --HOLE-- [fill = 0]
                  00020ffc    0000004c     libcli_xwr68xx.aer4f : cli.oer4f (.text:CLI_write)
                  00021048    0000004c     libstaticclutterproc_xwr68xx.aer4f : staticclutterproc.oer4f (.text:DPU_StaticClutterProc_config)
                  00021094    0000004c     libedma_xwr68xx.aer4f : edma.oer4f (.text:EDMA_disableChannel)
                  000210e0    0000004c                           : edma.oer4f (.text:EDMA_enableChannel)
                  0002112c    0000004c     libhwa_xwr68xx.aer4f : hwa.oer4f (.text:HWA_enableDoneInterrupt)
                  00021178    0000004c     libmailbox_xwr68xx.aer4f : mailbox.oer4f (.text:Mailbox_boxEmptyISRProcessing)
                  000211c4    0000004c     libuart_xwr68xx.aer4f : uartsci.oer4f (.text:UartSci_writeCancel)
                  00021210    0000004c     rtsv7R4_T_le_v3D16_eabi.lib : cpy_tbl.obj (.text)
                  0002125c    00000004     mmw_per4ft.oer4ft (.text:ti_sysbios_BIOS_RtsGateProxy_enter__E)
                  00021260    0000004c     sysbios.aer4ft : BIOS.obj (.text:ti_sysbios_family_arm_v7r_vim_Hwi_getStackInfo__E)
                  000212ac    0000004c     mmw_per4ft.oer4ft (.text:ti_sysbios_knl_Task_create)
                  000212f8    00000006     libdpm_xwr68xx.aer4f : dpm_mailbox.oer4f (.text:DPM_mboxSynch)
                  000212fe    00000002     --HOLE-- [fill = 0]
                  00021300    0000004c     sysbios.aer4ft : BIOS.obj (.text:ti_sysbios_knl_Task_stat__E)
                  0002134c    00000004     mmw_per4ft.oer4ft (.text:ti_sysbios_BIOS_RtsGateProxy_leave__E)
                  00021350    0000004c     sysbios.aer4ft : BIOS.obj (.text:ti_sysbios_utils_Load_taskSwitchHook__E)
                  0002139c    0000004a     libdpm_xwr68xx.aer4f : dpm_mailbox.oer4f (.text:DPM_mboxSendResult)
                  000213e6    0000004a     libmailbox_xwr68xx.aer4f : mailbox.oer4f (.text:Mailbox_boxFullISRProcessing)
                  00021430    0000004a     sysbios.aer4ft : BIOS.obj (.text:xdc_runtime_Core_assignParams__I)
                  0002147a    00000006     libedma_xwr68xx.aer4f : edma_low_level.oer4f (.text:EDMA3ClrCCErr)
                  00021480    0000004a     sysbios.aer4ft : BIOS.obj (.text:xdc_runtime_Text_xprintf__I)
                  000214ca    00000048     libcbuff_xwr68xx.aer4f : cbuff_transfer.oer4f (.text:CBUFF_setup_USER)
                  00021512    00000048     libcfarcaproc_hwa_xwr68xx.aer4f : cfarcaprochwa.oer4f (.text:CFARHWA_convHwaCfarDetListToDetMask)
                  0002155a    00000048     libdpm_xwr68xx.aer4f : dpm_pipe.oer4f (.text:DPM_pipeRecv)
                  000215a2    00000002     --HOLE-- [fill = 0]
                  000215a4    00000048     libhwa_xwr68xx.aer4f : hwa.oer4f (.text:HWA_deleteInstance)
                  000215ec    00000048                          : hwa.oer4f (.text:HWA_readCFARPeakCountReg)
                  00021634    00000048     main.oer4f (.text:MmwDemo_resetStaticCfgPendingState)
                  0002167c    00000048     libmmwavelink_xwr68xx.aer4f : rl_device.oer4f (.text:rlDeviceGetVersion)
                  000216c4    00000048                                 : rl_driver.oer4f (.text:rlDriverOsiInit)
                  0002170c    00000048     mmw_per4ft.oer4ft (.text:xdc_runtime_LoggerBuf_Object__create__S)
                  00021754    00000046     libmailbox_xwr68xx.aer4f : mailbox.oer4f (.text:CSL_FINSR)
                  0002179a    00000002     --HOLE-- [fill = 0]
                  0002179c    00000044     libadcbuf_xwr68xx.aer4f : adcbuf_mmwave.oer4f (.text:ADCBUF_MMWave_close)
                  000217e0    00000044     libcrc_xwr68xx.aer4f : crc.oer4f (.text:CRC_resetSignature)
                  00021824    00000044     libdpm_xwr68xx.aer4f : dpm_core.oer4f (.text:DPM_start)
                  00021868    00000044                          : dpm_core.oer4f (.text:DPM_stop)
                  000218ac    00000044     libmailbox_xwr68xx.aer4f : mailbox.oer4f (.text:Mailbox_boxFullISRMssDss)
                  000218f0    00000044     libsoc_xwr68xx.aer4f : soc_xwr68xx_mss.oer4f (.text:SOC_resetDMA)
                  00021934    00000044     rtsv7R4_T_le_v3D16_eabi.lib : hostclose.obj (.text)
                  00021978    00000044                                 : hostunlink.obj (.text)
                  000219bc    00000004     mmw_per4ft.oer4ft (.text:ti_sysbios_family_arm_TaskSupport_Module__startupDone__S)
                  000219c0    00000044     sysbios.aer4ft : BIOS.obj (.text:ti_sysbios_family_arm_v7r_tms570_Core_Module_startup__E)
                  00021a04    0000000a     main.oer4f (.text:MmwDemo_resetDynObjDetCfgPendingState)
                  00021a0e    00000002     --HOLE-- [fill = 0]
                  00021a10    00000044     sysbios.aer4ft : BIOS.obj (.text:ti_sysbios_knl_Task_allBlockedFunction__I)
                  00021a54    0000000a     libosal_xwr68xx.aer4f : SemaphoreP_tirtos.oer4f (.text:SemaphoreP_post)
                  00021a5e    00000002     --HOLE-- [fill = 0]
                  00021a60    00000044     sysbios.aer4ft : BIOS.obj (.text:xdc_runtime_LoggerBuf_Module_startup__E)
                  00021aa4    0000000a     libuart_xwr68xx.aer4f : UART.oer4f (.text:UART_close)
                  00021aae    00000002     --HOLE-- [fill = 0]
                  00021ab0    00000044     sysbios.aer4ft : BIOS.obj (.text:xdc_runtime_System_atexit__E)
                  00021af4    00000042     libcbuff_xwr68xx.aer4f : cbuff_lvds.oer4f (.text:CBUFF_closeLVDS)
                  00021b36    00000042     libedma_xwr68xx.aer4f : edma.oer4f (.text:EDMA_transferController_error_isr)
                  00021b78    00000042     libhwa_xwr68xx.aer4f : hwa.oer4f (.text:HWA_reset)
                  00021bba    00000042     libmmwave_xwr68xx.aer4f : mmwave_link.oer4f (.text:MMWave_executeLink)
                  00021bfc    00000042     libmmwavelink_xwr68xx.aer4f : rl_controller.oer4f (.text:rlGetSubBlock)
                  00021c3e    00000040     objectdetection.oer4f (.text:DPC_ObjDet_GetAntGeometryDef)
                  00021c7e    00000002     --HOLE-- [fill = 0]
                  00021c80    00000040     libedma_xwr68xx.aer4f : edma.oer4f (.text:EDMA_linkParamSets)
                  00021cc0    00000040     libhwa_xwr68xx.aer4f : hwa.oer4f (.text:HWA_getHWAMemInfo)
                  00021d00    00000040     mmw_cli.oer4f (.text:MmwDemo_CLIClutterRemoval)
                  00021d40    00000040     mmw_cli.oer4f (.text:MmwDemo_CLIExtendedMaxVelocity)
                  00021d80    00000040     libmmwavelink_xwr68xx.aer4f : rl_driver.oer4f (.text:rlDriverValidateHdr)
                  00021dc0    00000040     rtsv7R4_T_le_v3D16_eabi.lib : strtok.obj (.text)
                  00021e00    00000040     sysbios.aer4ft : BIOS.obj (.text:ti_sysbios_timers_rti_Timer_stop__E)
                  00021e40    0000003e     libadcbuf_xwr68xx.aer4f : adcbuf_mmwave.oer4f (.text:CSL_FINSR)
                  00021e7e    0000003e     libcbuff_xwr68xx.aer4f : cbuff.oer4f (.text:CSL_FINSR)
                  00021ebc    0000003e                            : cbuff_lvds.oer4f (.text:CSL_FINSR)
                  00021efa    0000003e     libcrc_xwr68xx.aer4f : crc.oer4f (.text:CSL_FINSR)
                  00021f38    0000003e     libdma_xwr68xx.aer4f : dma.oer4f (.text:CSL_FINSR)
                  00021f76    0000003e     libgpio_xwr68xx.aer4f : gpio.oer4f (.text:CSL_FINSR)
                  00021fb4    0000003e     libhwa_xwr68xx.aer4f : hwa.oer4f (.text:CSL_FINSR)
                  00021ff2    0000003e     libpinmux_xwr68xx.aer4f : pinmux.oer4f (.text:CSL_FINSR)
                  00022030    0000003e     libsoc_xwr68xx.aer4f : soc.oer4f (.text:CSL_FINSR)
                  0002206e    0000003e                          : soc_xwr68xx.oer4f (.text:CSL_FINSR)
                  000220ac    0000003e                          : soc_xwr68xx_mss.oer4f (.text:CSL_FINSR)
                  000220ea    0000003e     libuart_xwr68xx.aer4f : uartsci.oer4f (.text:CSL_FINSR)
                  00022128    0000003e     libdpm_xwr68xx.aer4f : dpm_msg.oer4f (.text:DPM_msgStopHandler)
                  00022166    0000003e     libhwa_xwr68xx.aer4f : hwa.oer4f (.text:HWA_enable)
                  000221a4    0000003e     libmmwave_xwr68xx.aer4f : mmwave.oer4f (.text:MMWave_decodeError)
                  000221e2    0000003e     libuart_xwr68xx.aer4f : uartsci.oer4f (.text:UartSci_close)
                  00022220    0000003e     mmwdemo_monitor.oer4f (.text:mmwDemo_cfgAnalogMonitor)
                  0002225e    0000003c     libcbuff_xwr68xx.aer4f : cbuff_transfer.oer4f (.text:CBUFF_configCQEDMA)
                  0002229a    00000002     --HOLE-- [fill = 0]
                  0002229c    0000003c     libcli_xwr68xx.aer4f : cli_mmwave.oer4f (.text:CLI_MMWaveFlushCfg)
                  000222d8    0000003c     libedma_xwr68xx.aer4f : edma.oer4f (.text:EDMA_chainChannels)
                  00022314    0000003c                           : edma.oer4f (.text:EDMA_getErrorStatus)
                  00022350    0000003c                           : edma.oer4f (.text:EDMA_getTransferControllerErrorStatus)
                  0002238c    0000003c     libmailbox_xwr68xx.aer4f : mailbox.oer4f (.text:Mailbox_writeReset)
                  000223c8    0000003c     data_path.oer4f (.text:MmwDemo_EDMA_errorCallbackFxn)
                  00022404    0000003c     data_path.oer4f (.text:MmwDemo_EDMA_transferControllerErrorCallbackFxn)
                  00022440    0000003c     libsoc_xwr68xx.aer4f : soc_xwr68xx_mss.oer4f (.text:SOC_isSecureDevice)
                  0002247c    0000003c                          : soc.oer4f (.text:SOC_unhaltBSS)
                  000224b8    0000003c     sysbios.aer4ft : vim_Hwi_asm.obj (.text:ti_sysbios_family_arm_v7r_vim_Hwi_init__I)
                  000224f4    0000000a     libuart_xwr68xx.aer4f : UART.oer4f (.text:UART_read)
                  000224fe    00000002     --HOLE-- [fill = 0]
                  00022500    0000003c     sysbios.aer4ft : BIOS.obj (.text:ti_sysbios_hal_Hwi_checkStack)
                  0002253c    00000004     mmw_per4ft.oer4ft (.text:ti_sysbios_family_arm_v7r_vim_Hwi_delete)
                  00022540    0000003c     sysbios.aer4ft : BIOS.obj (.text:ti_sysbios_heaps_HeapMem_init__I)
                  0002257c    0000003a     libhwa_xwr68xx.aer4f : hwa.oer4f (.text:HWA_setDMA2ACCManualTrig)
                  000225b6    00000002     --HOLE-- [fill = 0]
                  000225b8    0000003a     libosal_xwr68xx.aer4f : HwiP_tirtos.oer4f (.text:HwiP_delete)
                  000225f2    00000038     libcbuff_xwr68xx.aer4f : cbuff_transfer.oer4f (.text:CBUFF_addUserBufferLLEntry)
                  0002262a    00000038                            : cbuff_transfer.oer4f (.text:CBUFF_setupHeader)
                  00022662    00000002     --HOLE-- [fill = 0]
                  00022664    00000038     libcli_xwr68xx.aer4f : cli_mmwave.oer4f (.text:CLI_MMWaveExtensionInit)
                  0002269c    00000038     libdpm_xwr68xx.aer4f : dpm_core.oer4f (.text:DPM_notifyExecute)
                  000226d4    00000038     libedma_xwr68xx.aer4f : edma_low_level.oer4f (.text:EDMA3ClrMissEvt)
                  0002270c    00000038     libuart_xwr68xx.aer4f : UART.oer4f (.text:UART_init)
                  00022744    00000036     libmmwavelink_xwr68xx.aer4f : rl_controller.oer4f (.text:rlAppendSubBlock)
                  0002277a    00000036     rtsv7R4_T_le_v3D16_eabi.lib : strncpy.obj (.text)
                  000227b0    00000034     libadcbuf_xwr68xx.aer4f : ADCBuf.oer4f (.text:ADCBuf_open)
                  000227e4    00000034     libedma_xwr68xx.aer4f : edma.oer4f (.text:EDMA_configTransferControllerError)
                  00022818    00000034     libhwa_xwr68xx.aer4f : hwa.oer4f (.text:HWA_disableDoneInterrupt)
                  0002284c    00000034     libmmwave_xwr68xx.aer4f : mmwave_link.oer4f (.text:MMWave_mboxWrite)
                  00022880    00000034     libsoc_xwr68xx.aer4f : soc_xwr68xx.oer4f (.text:SOC_enableHWA)
                  000228b4    00000034                          : soc_xwr68xx_mss.oer4f (.text:SOC_hasDSPCore)
                  000228e8    00000034                          : soc_xwr68xx.oer4f (.text:SOC_setMMWaveDSSLinkState)
                  0002291c    00000034                          : soc_xwr68xx.oer4f (.text:SOC_setMMWaveMSSLinkState)
                  00022950    00000034                          : soc_xwr68xx.oer4f (.text:SOC_setMSSLinkState)
                  00022984    00000034     libuart_xwr68xx.aer4f : UART.oer4f (.text:UART_open)
                  000229b8    00000006     libedma_xwr68xx.aer4f : edma_low_level.oer4f (.text:EDMA3ErrIntrHighStatusGet)
                  000229be    00000002     --HOLE-- [fill = 0]
                  000229c0    00000034     sysbios.aer4ft : BIOS.obj (.text:ti_sysbios_family_arm_a15_TimestampProvider_get64__E)
                  000229f4    00000034     mmw_per4ft.oer4ft (.text:ti_sysbios_knl_Semaphore_create)
                  00022a28    00000032     libcfarcaproc_hwa_xwr68xx.aer4f : cfarcaprochwa.oer4f (.text:CFARHWA_fovConvertRange)
                  00022a5a    00000002     --HOLE-- [fill = 0]
                  00022a5c    00000032     libcrc_xwr68xx.aer4f : crc.oer4f (.text:CRC_getCRCDataSelectBitValue)
                  00022a8e    00000002     --HOLE-- [fill = 0]
                  00022a90    00000032                          : crc.oer4f (.text:CRC_getCRCTypeBitValue)
                  00022ac2    00000032     libedma_xwr68xx.aer4f : edma.oer4f (.text:EDMA_configQueueThreshold)
                  00022af4    00000032     libhwa_xwr68xx.aer4f : hwa.oer4f (.text:HWA_allParamDoneISR)
                  00022b26    0000000a     libuart_xwr68xx.aer4f : UART.oer4f (.text:UART_write)
                  00022b30    00000032     sysbios.aer4ft : BIOS.obj (.text:ti_sysbios_hal_Hwi_initStack)
                  00022b62    00000002     --HOLE-- [fill = 0]
                  00022b64    00000030     libadcbuf_xwr68xx.aer4f : ADCBuf.oer4f (.text:ADCBuf_init)
                  00022b94    00000030     libcbuff_xwr68xx.aer4f : cbuff_transfer.oer4f (.text:CBUFF_addCQLLEntry)
                  00022bc4    00000030     libmmwave_xwr68xx.aer4f : mmwave_listlib.oer4f (.text:MMWave_listRemoveNode)
                  00022bf4    00000030     libsoc_xwr68xx.aer4f : soc.oer4f (.text:SOC_getDevicePartNumber)
                  00022c24    00000030     libmmwavelink_xwr68xx.aer4f : rl_sensor.oer4f (.text:rlSensorStart)
                  00022c54    00000030     mmw_per4ft.oer4ft (.text:ti_sysbios_BIOS_startFunc__I)
                  00022c84    0000000a     libuart_xwr68xx.aer4f : UART.oer4f (.text:UART_writePolling)
                  00022c8e    00000002     --HOLE-- [fill = 0]
                  00022c90    00000030     sysbios.aer4ft : BIOS.obj (.text:ti_sysbios_family_arm_TaskSupport_start__E)
                  00022cc0    00000030     mmw_per4ft.oer4ft (.text:ti_sysbios_gates_GateHwi_Object__create__S)
                  00022cf0    00000030     mmw_per4ft.oer4ft (.text:ti_sysbios_gates_GateMutex_Object__create__S)
                  00022d20    00000030     mmw_per4ft.oer4ft (.text:ti_sysbios_heaps_HeapMem_Object__create__S)
                  00022d50    00000030     sysbios.aer4ft : BIOS.obj (.text:ti_sysbios_heaps_HeapMem_free__E)
                  00022d80    00000030     mmw_per4ft.oer4ft (.text:ti_sysbios_knl_Semaphore_construct)
                  00022db0    0000002f     sysbios.aer4ft : BIOS.obj (.text:xdc_runtime_Text_printVisFxn__I)
                  00022ddf    00000001     --HOLE-- [fill = 0]
                  00022de0    0000002e     libcfarcaproc_hwa_xwr68xx.aer4f : cfarcaprochwa.oer4f (.text:CFARHWA_triggerCFAR)
                  00022e0e    0000002e     libdpm_xwr68xx.aer4f : dpm_msg.oer4f (.text:DPM_msgStartHandler)
                  00022e3c    0000002e     libhwa_xwr68xx.aer4f : hwa.oer4f (.text:HWA_getCfarPeakCntRegAddress)
                  00022e6a    0000002e     objectdetection.oer4f (.text:_DPC_Objdet_Assert)
                  00022e98    00000006     libedma_xwr68xx.aer4f : edma_low_level.oer4f (.text:EDMA3GetCCErrStatus)
                  00022e9e    00000002     --HOLE-- [fill = 0]
                  00022ea0    0000002e     sysbios.aer4ft : BIOS.obj (.text:ti_sysbios_knl_Semaphore_pendTimeout__I)
                  00022ece    0000002e     mmw_per4ft.oer4ft (.text:ti_sysbios_rts_MemAlloc_alloc)
                  00022efc    0000002c     libdpm_xwr68xx.aer4f : dpm_pipe.oer4f (.text:DPM_pipeInit)
                  00022f28    0000002c     libstaticclutterproc_xwr68xx.aer4f : staticclutterproc.oer4f (.text:DPU_StaticClutterProc_init)
                  00022f54    0000002c     libedma_xwr68xx.aer4f : edma.oer4f (.text:EDMA_setDestinationAddress)
                  00022f80    0000002c                           : edma.oer4f (.text:EDMA_setSourceAddress)
                  00022fac    0000002c                           : edma.oer4f (.text:EDMA_validate_channelIdchannelType)
                  00022fd8    0000002c     libgpio_xwr68xx.aer4f : gpio.oer4f (.text:GPIO_HighPriorityISR)
                  00023004    0000002c                           : gpio.oer4f (.text:GPIO_LowPriorityISR)
                  00023030    0000002c     libmmwave_xwr68xx.aer4f : mmwave_osal.oer4f (.text:MMWave_osalMutexCreate)
                  0002305c    0000002c                             : mmwave_osal.oer4f (.text:MMWave_osalSemCreate)
                  00023088    0000002c     libsoc_xwr68xx.aer4f : soc_xwr68xx_mss.oer4f (.text:SOC_waitBSSPowerUp)
                  000230b4    0000002c     libmmwavelink_xwr68xx.aer4f : rl_device.oer4f (.text:rlDeviceGetMssVersion)
                  000230e0    0000002c                                 : rl_sensor.oer4f (.text:rlSensorStop)
                  0002310c    0000002c     rtsv7R4_T_le_v3D16_eabi.lib : e_sqrt.obj (.text)
                  00023138    0000002c                                 : unlink.obj (.text)
                  00023164    0000002c     mmw_per4ft.oer4ft (.text:ti_sysbios_BIOS_atExitFunc__I)
                  00023190    0000002c     mmw_per4ft.oer4ft (.text:ti_sysbios_knl_Clock_doTick__I)
                  000231bc    0000002c     mmw_per4ft.oer4ft (.text:ti_sysbios_knl_Queue_construct)
                  000231e8    00000006     libedma_xwr68xx.aer4f : edma_low_level.oer4f (.text:EDMA3GetErrIntrStatus)
                  000231ee    00000002     --HOLE-- [fill = 0]
                  000231f0    0000002c     sysbios.aer4ft : BIOS.obj (.text:ti_sysbios_timers_rti_Timer_periodicStub__E)
                  0002321c    0000002a     objectdetection.oer4f (.text:DPC_ObjDet_MemPoolAlloc)
                  00023246    0000002a     libdpm_xwr68xx.aer4f : dpm_pipe.oer4f (.text:DPM_pipeDeinit)
                  00023270    0000002a     libedma_xwr68xx.aer4f : edma.oer4f (.text:EDMA_isError)
                  0002329a    0000002a     mmwdemo_adcconfig.oer4f (.text:MmwDemo_ADCBufOpen)
                  000232c4    0000002a     libsoc_xwr68xx.aer4f : soc.oer4f (.text:SOC_SystemISR)
                  000232ee    0000002a     libmmwavelink_xwr68xx.aer4f : rl_device.oer4f (.text:rlDeviceGetMmWaveLinkVersion)
                  00023318    0000002a     rtsv7R4_T_le_v3D16_eabi.lib : strspn.obj (.text)
                  00023342    00000002     --HOLE-- [fill = 0]
                  00023344    00000028     libcbuff_xwr68xx.aer4f : cbuff.oer4f (.text:CBUFF_ErrorISR)
                  0002336c    00000028                            : cbuff.oer4f (.text:CBUFF_FrameStartISR)
                  00023394    00000028     libdpm_xwr68xx.aer4f : dpm_mailbox.oer4f (.text:DPM_mboxDeinit)
                  000233bc    00000028                          : dpm_msg.oer4f (.text:DPM_msgInitHeader)
                  000233e4    00000028     librangeproc_hwa_xwr68xx.aer4f : rangeprochwa.oer4f (.text:DPU_RangeProcHWA_deinit)
                  0002340c    00000028     libmailbox_xwr68xx.aer4f : mailbox.oer4f (.text:Mailbox_Config_init)
                  00023434    00000028     libuart_xwr68xx.aer4f : uartsci_dma.oer4f (.text:UartSci_RxDMACallbackFxn)
                  0002345c    00000028                           : uartsci_dma.oer4f (.text:UartSci_TxDMACallbackFxn)
                  00023484    00000028     libmmwavelink_xwr68xx.aer4f : rl_driver.oer4f (.text:rlDriverConstructInMsg)
                  000234ac    00000028     rtsv7R4_T_le_v3D16_eabi.lib : lseek.obj (.text)
                  000234d4    00000028                                 : write.obj (.text)
                  000234fc    00000004     mmw_per4ft.oer4ft (.text:ti_sysbios_heaps_HeapMem_Module_GateProxy_enter__E)
                  00023500    00000028     sysbios.aer4ft : BIOS.obj (.text:ti_sysbios_knl_Idle_run__E)
                  00023528    00000006     libedma_xwr68xx.aer4f : edma_low_level.oer4f (.text:EDMA3QdmaGetErrIntrStatus)
                  0002352e    00000002     --HOLE-- [fill = 0]
                  00023530    00000028     sysbios.aer4ft : BIOS.obj (.text:xdc_runtime_SysStd_abort__E)
                  00023558    00000006     libosal_xwr68xx.aer4f : HwiP_tirtos.oer4f (.text:HwiP_restore)
                  0002355e    00000002     --HOLE-- [fill = 0]
                  00023560    00000028     sysbios.aer4ft : BIOS.obj (.text:xdc_runtime_System_aprintf_va__F)
                  00023588    00000026     libstaticclutterproc_xwr68xx.aer4f : staticclutterproc.oer4f (.text:DPU_StaticClutterProc_waitInData)
                  000235ae    00000026                                        : staticclutterproc.oer4f (.text:DPU_StaticClutterProc_waitOutData)
                  000235d4    00000026     mmwdemo_monitor.oer4f (.text:mmwDemo_cfgRxSaturationMonitor)
                  000235fa    00000026     libmmwavelink_xwr68xx.aer4f : rl_monitoring.oer4f (.text:rlRfAnaMonConfig)
                  00023620    00000026                                 : rl_sensor.oer4f (.text:rlRfGetTemperatureReport)
                  00023646    00000026                                 : rl_sensor.oer4f (.text:rlRfInitCalibConfig)
                  0002366c    00000026                                 : rl_sensor.oer4f (.text:rlRfRunTimeCalibConfig)
                  00023692    00000026                                 : rl_monitoring.oer4f (.text:rlRfRxIfSatMonConfig)
                  000236b8    00000026                                 : rl_monitoring.oer4f (.text:rlRfRxSigImgMonConfig)
                  000236de    00000026                                 : rl_sensor.oer4f (.text:rlRfSetCalMonFreqLimitConfig)
                  00023704    00000026                                 : rl_sensor.oer4f (.text:rlRfSetDeviceCfg)
                  0002372a    00000026                                 : rl_sensor.oer4f (.text:rlRfSetLdoBypassConfig)
                  00023750    00000026                                 : rl_sensor.oer4f (.text:rlSetAdcOutConfig)
                  00023776    00000026                                 : rl_sensor.oer4f (.text:rlSetBpmCommonConfig)
                  0002379c    00000026                                 : rl_sensor.oer4f (.text:rlSetChannelConfig)
                  000237c2    00000026                                 : rl_sensor.oer4f (.text:rlSetContModeConfig)
                  000237e8    00000026     rtsv7R4_T_le_v3D16_eabi.lib : memcmp.obj (.text)
                  0002380e    00000002     --HOLE-- [fill = 0]
                  00023810    00000026     sysbios.aer4ft : BIOS.obj (.text:xdc_runtime_System_printf_va__F)
                  00023836    00000002     --HOLE-- [fill = 0]
                  00023838    00000025     main.oer4f (.text:_MmwDemo_debugAssert)
                  0002385d    00000001     --HOLE-- [fill = 0]
                  0002385e    00000024     libcrc_xwr68xx.aer4f : crc.oer4f (.text:CRC_isTransactionIdValid)
                  00023882    00000002     --HOLE-- [fill = 0]
                  00023884    00000024     libedma_xwr68xx.aer4f : edma_low_level.oer4f (.text:EDMA3ClrEvt)
                  000238a8    00000024                           : edma_low_level.oer4f (.text:EDMA3ClrIntr)
                  000238cc    00000024                           : edma_low_level.oer4f (.text:EDMA3DisableDmaEvt)
                  000238f0    00000024                           : edma_low_level.oer4f (.text:EDMA3DisableEvtIntr)
                  00023914    00000024                           : edma_low_level.oer4f (.text:EDMA3EnableDmaEvt)
                  00023938    00000024                           : edma_low_level.oer4f (.text:EDMA3EnableEvtIntr)
                  0002395c    00000024                           : edma_low_level.oer4f (.text:EDMA3SetEvt)
                  00023980    00000024                           : edma.oer4f (.text:EDMA_clearTransferControllerErrors)
                  000239a4    00000024     libgpio_xwr68xx.aer4f : gpio.oer4f (.text:GPIO_processInterrupt)
                  000239c8    00000024     libhsiheader_xwr68xx.aer4f : hsiheader.oer4f (.text:HSIHeader_processUserBuffer)
                  000239ec    00000024     libsoc_xwr68xx.aer4f : soc_xwr68xx.oer4f (.text:SOC_isDSSOperational)
                  00023a10    00000024                          : soc_xwr68xx.oer4f (.text:SOC_isMMWaveDSSOperational)
                  00023a34    00000024                          : soc_xwr68xx.oer4f (.text:SOC_isMMWaveMSSOperational)
                  00023a58    00000024     libmmwavelink_xwr68xx.aer4f : rl_device.oer4f (.text:rlDeviceSetHsiClk)
                  00023a7c    00000024                                 : rl_sensor.oer4f (.text:rlEnableContMode)
                  00023aa0    00000024                                 : rl_sensor.oer4f (.text:rlRfSetCalMonTimeUnitConfig)
                  00023ac4    00000024                                 : rl_sensor.oer4f (.text:rlSetLowPowerModeConfig)
                  00023ae8    00000024     mmw_per4ft.oer4ft (.text:ti_sysbios_BIOS_registerRTSLock__I)
                  00023b0c    00000024     mmw_per4ft.oer4ft (.text:ti_sysbios_BIOS_removeRTSLock__I)
                  00023b30    00000024     mmw_per4ft.oer4ft (.text:ti_sysbios_gates_GateMutex_Object__delete__S)
                  00023b54    0000000a     libmathutils.aer4f : mathutils.oer4f (.text:mathUtils_floorLog2)
                  00023b5e    00000002     --HOLE-- [fill = 0]
                  00023b60    00000024     sysbios.aer4ft : BIOS.obj (.text:ti_sysbios_knl_Clock_Module_startup__E)
                  00023b84    00000024     mmw_per4ft.oer4ft (.text:ti_sysbios_knl_Semaphore_Object__delete__S)
                  00023ba8    00000022     libcbuff_xwr68xx.aer4f : cbuff_transfer.oer4f (.text:CBUFF_initLinkedList)
                  00023bca    00000022     objectdetection.oer4f (.text:DPC_ObjDet_GenDopplerWindow)
                  00023bec    00000022     libuart_xwr68xx.aer4f : uartsci.oer4f (.text:UartSci_disableRxDMA)
                  00023c0e    00000022                           : uartsci.oer4f (.text:UartSci_enableRxDMA)
                  00023c30    00000022     rtsv7R4_T_le_v3D16_eabi.lib : strcspn.obj (.text)
                  00023c52    00000020     libdpm_xwr68xx.aer4f : dpm_listlib.oer4f (.text:DPM_listCat)
                  00023c72    00000002     --HOLE-- [fill = 0]
                  00023c74    00000020     libedma_xwr68xx.aer4f : edma_low_level.oer4f (.text:EDMA3QdmaClrMissEvt)
                  00023c94    00000020     libesm_xwr68xx.aer4f : esm.oer4f (.text:ESM_lowpriority_IRQ)
                  00023cb4    00000020     libhsiheader_xwr68xx.aer4f : hsiheader.oer4f (.text:HSIHeader_processCQ)
                  00023cd4    00000020     libmmwave_xwr68xx.aer4f : mmwave_listlib.oer4f (.text:MMWave_listCat)
                  00023cf4    00000020     main.oer4f (.text:MmwDemo_DPC_ObjectDetection_processFrameBeginCallBackFxn)
                  00023d14    00000020     libpinmux_xwr68xx.aer4f : pinmux.oer4f (.text:Pinmux_Unlock)
                  00023d34    00000020     libmmwavelink_xwr68xx.aer4f : rl_sensor.oer4f (.text:rlRfInit)
                  00023d54    0000000a     sysbios.aer4ft : tms570_Core_asm.obj (.text:ti_sysbios_family_arm_v7r_tms570_Core_getId__E)
                  00023d5e    00000002     --HOLE-- [fill = 0]
                  00023d60    00000020                    : BIOS.obj (.text:ti_sysbios_family_arm_TaskSupport_stackUsed__E)
                  00023d80    00000020                    : BIOS.obj (.text:ti_sysbios_family_arm_a15_TimestampProvider_autoRefreshFxn__I)
                  00023da0    00000020                    : BIOS.obj (.text:ti_sysbios_family_arm_v7a_Pmu_Module_startup__E)
                  00023dc0    00000020     mmw_per4ft.oer4ft (.text:ti_sysbios_family_arm_v7r_vim_Hwi_Object__delete__S)
                  00023de0    00000020     sysbios.aer4ft : BIOS.obj (.text:ti_sysbios_family_arm_v7r_vim_Hwi_disableInterrupt__E)
                  00023e00    00000020                    : BIOS.obj (.text:ti_sysbios_family_arm_v7r_vim_Hwi_enableInterrupt__E)
                  00023e20    00000020     mmw_per4ft.oer4ft (.text:ti_sysbios_gates_GateHwi_Object__delete__S)
                  00023e40    00000020     mmw_per4ft.oer4ft (.text:ti_sysbios_heaps_HeapMem_Object__delete__S)
                  00023e60    00000020     mmw_per4ft.oer4ft (.text:ti_sysbios_knl_Semaphore_destruct)
                  00023e80    00000020     mmw_per4ft.oer4ft (.text:xdc_runtime_LoggerBuf_Object__delete__S)
                  00023ea0    0000001e     libaoa2dproc_hwa_xwr68xx.aer4f : aoa2dprochwa.oer4f (.text:AoAProcHWA_waitEdma)
                  00023ebe    0000001e     libcfarcaproc_hwa_xwr68xx.aer4f : cfarcaprochwa.oer4f (.text:CFARHWA_isHwaCfarDetected)
                  00023edc    0000001e     libdpm_xwr68xx.aer4f : dpm_pipe.oer4f (.text:DPM_pipeDequeue)
                  00023efa    0000001e     libmmwave_xwr68xx.aer4f : mmwave_fullcfg.oer4f (.text:MMWave_internalDelChirp)
                  00023f18    0000001e     libsoc_xwr68xx.aer4f : soc_xwr68xx_mss.oer4f (.text:SOC_getOutAddr_LUTType)
                  00023f36    0000001e     mmwdemo_monitor.oer4f (.text:mmwDemo_cfgRxSigImgMonitor)
                  00023f54    0000001e     mmw_per4ft.oer4ft (.text:ti_sysbios_BIOS_errorRaiseHook__I)
                  00023f72    0000001c     libcrc_xwr68xx.aer4f : crc.oer4f (.text:CRC_releaseTransactionId)
                  00023f8e    0000001c     libadcbuf_xwr68xx.aer4f : adcbuf_mmwave.oer4f (.text:CSL_FEXTR)
                  00023faa    0000001c     libcbuff_xwr68xx.aer4f : cbuff.oer4f (.text:CSL_FEXTR)
                  00023fc6    0000001c                            : cbuff_lvds.oer4f (.text:CSL_FEXTR)
                  00023fe2    0000001c     libdma_xwr68xx.aer4f : dma.oer4f (.text:CSL_FEXTR)
                  00023ffe    0000001c     libhsiheader_xwr68xx.aer4f : hsiheader.oer4f (.text:CSL_FEXTR)
                  0002401a    0000001c     libhwa_xwr68xx.aer4f : hwa.oer4f (.text:CSL_FEXTR)
                  00024036    0000001c     libmmwave_xwr68xx.aer4f : mmwave.oer4f (.text:CSL_FEXTR)
                  00024052    0000001c     libsoc_xwr68xx.aer4f : soc.oer4f (.text:CSL_FEXTR)
                  0002406e    0000001c                          : soc_xwr68xx.oer4f (.text:CSL_FEXTR)
                  0002408a    0000001c                          : soc_xwr68xx_mss.oer4f (.text:CSL_FEXTR)
                  000240a6    0000001c     libuart_xwr68xx.aer4f : uartsci.oer4f (.text:CSL_FEXTR)
                  000240c2    0000001c     libdpm_xwr68xx.aer4f : dpm_listlib.oer4f (.text:DPM_listRemove)
                  000240de    00000002     --HOLE-- [fill = 0]
                  000240e0    0000001c     libaoa2dproc_hwa_xwr68xx.aer4f : aoa2dprochwa.oer4f (.text:DPU_AoAProcHWA_deinit)
                  000240fc    0000001c     libstaticclutterproc_xwr68xx.aer4f : staticclutterproc.oer4f (.text:DPU_StaticClutterProc_deinit)
                  00024118    0000001c     libmmwave_xwr68xx.aer4f : mmwave_listlib.oer4f (.text:MMWave_listRemove)
                  00024134    0000001c     main.oer4f (.text:MmwDemo_DPC_ObjectDetection_processInterFrameBeginCallBackFxn)
                  00024150    0000001c     libsoc_xwr68xx.aer4f : soc_xwr68xx_mss.oer4f (.text:SOC_getInAddr_LUTType)
                  0002416c    0000001c     sysbios.aer4ft : arm_TaskSupport_asm.obj (.text:_ti_sysbios_family_arm_TaskSupport_glue)
                  00024188    0000001c                    : arm_TaskSupport_asm.obj (.text:_ti_sysbios_family_arm_TaskSupport_swap__E)
                  000241a4    0000001c     rtsv7R4_T_le_v3D16_eabi.lib : memccpy.obj (.text)
                  000241c0    0000001c     mmw_per4ft.oer4ft (.text:ti_sysbios_BIOS_rtsLock__I)
                  000241dc    00000004     mmw_per4ft.oer4ft (.text:ti_sysbios_heaps_HeapMem_Module_GateProxy_leave__E)
                  000241e0    0000001c     sysbios.aer4ft : BIOS.obj (.text:ti_sysbios_family_arm_v7r_vim_Hwi_clearInterrupt__E)
                  000241fc    00000004     mmw_per4ft.oer4ft (.text:ti_sysbios_knl_Clock_TimerProxy_getMaxTicks__E)
                  00024200    0000001c     sysbios.aer4ft : BIOS.obj (.text:ti_sysbios_gates_GateMutex_Instance_init__E)
                  0002421c    00000004     mmw_per4ft.oer4ft (.text:ti_sysbios_knl_Semaphore_delete)
                  00024220    0000001c     sysbios.aer4ft : BIOS.obj (.text:ti_sysbios_gates_GateMutex_leave__E)
                  0002423c    0000001c     mmw_per4ft.oer4ft (.text:ti_sysbios_knl_Queue_destruct)
                  00024258    00000006     libmmwavelink_xwr68xx.aer4f : rl_controller.oer4f (.text:rlGetSubBlockId)
                  0002425e    00000002     --HOLE-- [fill = 0]
                  00024260    0000001c     sysbios.aer4ft : BIOS.obj (.text:ti_sysbios_knl_Task_restoreHwi__E)
                  0002427c    00000004     mmw_per4ft.oer4ft (.text:xdc_runtime_LoggerBuf_Module_GateProxy_enter__E)
                  00024280    0000001c     sysbios.aer4ft : BIOS.obj (.text:xdc_runtime_LoggerBuf_Instance_finalize__E)
                  0002429c    0000001a     libcbuff_xwr68xx.aer4f : cbuff_lvds.oer4f (.text:CBUFF_finalizeLVDSLinkListParams)
                  000242b6    0000001a     libdpm_xwr68xx.aer4f : dpm_listlib.oer4f (.text:DPM_listAdd)
                  000242d0    0000001a                          : dpm_mailbox.oer4f (.text:DPM_mboxMsgSend)
                  000242ea    0000001a                          : dpm_msg.oer4f (.text:DPM_msgAssertHandler)
                  00024304    0000001a                          : dpm_msg.oer4f (.text:DPM_msgDPCInfoHandler)
                  0002431e    0000001a     libedma_xwr68xx.aer4f : edma_low_level.oer4f (.text:EDMA3SetPaRAM)
                  00024338    0000001a     libmmwave_xwr68xx.aer4f : mmwave_dualcore.oer4f (.text:MMWave_deviceSyncFxn)
                  00024352    0000001a                             : mmwave.oer4f (.text:MMWave_encodeError)
                  0002436c    0000001a                             : mmwave_listlib.oer4f (.text:MMWave_listAdd)
                  00024386    0000001a     mmw_per4ft.oer4ft (.text:free)
                  000243a0    0000001a     libmmwavelink_xwr68xx.aer4f : rl_sensor.oer4f (.text:rlGetRfDieId)
                  000243ba    0000001a     rtsv7R4_T_le_v3D16_eabi.lib : s_copysign.obj (.text)
                  000243d4    0000001a     sysbios.aer4ft : a15_TimestampProvider_asm.obj (.text:ti_sysbios_family_arm_a15_TimestampProvider_initCCNT__I)
                  000243ee    0000001a     mmw_per4ft.oer4ft (.text:xdc_runtime_System_aprintf__E)
                  00024408    0000001a     mmw_per4ft.oer4ft (.text:xdc_runtime_System_printf__E)
                  00024422    00000018     libadcbuf_xwr68xx.aer4f : adcbuf_mmwave.oer4f (.text:ADCBUFContinuousModeCtrl)
                  0002443a    00000002     --HOLE-- [fill = 0]
                  0002443c    00000018     libcli_xwr68xx.aer4f : cli_mmwave.oer4f (.text:CLI_getMMWaveExtensionOpenConfig)
                  00024454    00000018     libcbuff_xwr68xx.aer4f : cbuff_transfer.oer4f (.text:CSL_FINSR)
                  0002446c    00000018     objectdetection.oer4f (.text:DPC_ObjDet_GenRangeWindow)
                  00024484    00000018     libdpm_xwr68xx.aer4f : dpm_msg.oer4f (.text:DPM_msgBSSFaultHandler)
                  0002449c    00000018     libcfarcaproc_hwa_xwr68xx.aer4f : cfarcaprochwa.oer4f (.text:DPU_CFARCAProcHWA_deinit)
                  000244b4    00000018     libdopplerproc_hwa_xwr68xx.aer4f : dopplerprochwa.oer4f (.text:DPU_DopplerProcHWA_deinit)
                  000244cc    00000018     libedma_xwr68xx.aer4f : edma_low_level.oer4f (.text:EDMA3DisableQdmaEvt)
                  000244e4    00000018                           : edma_low_level.oer4f (.text:EDMA3EnableQdmaEvt)
                  000244fc    00000018     libmmwave_xwr68xx.aer4f : mmwave_osal.oer4f (.text:MMWave_osalMutexLock)
                  00024514    00000018                             : mmwave_osal.oer4f (.text:MMWave_osalSemWait)
                  0002452c    00000018     libmailbox_xwr68xx.aer4f : mailbox.oer4f (.text:Mailbox_boxEmptyISRBss)
                  00024544    00000018                              : mailbox.oer4f (.text:Mailbox_boxEmptyISRMssDss)
                  0002455c    00000018                              : mailbox.oer4f (.text:Mailbox_boxFullISRBss)
                  00024574    00000018     libmmwavelink_xwr68xx.aer4f : rl_device.oer4f (.text:rlDeviceGetRfVersion)
                  0002458c    00000018                                 : rl_driver.oer4f (.text:rlDriverCalCRC)
                  000245a4    00000018                                 : rl_driver.oer4f (.text:rlDriverFillPayload)
                  000245bc    00000018     rtsv7R4_T_le_v3D16_eabi.lib : args_main.obj (.text)
                  000245d4    00000018                                 : ll_mul_t2.obj (.text)
                  000245ec    00000018                                 : strcmp.obj (.text)
                  00024604    00000018                                 : strrchr.obj (.text)
                  0002461c    00000018     mmw_per4ft.oer4ft (.text:ti_sysbios_BIOS_rtsUnlock__I)
                  00024634    00000018     sysbios.aer4ft : BIOS.obj (.text:ti_sysbios_family_arm_v7a_Pmu_initCounters__I)
                  0002464c    00000018     mmw_per4ft.oer4ft (.text:ti_sysbios_family_arm_v7r_vim_Hwi_Module__startupDone__F)
                  00024664    00000018     mmw_per4ft.oer4ft (.text:ti_sysbios_family_arm_v7r_vim_Hwi_Params__init__S)
                  0002467c    00000018     mmw_per4ft.oer4ft (.text:ti_sysbios_gates_GateHwi_Handle__label__S)
                  00024694    00000018     mmw_per4ft.oer4ft (.text:ti_sysbios_gates_GateMutex_Handle__label__S)
                  000246ac    00000018     mmw_per4ft.oer4ft (.text:ti_sysbios_heaps_HeapMem_Handle__label__S)
                  000246c4    00000018     mmw_per4ft.oer4ft (.text:ti_sysbios_knl_Semaphore_Params__init__S)
                  000246dc    00000018     mmw_per4ft.oer4ft (.text:ti_sysbios_knl_Task_Params__init__S)
                  000246f4    0000000a     mmw_per4ft.oer4ft (.text:xdc_runtime_IHeap_alloc)
                  000246fe    00000002     --HOLE-- [fill = 0]
                  00024700    00000018     sysbios.aer4ft : BIOS.obj (.text:ti_sysbios_knl_Task_enter__I)
                  00024718    00000018     mmw_per4ft.oer4ft (.text:ti_sysbios_timers_rti_Timer_Module__startupDone__F)
                  00024730    00000018     sysbios.aer4ft : BIOS.obj (.text:xdc_runtime_Error_init__E)
                  00024748    00000018     mmw_per4ft.oer4ft (.text:xdc_runtime_LoggerBuf_Handle__label__S)
                  00024760    00000016     libcbuff_xwr68xx.aer4f : cbuff_transfer.oer4f (.text:CBUFF_shutdownTransfer)
                  00024776    00000016     librangeproc_hwa_xwr68xx.aer4f : rangeprochwa.oer4f (.text:rangeProcHWA_EDMA_transferCompletionCallbackFxn)
                  0002478c    00000016     rtsv7R4_T_le_v3D16_eabi.lib : strchr.obj (.text)
                  000247a2    00000016                                 : strlen.obj (.text)
                  000247b8    00000016     mmw_per4ft.oer4ft (.text:ti_sysbios_BIOS_exitFunc__I)
                  000247ce    00000002     --HOLE-- [fill = 0]
                  000247d0    00000016     sysbios.aer4ft : BIOS.obj (.text:ti_sysbios_knl_Idle_loop__E)
                  000247e6    0000000a     mmw_per4ft.oer4ft (.text:xdc_runtime_IHeap_free)
                  000247f0    00000016     sysbios.aer4ft : BIOS.obj (.text:ti_sysbios_knl_Task_sleepTimeout__I)
                  00024806    00000014     libosal_xwr68xx.aer4f : CycleprofilerP_tirtos.oer4f (.text:CycleprofilerP_init)
                  0002481a    00000002     --HOLE-- [fill = 0]
                  0002481c    00000014     libedma_xwr68xx.aer4f : edma_low_level.oer4f (.text:EDMA3GetIntrStatus)
                  00024830    00000014                           : edma_low_level.oer4f (.text:EDMA3IntrStatusHighGet)
                  00024844    00000014                           : edma_low_level.oer4f (.text:EDMA3MapQdmaChToPaRAM)
                  00024858    00000014     libosal_xwr68xx.aer4f : HwiP_tirtos.oer4f (.text:HwiP_Params_init)
                  0002486c    00000014     libmmwave_xwr68xx.aer4f : mmwave_fullcfg.oer4f (.text:MMWave_internalDelBpmChirp)
                  00024880    00000014                             : mmwave_fullcfg.oer4f (.text:MMWave_internalDelProfile)
                  00024894    00000014                             : mmwave_osal.oer4f (.text:MMWave_osalMutexDelete)
                  000248a8    00000014                             : mmwave_osal.oer4f (.text:MMWave_osalSemDelete)
                  000248bc    00000014     mmwdemo_rfparser.oer4f (.text:MmwDemo_RFParser_getNumSubFrames)
                  000248d0    00000014     libpinmux_xwr68xx.aer4f : pinmux.oer4f (.text:Pinmux_Lock)
                  000248e4    00000014     libuart_xwr68xx.aer4f : uartsci.oer4f (.text:UartSci_disableTxDMA)
                  000248f8    00000014                           : uartsci.oer4f (.text:UartSci_enableTxDMA)
                  0002490c    00000014     libosal_xwr68xx.aer4f : DebugP_tirtos.oer4f (.text:_DebugP_assert)
                  00024920    00000014     libmathutils.aer4f : mathutils.oer4f (.text:mathUtils_ceilLog2)
                  00024934    00000014     libmmwavelink_xwr68xx.aer4f : rl_controller.oer4f (.text:rlAppendDummy)
                  00024948    00000014                                 : rl_driver.oer4f (.text:rlDriverIsDeviceMapValid)
                  0002495c    00000014     rtsv7R4_T_le_v3D16_eabi.lib : _lock.obj (.text)
                  00024970    00000014                                 : strcpy.obj (.text)
                  00024984    00000014     mmw_per4ft.oer4ft (.text:ti_sysbios_heaps_HeapMem_Object__get__S)
                  00024998    00000014     mmw_per4ft.oer4ft (.text:xdc_runtime_LoggerBuf_Object__get__S)
                  000249ac    00000012     libcrc_xwr68xx.aer4f : crc.oer4f (.text:CRC_initConfigParams)
                  000249be    00000012     libedma_xwr68xx.aer4f : edma_low_level.oer4f (.text:EDMA3SetQdmaTrigWord)
                  000249d0    00000012     libmmwave_xwr68xx.aer4f : mmwave_dualcore.oer4f (.text:MMWave_deviceGetDeviceInfo)
                  000249e2    00000012     libosal_xwr68xx.aer4f : MemoryP_tirtos.oer4f (.text:MemoryP_ctrlAlloc)
                  000249f4    00000012                           : SemaphoreP_tirtos.oer4f (.text:SemaphoreP_pend)
                  00024a06    00000012     libmathutils.aer4f : mathutils.oer4f (.text:mathUtils_pow2roundup)
                  00024a18    00000006     libmmwavelink_xwr68xx.aer4f : rl_controller.oer4f (.text:rlGetSubBlockLen)
                  00024a1e    00000002     --HOLE-- [fill = 0]
                  00024a20    00000012     sysbios.aer4ft : BIOS.obj (.text:ti_sysbios_hal_Hwi_Module_startup__E)
                  00024a32    0000000e     libsoc_xwr68xx.aer4f : soc_xwr68xx_mss.oer4f (.text:SOC_microDelay)
                  00024a40    00000012     sysbios.aer4ft : BIOS.obj (.text:xdc_runtime_LoggerBuf_write1__E)
                  00024a52    0000000e     libosal_xwr68xx.aer4f : SemaphoreP_tirtos.oer4f (.text:SemaphoreP_delete)
                  00024a60    00000012     sysbios.aer4ft : BIOS.obj (.text:xdc_runtime_LoggerBuf_write2__E)
                  00024a72    00000012     mmw_per4ft.oer4ft (.text:xdc_runtime_Startup_exec__I)
                  00024a84    00000010     libadcbuf_xwr68xx.aer4f : ADCBuf.oer4f (.text:ADCBuf_Params_init)
                  00024a94    00000010     libcli_xwr68xx.aer4f : cli_mmwave.oer4f (.text:CLI_getMMWaveExtensionConfig)
                  00024aa4    00000010     libcrc_xwr68xx.aer4f : crc.oer4f (.text:CRC_getSignatureRegister)
                  00024ab4    0000000a     mmw_per4ft.oer4ft (.text:xdc_runtime_IHeap_getStats)
                  00024abe    00000002     --HOLE-- [fill = 0]
                  00024ac0    00000010     sysbios.aer4ft : BIOS.obj (.text:ti_sysbios_BIOS_getCpuFreq__E)
                  00024ad0    00000010                    : BIOS.obj (.text:ti_sysbios_BIOS_setThreadType__E)
                  00024ae0    00000010                    : BIOS.obj (.text:ti_sysbios_BIOS_start__E)
                  00024af0    00000010                    : BIOS.obj (.text:ti_sysbios_family_arm_a15_TimestampProvider_Module_startup__E)
                  00024b00    00000010                    : BIOS.obj (.text:ti_sysbios_family_arm_v7a_Pmu_disableInterruptI__E)
                  00024b10    00000010                    : BIOS.obj (.text:ti_sysbios_family_arm_v7a_Pmu_enableInterruptI__E)
                  00024b20    00000010                    : BIOS.obj (.text:ti_sysbios_family_arm_v7a_Pmu_getNumCounters__E)
                  00024b30    00000010                    : BIOS.obj (.text:ti_sysbios_family_arm_v7a_Pmu_startCounterI__E)
                  00024b40    00000010                    : BIOS.obj (.text:ti_sysbios_family_arm_v7a_Pmu_stopCounterI__E)
                  00024b50    00000010                    : BIOS.obj (.text:ti_sysbios_gates_GateMutex_Instance_finalize__E)
                  00024b60    00000010     mmw_per4ft.oer4ft (.text:ti_sysbios_heaps_HeapBuf_Object__get__S)
                  00024b70    00000010     sysbios.aer4ft : BIOS.obj (.text:ti_sysbios_knl_Semaphore_Instance_finalize__E)
                  00024b80    00000010     mmw_per4ft.oer4ft (.text:ti_sysbios_knl_Task_Object__get__S)
                  00024b90    00000010     sysbios.aer4ft : BIOS.obj (.text:ti_sysbios_knl_Task_disable__E)
                  00024ba0    00000010                    : BIOS.obj (.text:xdc_runtime_LoggerBuf_write0__E)
                  00024bb0    00000010                    : BIOS.obj (.text:xdc_runtime_Memory_free__E)
                  00024bc0    00000010                    : BIOS.obj (.text:xdc_runtime_Memory_getStats__E)
                  00024bd0    0000000e     rtsv7R4_T_le_v3D16_eabi.lib : copy_decompress_none.obj (.text:decompress:none)
                  00024bde    0000000e     sysbios.aer4ft : a15_TimestampProvider_asm.obj (.text:ti_sysbios_family_arm_a15_TimestampProvider_getOverflowCCNT__I)
                  00024bec    00000004     mmw_per4ft.oer4ft (.text:xdc_runtime_LoggerBuf_Module_GateProxy_leave__E)
                  00024bf0    0000000e     sysbios.aer4ft : BIOS.obj (.text:ti_sysbios_knl_Queue_empty__E)
                  00024bfe    00000002     --HOLE-- [fill = 0]
                  00024c00    0000000c                    : BIOS.obj (.text:ti_sysbios_family_arm_TaskSupport_checkStack__E)
                  00024c0c    00000004     mmw_per4ft.oer4ft (.text:xdc_runtime_System_Module_GateProxy_enter__E)
                  00024c10    0000000c     sysbios.aer4ft : BIOS.obj (.text:ti_sysbios_family_arm_TaskSupport_getStackAlignment__E)
                  00024c1c    00000004     mmw_per4ft.oer4ft (.text:xdc_runtime_System_Module_GateProxy_leave__E)
                  00024c20    0000000c     sysbios.aer4ft : BIOS.obj (.text:ti_sysbios_family_arm_exc_Exception_Module_startup__E)
                  00024c2c    00000004     --HOLE-- [fill = 0]
                  00024c30    0000000c                    : BIOS.obj (.text:ti_sysbios_family_arm_v7r_vim_Hwi_switchFromBootStack__E)
                  00024c3c    00000004     --HOLE-- [fill = 0]
                  00024c40    0000000c                    : BIOS.obj (.text:ti_sysbios_utils_Load_getCPULoad__E)
                  00024c4c    00000004     --HOLE-- [fill = 0]
                  00024c50    0000000c                    : BIOS.obj (.text:ti_sysbios_utils_Load_taskRegHook__E)
                  00024c5c    00000004     --HOLE-- [fill = 0]
                  00024c60    0000000c                    : BIOS.obj (.text:xdc_runtime_Startup_rtsDone__E)
                  00024c6c    00000004     --HOLE-- [fill = 0]
                  00024c70    0000000c                    : BIOS.obj (.text:xdc_runtime_SysStd_exit__E)
                  00024c7c    00000004     --HOLE-- [fill = 0]
                  00024c80    0000000a                    : BIOS.obj (.text:xdc_runtime_LoggerBuf_disable__E)
                  00024c8a    00000006                    : a15_TimestampProvider_asm.obj (.text:ti_sysbios_family_arm_a15_TimestampProvider_get32__E)
                  00024c90    0000000a                    : BIOS.obj (.text:xdc_runtime_LoggerBuf_enable__E)
                  00024c9a    00000006     --HOLE-- [fill = 0]
                  00024ca0    00000008                    : BIOS.obj (.text:ti_sysbios_gates_GateHwi_enter__E)
                  00024ca8    00000008     --HOLE-- [fill = 0]
                  00024cb0    00000006                    : BIOS.obj (.text:ti_sysbios_family_arm_v7r_vim_Hwi_startup__E)
                  00024cb6    0000000a     --HOLE-- [fill = 0]
                  00024cc0    00000006                    : BIOS.obj (.text:ti_sysbios_gates_GateHwi_leave__E)
                  00024cc6    0000000a     --HOLE-- [fill = 0]
                  00024cd0    00000006                    : BIOS.obj (.text:ti_sysbios_heaps_HeapMem_isBlocking__E)
                  00024cd6    0000000a     --HOLE-- [fill = 0]
                  00024ce0    00000006                    : BIOS.obj (.text:ti_sysbios_knl_Queue_Instance_init__E)
                  00024ce6    0000000a     --HOLE-- [fill = 0]
                  00024cf0    00000006                    : BIOS.obj (.text:xdc_runtime_System_Module_startup__E)
                  00024cf6    0000000a     --HOLE-- [fill = 0]
                  00024d00    00000004                    : BIOS.obj (.text:ti_sysbios_gates_GateHwi_query__E)
                  00024d04    0000000c     --HOLE-- [fill = 0]
                  00024d10    00000004                    : BIOS.obj (.text:ti_sysbios_gates_GateMutex_query__E)
                  00024d14    0000000c     --HOLE-- [fill = 0]
                  00024d20    00000004                    : BIOS.obj (.text:ti_sysbios_knl_Task_startup__E)
                  00024d24    0000000c     --HOLE-- [fill = 0]
                  00024d30    00000004                    : BIOS.obj (.text:ti_sysbios_timers_rti_Timer_getMaxTicks__E)
                  00024d34    0000000c     --HOLE-- [fill = 0]
                  00024d40    00000004                    : BIOS.obj (.text:xdc_runtime_SysStd_putch__E)
                  00024d44    0000000c     --HOLE-- [fill = 0]
                  00024d50    00000004                    : BIOS.obj (.text:xdc_runtime_SysStd_ready__E)
                  00024d54    0000000c     --HOLE-- [fill = 0]
                  00024d60    00000002                    : BIOS.obj (.text:ti_sysbios_BIOS_linkedWithIncorrectBootLibrary__E)
                  00024d62    0000000e     --HOLE-- [fill = 0]
                  00024d70    00000002                    : BIOS.obj (.text:ti_sysbios_gates_GateHwi_Instance_init__E)

.const     0    00024d78    00001194     
                  00024d78    000002b8     libmmwavelink_xwr68xx.aer4f : rl_sensor.oer4f (.const:$O1$$)
                  00025030    000001ee     mmw_cli.oer4f (.const:.string)
                  0002521e    00000002     mmw_per4ft.oer4ft (.const:ti_sysbios_family_arm_exc_Exception_Module__id__C)
                  00025220    00000158     rtsv7R4_T_le_v3D16_eabi.lib : k_rem_pio2.obj (.const:$O1$$)
                  00025378    00000101                                 : ctype.obj (.const:.string:_ctypes_)
                  00025479    00000001     mmw_per4ft.oer4ft (.const:xdc_runtime_Text_charTab__A)
                  0002547a    00000002     mmw_per4ft.oer4ft (.const:ti_sysbios_family_arm_v7a_Pmu_Module__id__C)
                  0002547c    000000a0     libcli_xwr68xx.aer4f : cli_mmwave.oer4f (.const:.string)
                  0002551c    00000004                          : cli.oer4f (.const:.string:$P$T0$1)
                  00025520    00000098     rtsv7R4_T_le_v3D16_eabi.lib : strtod.obj (.const:$O1$$)
                  000255b8    00000088     libmmwavelink_xwr68xx.aer4f : rl_driver.oer4f (.const:$O2$$)
                  00025640    00000080     mmw_per4ft.oer4ft (.const:ti_sysbios_family_arm_v7r_vim_Hwi_channelMap__A)
                  000256c0    00000058     mmw_per4ft.oer4ft (.const:.string)
                  00025718    00000044     mmw_per4ft.oer4ft (.const:ti_sysbios_knl_Task_Object__PARAMS__C)
                  0002575c    00000040     libhwa_xwr68xx.aer4f : hwa.oer4f (.const:gHwaTrigSignatures)
                  0002579c    0000003c     libuart_xwr68xx.aer4f : UART.oer4f (.const:UART_defaultParams)
                  000257d8    0000003c     mmw_per4ft.oer4ft (.const:xdc_runtime_LoggerBuf_Module__FXNS__C)
                  00025814    00000038     libedma_xwr68xx.aer4f : edma_xwr1xxx.oer4f (.const:gEdmaHwAttrs)
                  0002584c    00000030     mmw_per4ft.oer4ft (.const:ti_sysbios_family_arm_v7r_vim_Hwi_Object__PARAMS__C)
                  0002587c    00000030     mmw_per4ft.oer4ft (.const:xdc_runtime_Startup_sfxnTab__A)
                  000258ac    00000028     libdpm_xwr68xx.aer4f : dpm_msg.oer4f (.const:gDPMMessageFxnTable)
                  000258d4    00000028     mmw_per4ft.oer4ft (.const:ti_sysbios_heaps_HeapMem_Module__FXNS__C)
                  000258fc    00000028     mmw_per4ft.oer4ft (.const:xdc_runtime_LoggerBuf_Object__PARAMS__C)
                  00025924    00000024     libmailbox_xwr68xx.aer4f : mailbox.oer4f (.const:Mailbox_defaultCfg)
                  00025948    00000024     mmw_per4ft.oer4ft (.const:ti_sysbios_gates_GateHwi_Module__FXNS__C)
                  0002596c    00000024     mmw_per4ft.oer4ft (.const:ti_sysbios_gates_GateMutex_Module__FXNS__C)
                  00025990    00000024     mmw_per4ft.oer4ft (.const:ti_sysbios_heaps_HeapMem_Object__PARAMS__C)
                  000259b4    00000024     mmw_per4ft.oer4ft (.const:ti_sysbios_knl_Semaphore_Object__PARAMS__C)
                  000259d8    00000020     libcli_xwr68xx.aer4f : cli_mmwave.oer4f (.const:$P$T0$1)
                  000259f8    00000020     libhwa_xwr68xx.aer4f : hwa.oer4f (.const:$P$T0$1)
                  00025a18    00000020     mmw_per4ft.oer4ft (.const:ti_sysbios_family_arm_v7r_vim_Hwi_Object__DESC__C)
                  00025a38    00000020     mmw_per4ft.oer4ft (.const:ti_sysbios_gates_GateHwi_Object__DESC__C)
                  00025a58    00000020     mmw_per4ft.oer4ft (.const:ti_sysbios_gates_GateMutex_Object__DESC__C)
                  00025a78    00000020     mmw_per4ft.oer4ft (.const:ti_sysbios_heaps_HeapMem_Object__DESC__C)
                  00025a98    00000020     mmw_per4ft.oer4ft (.const:ti_sysbios_knl_Queue_Object__DESC__C)
                  00025ab8    00000020     mmw_per4ft.oer4ft (.const:ti_sysbios_knl_Semaphore_Object__DESC__C)
                  00025ad8    00000020     mmw_per4ft.oer4ft (.const:ti_sysbios_knl_Task_Object__DESC__C)
                  00025af8    00000020     mmw_per4ft.oer4ft (.const:xdc_runtime_LoggerBuf_Object__DESC__C)
                  00025b18    00000018     mmw_per4ft.oer4ft (.const:ti_sysbios_gates_GateHwi_Object__PARAMS__C)
                  00025b30    00000018     mmw_per4ft.oer4ft (.const:ti_sysbios_gates_GateMutex_Object__PARAMS__C)
                  00025b48    00000018     mmw_per4ft.oer4ft (.const:ti_sysbios_knl_Queue_Object__PARAMS__C)
                  00025b60    00000018     mmw_per4ft.oer4ft (.const:ti_sysbios_knl_Task_hooks__A)
                  00025b78    00000018     mmw_per4ft.oer4ft (.const:xdc_runtime_Startup_sfxnRts__A)
                  00025b90    00000014     libadcbuf_xwr68xx.aer4f : adcbuf_mmwave.oer4f (.const:gADCBufFxnTable)
                  00025ba4    00000010     rtsv7R4_T_le_v3D16_eabi.lib : _scanfi.obj (.const:$O1$$)
                  00025bb4    00000010     libadcbuf_xwr68xx.aer4f : ADCBuf.oer4f (.const:ADCBuf_defaultParams)
                  00025bc4    00000010     libedma_xwr68xx.aer4f : edma.oer4f (.const:EDMA_config$1)
                  00025bd4    00000010     libadcbuf_xwr68xx.aer4f : adcbuf_xwr1xxx.oer4f (.const:gADCBufHwCfg)
                  00025be4    00000010     mmw_per4ft.oer4ft (.const:ti_sysbios_family_arm_v7r_vim_Hwi_intReqEnaSet__A)
                  00025bf4    00000010     mmw_per4ft.oer4ft (.const:ti_sysbios_family_arm_v7r_vim_Hwi_wakeEnaSet__A)
                  00025c04    0000000c     mmw_per4ft.oer4ft (.const:ti_sysbios_knl_Idle_funcList__A)
                  00025c10    00000008     mmw_per4ft.oer4ft (.const:ti_sysbios_knl_Idle_funcList__C)
                  00025c18    00000008     mmw_per4ft.oer4ft (.const:ti_sysbios_knl_Task_hooks__C)
                  00025c20    00000008     mmw_per4ft.oer4ft (.const:xdc_runtime_Startup_firstFxns__A)
                  00025c28    00000008     mmw_per4ft.oer4ft (.const:xdc_runtime_Startup_firstFxns__C)
                  00025c30    00000008     mmw_per4ft.oer4ft (.const:xdc_runtime_Startup_lastFxns__C)
                  00025c38    00000004     mmw_per4ft.oer4ft (.const:ti_sysbios_family_arm_TaskSupport_stackAlignment__C)
                  00025c3c    00000004     mmw_per4ft.oer4ft (.const:ti_sysbios_family_arm_exc_Exception_E_dataAbort__C)
                  00025c40    00000004     mmw_per4ft.oer4ft (.const:ti_sysbios_family_arm_exc_Exception_E_prefetchAbort__C)
                  00025c44    00000004     mmw_per4ft.oer4ft (.const:ti_sysbios_family_arm_exc_Exception_E_swi__C)
                  00025c48    00000004     mmw_per4ft.oer4ft (.const:ti_sysbios_family_arm_exc_Exception_E_undefinedInstruction__C)
                  00025c4c    00000004     mmw_per4ft.oer4ft (.const:ti_sysbios_family_arm_exc_Exception_excHookFuncs__A)
                  00025c50    00000004     mmw_per4ft.oer4ft (.const:ti_sysbios_family_arm_exc_Exception_excHookFuncs__C)
                  00025c54    00000004     mmw_per4ft.oer4ft (.const:ti_sysbios_family_arm_v7a_Pmu_A_invalidCounterId__C)
                  00025c58    00000004     mmw_per4ft.oer4ft (.const:ti_sysbios_family_arm_v7a_Pmu_Module__diagsEnabled__C)
                  00025c5c    00000004     mmw_per4ft.oer4ft (.const:ti_sysbios_family_arm_v7a_Pmu_Module__diagsIncluded__C)
                  00025c60    00000004     mmw_per4ft.oer4ft (.const:ti_sysbios_family_arm_v7a_Pmu_Module__diagsMask__C)
                  00025c64    00000004     mmw_per4ft.oer4ft (.const:ti_sysbios_family_arm_v7r_tms570_Core_E_mismatchedIds__C)
                  00025c68    00000004     mmw_per4ft.oer4ft (.const:ti_sysbios_family_arm_v7r_tms570_Core_id__C)
                  00025c6c    00000004     mmw_per4ft.oer4ft (.const:ti_sysbios_family_arm_v7r_vim_Hwi_A_badChannelId__C)
                  00025c70    00000004     mmw_per4ft.oer4ft (.const:ti_sysbios_family_arm_v7r_vim_Hwi_E_alreadyDefined__C)
                  00025c74    00000004     mmw_per4ft.oer4ft (.const:ti_sysbios_family_arm_v7r_vim_Hwi_E_badIntNum__C)
                  00025c78    00000004     mmw_per4ft.oer4ft (.const:ti_sysbios_family_arm_v7r_vim_Hwi_E_phantomInterrupt__C)
                  00025c7c    00000004     mmw_per4ft.oer4ft (.const:ti_sysbios_family_arm_v7r_vim_Hwi_E_undefined__C)
                  00025c80    00000004     mmw_per4ft.oer4ft (.const:ti_sysbios_family_arm_v7r_vim_Hwi_E_unsupportedMaskingOption__C)
                  00025c84    00000004     mmw_per4ft.oer4ft (.const:ti_sysbios_family_arm_v7r_vim_Hwi_LD_end__C)
                  00025c88    00000004     mmw_per4ft.oer4ft (.const:ti_sysbios_family_arm_v7r_vim_Hwi_LM_begin__C)
                  00025c8c    00000004     mmw_per4ft.oer4ft (.const:ti_sysbios_family_arm_v7r_vim_Hwi_Module__diagsEnabled__C)
                  00025c90    00000004     mmw_per4ft.oer4ft (.const:ti_sysbios_family_arm_v7r_vim_Hwi_Module__diagsIncluded__C)
                  00025c94    00000004     mmw_per4ft.oer4ft (.const:ti_sysbios_family_arm_v7r_vim_Hwi_Module__diagsMask__C)
                  00025c98    00000004     mmw_per4ft.oer4ft (.const:ti_sysbios_family_arm_v7r_vim_Hwi_Module__loggerFxn1__C)
                  00025c9c    00000004     mmw_per4ft.oer4ft (.const:ti_sysbios_family_arm_v7r_vim_Hwi_Module__loggerFxn8__C)
                  00025ca0    00000004     mmw_per4ft.oer4ft (.const:ti_sysbios_family_arm_v7r_vim_Hwi_Module__loggerObj__C)
                  00025ca4    00000004     mmw_per4ft.oer4ft (.const:ti_sysbios_family_arm_v7r_vim_Hwi_NUM_INTERRUPTS__C)
                  00025ca8    00000004     mmw_per4ft.oer4ft (.const:ti_sysbios_family_arm_v7r_vim_Hwi_channelMap__C)
                  00025cac    00000004     mmw_per4ft.oer4ft (.const:ti_sysbios_family_arm_v7r_vim_Hwi_intReqEnaSet__C)
                  00025cb0    00000004     mmw_per4ft.oer4ft (.const:ti_sysbios_family_arm_v7r_vim_Hwi_phantomFunc__C)
                  00025cb4    00000004     mmw_per4ft.oer4ft (.const:ti_sysbios_family_arm_v7r_vim_Hwi_taskDisable__C)
                  00025cb8    00000004     mmw_per4ft.oer4ft (.const:ti_sysbios_family_arm_v7r_vim_Hwi_taskRestoreHwi__C)
                  00025cbc    00000004     mmw_per4ft.oer4ft (.const:ti_sysbios_family_arm_v7r_vim_Hwi_wakeEnaSet__C)
                  00025cc0    00000004     mmw_per4ft.oer4ft (.const:ti_sysbios_gates_GateMutex_A_badContext__C)
                  00025cc4    00000004     mmw_per4ft.oer4ft (.const:ti_sysbios_gates_GateMutex_Instance_State_sem__O)
                  00025cc8    00000004     mmw_per4ft.oer4ft (.const:ti_sysbios_gates_GateMutex_Module__diagsEnabled__C)
                  00025ccc    00000004     mmw_per4ft.oer4ft (.const:ti_sysbios_gates_GateMutex_Module__diagsIncluded__C)
                  00025cd0    00000004     mmw_per4ft.oer4ft (.const:ti_sysbios_gates_GateMutex_Module__diagsMask__C)
                  00025cd4    00000004     mmw_per4ft.oer4ft (.const:ti_sysbios_hal_Hwi_E_stackOverflow__C)
                  00025cd8    00000004     mmw_per4ft.oer4ft (.const:ti_sysbios_heaps_HeapBuf_Instance_State_freeList__O)
                  00025cdc    00000004     mmw_per4ft.oer4ft (.const:ti_sysbios_heaps_HeapBuf_Object__count__C)
                  00025ce0    00000004     mmw_per4ft.oer4ft (.const:ti_sysbios_heaps_HeapBuf_numConstructedHeaps__C)
                  00025ce4    00000004     mmw_per4ft.oer4ft (.const:ti_sysbios_heaps_HeapMem_A_align__C)
                  00025ce8    00000004     mmw_per4ft.oer4ft (.const:ti_sysbios_heaps_HeapMem_A_heapSize__C)
                  00025cec    00000004     mmw_per4ft.oer4ft (.const:ti_sysbios_heaps_HeapMem_A_invalidFree__C)
                  00025cf0    00000004     mmw_per4ft.oer4ft (.const:ti_sysbios_heaps_HeapMem_A_zeroBlock__C)
                  00025cf4    00000004     mmw_per4ft.oer4ft (.const:ti_sysbios_heaps_HeapMem_E_memory__C)
                  00025cf8    00000004     mmw_per4ft.oer4ft (.const:ti_sysbios_heaps_HeapMem_Module__diagsEnabled__C)
                  00025cfc    00000004     mmw_per4ft.oer4ft (.const:ti_sysbios_heaps_HeapMem_Module__diagsIncluded__C)
                  00025d00    00000004     mmw_per4ft.oer4ft (.const:ti_sysbios_heaps_HeapMem_Module__diagsMask__C)
                  00025d04    00000004     mmw_per4ft.oer4ft (.const:ti_sysbios_heaps_HeapMem_Module__gateObj__C)
                  00025d08    00000004     mmw_per4ft.oer4ft (.const:ti_sysbios_heaps_HeapMem_Object__count__C)
                  00025d0c    00000004     mmw_per4ft.oer4ft (.const:ti_sysbios_heaps_HeapMem_reqAlign__C)
                  00025d10    00000004     mmw_per4ft.oer4ft (.const:ti_sysbios_knl_Clock_LM_begin__C)
                  00025d14    00000004     mmw_per4ft.oer4ft (.const:ti_sysbios_knl_Clock_LM_tick__C)
                  00025d18    00000004     mmw_per4ft.oer4ft (.const:ti_sysbios_knl_Clock_LW_delayed__C)
                  00025d1c    00000004     mmw_per4ft.oer4ft (.const:ti_sysbios_knl_Clock_Module_State_clockQ__O)
                  00025d20    00000004     mmw_per4ft.oer4ft (.const:ti_sysbios_knl_Clock_Module__diagsEnabled__C)
                  00025d24    00000004     mmw_per4ft.oer4ft (.const:ti_sysbios_knl_Clock_Module__diagsIncluded__C)
                  00025d28    00000004     mmw_per4ft.oer4ft (.const:ti_sysbios_knl_Clock_Module__diagsMask__C)
                  00025d2c    00000004     mmw_per4ft.oer4ft (.const:ti_sysbios_knl_Clock_Module__loggerFxn1__C)
                  00025d30    00000004     mmw_per4ft.oer4ft (.const:ti_sysbios_knl_Clock_Module__loggerFxn2__C)
                  00025d34    00000004     mmw_per4ft.oer4ft (.const:ti_sysbios_knl_Clock_Module__loggerObj__C)
                  00025d38    00000004     mmw_per4ft.oer4ft (.const:ti_sysbios_knl_Semaphore_A_badContext__C)
                  00025d3c    00000004     mmw_per4ft.oer4ft (.const:ti_sysbios_knl_Semaphore_A_noEvents__C)
                  00025d40    00000004     mmw_per4ft.oer4ft (.const:ti_sysbios_knl_Semaphore_A_overflow__C)
                  00025d44    00000004     mmw_per4ft.oer4ft (.const:ti_sysbios_knl_Semaphore_A_pendTaskDisabled__C)
                  00025d48    00000004     mmw_per4ft.oer4ft (.const:ti_sysbios_knl_Semaphore_Instance_State_pendQ__O)
                  00025d4c    00000004     mmw_per4ft.oer4ft (.const:ti_sysbios_knl_Semaphore_LM_pend__C)
                  00025d50    00000004     mmw_per4ft.oer4ft (.const:ti_sysbios_knl_Semaphore_LM_post__C)
                  00025d54    00000004     mmw_per4ft.oer4ft (.const:ti_sysbios_knl_Semaphore_Module__diagsEnabled__C)
                  00025d58    00000004     mmw_per4ft.oer4ft (.const:ti_sysbios_knl_Semaphore_Module__diagsIncluded__C)
                  00025d5c    00000004     mmw_per4ft.oer4ft (.const:ti_sysbios_knl_Semaphore_Module__diagsMask__C)
                  00025d60    00000004     mmw_per4ft.oer4ft (.const:ti_sysbios_knl_Semaphore_Module__loggerFxn2__C)
                  00025d64    00000004     mmw_per4ft.oer4ft (.const:ti_sysbios_knl_Semaphore_Module__loggerFxn4__C)
                  00025d68    00000004     mmw_per4ft.oer4ft (.const:ti_sysbios_knl_Semaphore_Module__loggerObj__C)
                  00025d6c    00000004     mmw_per4ft.oer4ft (.const:ti_sysbios_knl_Task_A_badPriority__C)
                  00025d70    00000004     mmw_per4ft.oer4ft (.const:ti_sysbios_knl_Task_A_badTaskState__C)
                  00025d74    00000004     mmw_per4ft.oer4ft (.const:ti_sysbios_knl_Task_A_badThreadType__C)
                  00025d78    00000004     mmw_per4ft.oer4ft (.const:ti_sysbios_knl_Task_A_badTimeout__C)
                  00025d7c    00000004     mmw_per4ft.oer4ft (.const:ti_sysbios_knl_Task_A_noPendElem__C)
                  00025d80    00000004     mmw_per4ft.oer4ft (.const:ti_sysbios_knl_Task_A_sleepTaskDisabled__C)
                  00025d84    00000004     mmw_per4ft.oer4ft (.const:ti_sysbios_knl_Task_E_spOutOfBounds__C)
                  00025d88    00000004     mmw_per4ft.oer4ft (.const:ti_sysbios_knl_Task_E_stackOverflow__C)
                  00025d8c    00000004     mmw_per4ft.oer4ft (.const:ti_sysbios_knl_Task_LD_block__C)
                  00025d90    00000004     mmw_per4ft.oer4ft (.const:ti_sysbios_knl_Task_LD_exit__C)
                  00025d94    00000004     mmw_per4ft.oer4ft (.const:ti_sysbios_knl_Task_LD_ready__C)
                  00025d98    00000004     mmw_per4ft.oer4ft (.const:ti_sysbios_knl_Task_LM_sleep__C)
                  00025d9c    00000004     mmw_per4ft.oer4ft (.const:ti_sysbios_knl_Task_LM_switch__C)
                  00025da0    00000004     mmw_per4ft.oer4ft (.const:ti_sysbios_knl_Task_Module_State_inactiveQ__O)
                  00025da4    00000004     mmw_per4ft.oer4ft (.const:ti_sysbios_knl_Task_Module__diagsEnabled__C)
                  00025da8    00000004     mmw_per4ft.oer4ft (.const:ti_sysbios_knl_Task_Module__diagsIncluded__C)
                  00025dac    00000004     mmw_per4ft.oer4ft (.const:ti_sysbios_knl_Task_Module__diagsMask__C)
                  00025db0    00000004     mmw_per4ft.oer4ft (.const:ti_sysbios_knl_Task_Module__loggerFxn2__C)
                  00025db4    00000004     mmw_per4ft.oer4ft (.const:ti_sysbios_knl_Task_Module__loggerFxn4__C)
                  00025db8    00000004     mmw_per4ft.oer4ft (.const:ti_sysbios_knl_Task_Module__loggerObj__C)
                  00025dbc    00000004     mmw_per4ft.oer4ft (.const:ti_sysbios_knl_Task_Object__count__C)
                  00025dc0    00000004     mmw_per4ft.oer4ft (.const:ti_sysbios_knl_Task_Object__heap__C)
                  00025dc4    00000004     mmw_per4ft.oer4ft (.const:ti_sysbios_knl_Task_allBlockedFunc__C)
                  00025dc8    00000004     mmw_per4ft.oer4ft (.const:ti_sysbios_knl_Task_defaultStackHeap__C)
                  00025dcc    00000004     mmw_per4ft.oer4ft (.const:ti_sysbios_knl_Task_defaultStackSize__C)
                  00025dd0    00000004     mmw_per4ft.oer4ft (.const:ti_sysbios_knl_Task_numConstructedTasks__C)
                  00025dd4    00000004     mmw_per4ft.oer4ft (.const:ti_sysbios_timers_rti_Timer_E_cannotSupport__C)
                  00025dd8    00000004     mmw_per4ft.oer4ft (.const:ti_sysbios_timers_rti_Timer_Module__diagsEnabled__C)
                  00025ddc    00000004     mmw_per4ft.oer4ft (.const:ti_sysbios_timers_rti_Timer_Module__diagsIncluded__C)
                  00025de0    00000004     mmw_per4ft.oer4ft (.const:ti_sysbios_timers_rti_Timer_Module__diagsMask__C)
                  00025de4    00000004     mmw_per4ft.oer4ft (.const:ti_sysbios_timers_rti_Timer_numTimerDevices__C)
                  00025de8    00000004     mmw_per4ft.oer4ft (.const:ti_sysbios_timers_rti_Timer_startupNeeded__C)
                  00025dec    00000004     mmw_per4ft.oer4ft (.const:ti_sysbios_utils_Load_LS_cpuLoad__C)
                  00025df0    00000004     mmw_per4ft.oer4ft (.const:ti_sysbios_utils_Load_LS_taskLoad__C)
                  00025df4    00000004     mmw_per4ft.oer4ft (.const:ti_sysbios_utils_Load_Module_State_taskList__O)
                  00025df8    00000004     mmw_per4ft.oer4ft (.const:ti_sysbios_utils_Load_Module__diagsEnabled__C)
                  00025dfc    00000004     mmw_per4ft.oer4ft (.const:ti_sysbios_utils_Load_Module__diagsIncluded__C)
                  00025e00    00000004     mmw_per4ft.oer4ft (.const:ti_sysbios_utils_Load_Module__diagsMask__C)
                  00025e04    00000004     mmw_per4ft.oer4ft (.const:ti_sysbios_utils_Load_Module__loggerFxn1__C)
                  00025e08    00000004     mmw_per4ft.oer4ft (.const:ti_sysbios_utils_Load_Module__loggerFxn4__C)
                  00025e0c    00000004     mmw_per4ft.oer4ft (.const:ti_sysbios_utils_Load_Module__loggerObj__C)
                  00025e10    00000004     mmw_per4ft.oer4ft (.const:ti_sysbios_utils_Load_postUpdate__C)
                  00025e14    00000004     mmw_per4ft.oer4ft (.const:ti_sysbios_utils_Load_windowInMs__C)
                  00025e18    00000004     mmw_per4ft.oer4ft (.const:xdc_runtime_Assert_E_assertFailed__C)
                  00025e1c    00000004     mmw_per4ft.oer4ft (.const:xdc_runtime_Core_A_initializedParams__C)
                  00025e20    00000004     mmw_per4ft.oer4ft (.const:xdc_runtime_Core_Module__diagsEnabled__C)
                  00025e24    00000004     mmw_per4ft.oer4ft (.const:xdc_runtime_Core_Module__diagsIncluded__C)
                  00025e28    00000004     mmw_per4ft.oer4ft (.const:xdc_runtime_Core_Module__diagsMask__C)
                  00025e2c    00000004     mmw_per4ft.oer4ft (.const:xdc_runtime_Error_E_memory__C)
                  00025e30    00000004     mmw_per4ft.oer4ft (.const:xdc_runtime_Error_Module__diagsEnabled__C)
                  00025e34    00000004     mmw_per4ft.oer4ft (.const:xdc_runtime_Error_Module__diagsIncluded__C)
                  00025e38    00000004     mmw_per4ft.oer4ft (.const:xdc_runtime_Error_Module__diagsMask__C)
                  00025e3c    00000004     mmw_per4ft.oer4ft (.const:xdc_runtime_Error_Module__loggerFxn8__C)
                  00025e40    00000004     mmw_per4ft.oer4ft (.const:xdc_runtime_Error_Module__loggerObj__C)
                  00025e44    00000004     mmw_per4ft.oer4ft (.const:xdc_runtime_Error_policyFxn__C)
                  00025e48    00000004     mmw_per4ft.oer4ft (.const:xdc_runtime_Error_policy__C)
                  00025e4c    00000004     mmw_per4ft.oer4ft (.const:xdc_runtime_Error_raiseHook__C)
                  00025e50    00000004     mmw_per4ft.oer4ft (.const:xdc_runtime_IFilterLogger_Interface__BASE__C)
                  00025e54    00000004     mmw_per4ft.oer4ft (.const:xdc_runtime_IGateProvider_Interface__BASE__C)
                  00025e58    00000004     mmw_per4ft.oer4ft (.const:xdc_runtime_IHeap_Interface__BASE__C)
                  00025e5c    00000004     mmw_per4ft.oer4ft (.const:xdc_runtime_ILogger_Interface__BASE__C)
                  00025e60    00000004     mmw_per4ft.oer4ft (.const:xdc_runtime_IModule_Interface__BASE__C)
                  00025e64    00000004     mmw_per4ft.oer4ft (.const:xdc_runtime_Log_L_error__C)
                  00025e68    00000004     mmw_per4ft.oer4ft (.const:xdc_runtime_LoggerBuf_E_badLevel__C)
                  00025e6c    00000004     mmw_per4ft.oer4ft (.const:xdc_runtime_LoggerBuf_Module__gateObj__C)
                  00025e70    00000004     mmw_per4ft.oer4ft (.const:xdc_runtime_LoggerBuf_Object__count__C)
                  00025e74    00000004     mmw_per4ft.oer4ft (.const:xdc_runtime_LoggerBuf_statusLogger__C)
                  00025e78    00000004     mmw_per4ft.oer4ft (.const:xdc_runtime_Main_Module__diagsEnabled__C)
                  00025e7c    00000004     mmw_per4ft.oer4ft (.const:xdc_runtime_Main_Module__diagsIncluded__C)
                  00025e80    00000004     mmw_per4ft.oer4ft (.const:xdc_runtime_Main_Module__diagsMask__C)
                  00025e84    00000004     mmw_per4ft.oer4ft (.const:xdc_runtime_Main_Module__loggerFxn1__C)
                  00025e88    00000004     mmw_per4ft.oer4ft (.const:xdc_runtime_Main_Module__loggerFxn2__C)
                  00025e8c    00000004     mmw_per4ft.oer4ft (.const:xdc_runtime_Main_Module__loggerFxn4__C)
                  00025e90    00000004     mmw_per4ft.oer4ft (.const:xdc_runtime_Main_Module__loggerObj__C)
                  00025e94    00000004     mmw_per4ft.oer4ft (.const:xdc_runtime_Memory_defaultHeapInstance__C)
                  00025e98    00000004     mmw_per4ft.oer4ft (.const:xdc_runtime_Startup_execImpl__C)
                  00025e9c    00000004     mmw_per4ft.oer4ft (.const:xdc_runtime_Startup_maxPasses__C)
                  00025ea0    00000004     mmw_per4ft.oer4ft (.const:xdc_runtime_Startup_sfxnRts__C)
                  00025ea4    00000004     mmw_per4ft.oer4ft (.const:xdc_runtime_Startup_sfxnTab__C)
                  00025ea8    00000004     mmw_per4ft.oer4ft (.const:xdc_runtime_System_Module__gateObj__C)
                  00025eac    00000004     mmw_per4ft.oer4ft (.const:xdc_runtime_System_abortFxn__C)
                  00025eb0    00000004     mmw_per4ft.oer4ft (.const:xdc_runtime_System_exitFxn__C)
                  00025eb4    00000004     mmw_per4ft.oer4ft (.const:xdc_runtime_System_extendFxn__C)
                  00025eb8    00000004     mmw_per4ft.oer4ft (.const:xdc_runtime_System_maxAtexitHandlers__C)
                  00025ebc    00000004     mmw_per4ft.oer4ft (.const:xdc_runtime_Text_charTab__C)
                  00025ec0    00000004     mmw_per4ft.oer4ft (.const:xdc_runtime_Text_nameEmpty__C)
                  00025ec4    00000004     mmw_per4ft.oer4ft (.const:xdc_runtime_Text_nameStatic__C)
                  00025ec8    00000004     mmw_per4ft.oer4ft (.const:xdc_runtime_Text_nameUnknown__C)
                  00025ecc    00000004     mmw_per4ft.oer4ft (.const:xdc_runtime_Text_visitRopeFxn__C)
                  00025ed0    00000002     mmw_per4ft.oer4ft (.const:ti_sysbios_family_arm_v7r_tms570_Core_Module__id__C)
                  00025ed2    00000002     mmw_per4ft.oer4ft (.const:ti_sysbios_family_arm_v7r_vim_Hwi_Module__id__C)
                  00025ed4    00000002     mmw_per4ft.oer4ft (.const:ti_sysbios_family_arm_v7r_vim_Hwi_Module__loggerDefined__C)
                  00025ed6    00000002     mmw_per4ft.oer4ft (.const:ti_sysbios_gates_GateMutex_Module__id__C)
                  00025ed8    00000002     mmw_per4ft.oer4ft (.const:ti_sysbios_hal_Hwi_Module__id__C)
                  00025eda    00000002     mmw_per4ft.oer4ft (.const:ti_sysbios_heaps_HeapMem_Module__id__C)
                  00025edc    00000002     mmw_per4ft.oer4ft (.const:ti_sysbios_knl_Clock_Module__id__C)
                  00025ede    00000002     mmw_per4ft.oer4ft (.const:ti_sysbios_knl_Clock_Module__loggerDefined__C)
                  00025ee0    00000002     mmw_per4ft.oer4ft (.const:ti_sysbios_knl_Semaphore_Module__id__C)
                  00025ee2    00000002     mmw_per4ft.oer4ft (.const:ti_sysbios_knl_Semaphore_Module__loggerDefined__C)
                  00025ee4    00000002     mmw_per4ft.oer4ft (.const:ti_sysbios_knl_Task_Module__id__C)
                  00025ee6    00000002     mmw_per4ft.oer4ft (.const:ti_sysbios_knl_Task_Module__loggerDefined__C)
                  00025ee8    00000002     mmw_per4ft.oer4ft (.const:ti_sysbios_timers_rti_Timer_Module__id__C)
                  00025eea    00000002     mmw_per4ft.oer4ft (.const:ti_sysbios_timers_rti_Timer_continueOnSuspend__C)
                  00025eec    00000002     mmw_per4ft.oer4ft (.const:ti_sysbios_utils_Load_Module__id__C)
                  00025eee    00000002     mmw_per4ft.oer4ft (.const:ti_sysbios_utils_Load_Module__loggerDefined__C)
                  00025ef0    00000002     mmw_per4ft.oer4ft (.const:ti_sysbios_utils_Load_autoAddTasks__C)
                  00025ef2    00000002     mmw_per4ft.oer4ft (.const:ti_sysbios_utils_Load_updateInIdle__C)
                  00025ef4    00000002     mmw_per4ft.oer4ft (.const:xdc_runtime_Core_Module__id__C)
                  00025ef6    00000002     mmw_per4ft.oer4ft (.const:xdc_runtime_Error_Module__loggerDefined__C)
                  00025ef8    00000002     mmw_per4ft.oer4ft (.const:xdc_runtime_Error_maxDepth__C)
                  00025efa    00000002     mmw_per4ft.oer4ft (.const:xdc_runtime_LoggerBuf_Module__id__C)
                  00025efc    00000002     mmw_per4ft.oer4ft (.const:xdc_runtime_LoggerBuf_filterByLevel__C)
                  00025efe    00000002     mmw_per4ft.oer4ft (.const:xdc_runtime_Main_Module__id__C)
                  00025f00    00000002     mmw_per4ft.oer4ft (.const:xdc_runtime_Main_Module__loggerDefined__C)
                  00025f02    00000002     mmw_per4ft.oer4ft (.const:xdc_runtime_Memory_Module__id__C)
                  00025f04    00000002     mmw_per4ft.oer4ft (.const:xdc_runtime_Text_charCnt__C)
                  00025f06    00000002     mmw_per4ft.oer4ft (.const:xdc_runtime_Text_isLoaded__C)
                  00025f08    00000002     mmw_per4ft.oer4ft (.const:xdc_runtime_Text_registryModsLastId__C)
                  00025f0a    00000002     mmw_per4ft.oer4ft (.const:xdc_runtime_Text_unnamedModsLastId__C)

.cinit     0    00025f10    00000578     
                  00025f10    00000510     (.cinit..data.load) [load image, compression = lzss]
                  00026420    0000000c     (__TI_handler_table)
                  0002642c    00000004     --HOLE-- [fill = 0]
                  00026430    00000008     (.cinit..DPC_objDetTcmbHeap.load) [load image, compression = zero_init]
                  00026438    00000008     (.cinit..bss.load) [load image, compression = zero_init]
                  00026440    00000008     (.cinit..l3ram.load) [load image, compression = zero_init]
                  00026448    00000008     (.cinit..myFiqStack.load) [load image, compression = zero_init]
                  00026450    00000008     (.cinit.systemHeap.load) [load image, compression = zero_init]
                  00026458    00000030     (__TI_cinit_table)

systemHeap 
*          0    08000000    00010000     UNINITIALIZED
                  08000000    00010000     mmw_per4ft.oer4ft (systemHeap)

.DPC_objDetTcmbHeap 
*          0    08010000    0000c400     UNINITIALIZED
                  08010000    0000c400     main.oer4f (.DPC_objDetTcmbHeap)

.l3ram     0    51000000    000c0000     UNINITIALIZED
                  51000000    000c0000     main.oer4f (.l3ram)

.bss       0    0801c400    0000381c     UNINITIALIZED
                  0801c400    00001900     (.common:xdc_runtime_LoggerBuf_Instance_State_0_entryArr__A)
                  0801dd00    00001000     (.common:ti_sysbios_family_arm_exc_Exception_Module_State_0_excStack_0__A)
                  0801ed00    000004e8     libedma_xwr68xx.aer4f : edma.oer4f (.bss:$O1$$)
                  0801f1e8    00000320     mmw_per4ft.oer4ft (.bss:taskStackSection)
                  0801f508    000001a8     (.common:gCLI)
                  0801f6b0    00000194     (.common:gGPIOMCB)
                  0801f844    00000120     rtsv7R4_T_le_v3D16_eabi.lib : trgmsg.obj (.bss:_CIOBUF_)
                  0801f964    00000100     (.common:gMMWave_MCB)
                  0801fa64    000000a0     (.common:__TI_tmpnams)
                  0801fb04    00000004     (.common:gObjDetObj)
                  0801fb08    00000090     (.common:gHSIHeaderMCB)
                  0801fb98    00000070     (.common:gEsmMCB)
                  0801fc08    00000008     (.common:gMMWave_DualcoreMCB)
                  0801fc10    00000008     (.common:parmbuf)
                  0801fc18    00000004     (.common:ti_sysbios_knl_Task_Instance_State_0_hookEnv__A)

.data      0    0801fc20    00001b60     UNINITIALIZED
                  0801fc20    00000820     main.oer4f (.data:$O1$$)
                  08020440    000003e8     libmmwavelink_xwr68xx.aer4f : rl_driver.oer4f (.data:$O1$$)
                  08020828    00000368     libcli_xwr68xx.aer4f : cli_mmwave.oer4f (.data:$O1$$)
                  08020b90    00000200     mmw_per4ft.oer4ft (.data:ti_sysbios_family_arm_v7r_vim_Hwi_Module_State_0_dispatchTable__A)
                  08020d90    000000f0     rtsv7R4_T_le_v3D16_eabi.lib : defs.obj (.data:_ftable)
                  08020e80    00000098     mmw_per4ft.oer4ft (.data:ti_sysbios_utils_Load_Module__state__V)
                  08020f18    00000080     mmw_per4ft.oer4ft (.data:ti_sysbios_knl_Task_Module_State_0_readyQ__A)
                  08020f98    00000078     rtsv7R4_T_le_v3D16_eabi.lib : write.obj (.data:_device)
                  08021010    00000078     libcbuff_xwr68xx.aer4f : cbuff_xwr68xx.oer4f (.data:gCBUFFHwAttribute)
                  08021088    0000005c     mmw_per4ft.oer4ft (.data:ti_sysbios_knl_Task_Object__table__V)
                  080210e4    00000058     libuart_xwr68xx.aer4f : uart_xwr68xx.oer4f (.data:gUartSciHwCfg)
                  0802113c    00000050     rtsv7R4_T_le_v3D16_eabi.lib : write.obj (.data:_stream)
                  0802118c    00000050     libmailbox_xwr68xx.aer4f : mailbox.oer4f (.data:gMailboxMCB)
                  080211dc    00000048     mmw_per4ft.oer4ft (.data:ti_sysbios_knl_Task_Module__state__V)
                  08021224    00000040     libsoc_xwr68xx.aer4f : soc_xwr68xx.oer4f (.data:SOC_TranslateAddr_LUT)
                  08021264    00000040     mmw_per4ft.oer4ft (.data:ti_sysbios_gates_GateMutex_Object__table__V)
                  080212a4    0000003c     mmw_per4ft.oer4ft (.data:ti_sysbios_timers_rti_Timer_Object__table__V)
                  080212e0    00000038     libcbuff_xwr68xx.aer4f : cbuff_xwr68xx.oer4f (.data:gCBUFFInterfaceFxn)
                  08021318    00000034     mmw_per4ft.oer4ft (.data:ti_sysbios_family_arm_v7r_vim_Hwi_Module__state__V)
                  0802134c    00000030     libhwa_xwr68xx.aer4f : hwa_xwr68xx.oer4f (.data:gHWAHwCfg)
                  0802137c    0000002c     mmw_per4ft.oer4ft (.data:ti_sysbios_family_arm_v7r_vim_Hwi_Object__table__V)
                  080213a8    0000002c     mmw_per4ft.oer4ft (.data:ti_sysbios_knl_Clock_Module__state__V)
                  080213d4    00000028     libuart_xwr68xx.aer4f : uartsci.oer4f (.data:gUartSciFxnTable)
                  080213fc    00000024                           : uart_xwr68xx.oer4f (.data:UART_config)
                  08021420    00000024     objectdetection.oer4f (.data:gDPC_ObjectDetectionCfg)
                  08021444    00000024     mmw_per4ft.oer4ft (.data:ti_sysbios_BIOS_Module__state__V)
                  08021468    00000024     mmw_per4ft.oer4ft (.data:xdc_runtime_LoggerBuf_Object__table__V)
                  0802148c    00000004     libhwa_xwr68xx.aer4f : hwa_xwr68xx.oer4f (.data:gHWADriverPtr)
                  08021490    00000020     libsoc_xwr68xx.aer4f : soc_xwr68xx_mss.oer4f (.data:gSOCHwAttrib)
                  080214b0    00000020     mmw_per4ft.oer4ft (.data:ti_sysbios_knl_Clock_Object__table__V)
                  080214d0    00000020     mmw_per4ft.oer4ft (.data:xdc_runtime_Error_IgnoreBlock)
                  080214f0    00000020     mmw_per4ft.oer4ft (.data:xdc_runtime_System_Module_State_0_atexitHandlers__A)
                  08021510    0000001c     antenna_geometry.oer4f (.data:gAntDef_IWR6843ODS)
                  0802152c    0000001c     mmw_per4ft.oer4ft (.data:ti_sysbios_utils_Load_Module_State_0_taskEnv__A)
                  08021548    00000018     libadcbuf_xwr68xx.aer4f : adcbuf_xwr1xxx.oer4f (.data:ADCBuf_config)
                  08021560    00000018     libcbuff_xwr68xx.aer4f : cbuff_xwr68xx.oer4f (.data:gInterleavedTransferFxn)
                  08021578    00000018     libmailbox_xwr68xx.aer4f : mailbox_xwr68xx.oer4f (.data:gMailboxMssBssHwCfg)
                  08021590    00000018                              : mailbox_xwr68xx.oer4f (.data:gMailboxMssDssHwCfg)
                  080215a8    00000018     libcbuff_xwr68xx.aer4f : cbuff_xwr68xx.oer4f (.data:gMultipleChirpNonInterleavedTransferFxn)
                  080215c0    00000018                            : cbuff_xwr68xx.oer4f (.data:gNonInterleavedTransferFxn)
                  080215d8    00000018     mmw_per4ft.oer4ft (.data:ti_sysbios_heaps_HeapMem_Object__table__V)
                  080215f0    00000018     mmw_per4ft.oer4ft (.data:ti_sysbios_timers_rti_Timer_Module_State_0_device__A)
                  08021608    00000014     libdpm_xwr68xx.aer4f : dpm_mailbox.oer4f (.data:gDPMRemoteTable)
                  0802161c    00000014     mmw_per4ft.oer4ft (.data:ti_sysbios_family_arm_exc_Exception_Module__state__V)
                  08021630    00000010     libhwa_xwr68xx.aer4f : hwa.oer4f (.data:gHwaEDMAChanMapping)
                  08021640    00000010     rtsv7R4_T_le_v3D16_eabi.lib : defs.obj (.data)
                  08021650    00000010     mmw_per4ft.oer4ft (.data:ti_sysbios_timers_rti_Timer_Module_State_0_intFreqs__A)
                  08021660    00000010     mmw_per4ft.oer4ft (.data:ti_sysbios_timers_rti_Timer_Module__state__V)
                  08021670    0000000c     rtsv7R4_T_le_v3D16_eabi.lib : exit.obj (.data:$O1$$)
                  0802167c    0000000c     libesm_xwr68xx.aer4f : esm_xwr1xxx.oer4f (.data:gESMHwCfgAttrs)
                  08021688    0000000c     mmw_per4ft.oer4ft (.data:ti_sysbios_family_arm_v7a_Pmu_Module__state__V)
                  08021694    0000000c     mmw_per4ft.oer4ft (.data:ti_sysbios_knl_Task_Module__root__V)
                  080216a0    00000008     rtsv7R4_T_le_v3D16_eabi.lib : _lock.obj (.data:$O1$$)
                  080216a8    00000008     mmwdemo_rfparser.oer4f (.data:MmwDemo_RFParserHwCfg)
                  080216b0    00000008     libdpm_xwr68xx.aer4f : dpm_xwr68xx.oer4f (.data:gDPMHwAttrib)
                  080216b8    00000008     libgpio_xwr68xx.aer4f : gpio_xwr68xx.oer4f (.data:gGPIOHwAtrrib)
                  080216c0    00000008     mmw_per4ft.oer4ft (.data:ti_sysbios_family_arm_v7r_vim_Hwi_Module__root__V)
                  080216c8    00000008     mmw_per4ft.oer4ft (.data:ti_sysbios_gates_GateHwi_Module__root__V)
                  080216d0    00000008     mmw_per4ft.oer4ft (.data:ti_sysbios_gates_GateMutex_Module__root__V)
                  080216d8    00000008     mmw_per4ft.oer4ft (.data:ti_sysbios_hal_Hwi_Object__table__V)
                  080216e0    00000008     mmw_per4ft.oer4ft (.data:ti_sysbios_heaps_HeapMem_Module__root__V)
                  080216e8    00000008     mmw_per4ft.oer4ft (.data:ti_sysbios_knl_Queue_Module__root__V)
                  080216f0    00000008     mmw_per4ft.oer4ft (.data:ti_sysbios_knl_Semaphore_Module__root__V)
                  080216f8    00000008     mmw_per4ft.oer4ft (.data:ti_sysbios_timers_rti_Timer_Module_State_0_handles__A)
                  08021700    00000008     mmw_per4ft.oer4ft (.data:xdc_runtime_LoggerBuf_Module__root__V)
                  08021708    00000008     mmw_per4ft.oer4ft (.data:xdc_runtime_Registry_Module__state__V)
                  08021710    00000008     mmw_per4ft.oer4ft (.data:xdc_runtime_Startup_Module__state__V)
                  08021718    00000008     mmw_per4ft.oer4ft (.data:xdc_runtime_System_Module__state__V)
                  08021720    00000006     mmw_per4ft.oer4ft (.data:xdc_runtime_LoggerBuf_Module__state__V)
                  08021726    00000002     mmw_per4ft.oer4ft (.data:ti_sysbios_family_arm_exc_Exception_Module_State_0_excActive__A)
                  08021728    00000004     libadcbuf_xwr68xx.aer4f : ADCBuf.oer4f (.data)
                  0802172c    00000004     libcrc_xwr68xx.aer4f : crc_xwr68xx.oer4f (.data)
                  08021730    00000004     libdpm_xwr68xx.aer4f : dpm_mailbox.oer4f (.data)
                  08021734    00000004     libedma_xwr68xx.aer4f : edma_low_level.oer4f (.data)
                  08021738    00000004     libpinmux_xwr68xx.aer4f : pinmux_xwr1xxx.oer4f (.data)
                  0802173c    00000004     libuart_xwr68xx.aer4f : UART.oer4f (.data)
                  08021740    00000004     rtsv7R4_T_le_v3D16_eabi.lib : errno.obj (.data)
                  08021744    00000004                                 : fopen.obj (.data)
                  08021748    00000004                                 : open.obj (.data)
                  0802174c    00000004                                 : stkdepth_vars.obj (.data)
                  08021750    00000004                                 : strtok.obj (.data)
                  08021754    00000004     mmw_per4ft.oer4ft (.data:ti_sysbios_family_arm_a15_TimestampProvider_Module__state__V)
                  08021758    00000004     mmw_per4ft.oer4ft (.data:ti_sysbios_family_arm_exc_Exception_Module_State_0_excContext__A)
                  0802175c    00000004     mmw_per4ft.oer4ft (.data:ti_sysbios_family_arm_exc_Exception_Module_State_0_excStackBuffers__A)
                  08021760    00000004     mmw_per4ft.oer4ft (.data:ti_sysbios_family_arm_exc_Exception_Module_State_0_excStack__A)
                  08021764    00000004     mmw_per4ft.oer4ft (.data:ti_sysbios_gates_GateHwi_Object__table__V)
                  08021768    00000004     mmw_per4ft.oer4ft (.data:ti_sysbios_heaps_HeapBuf_Module__state__V)
                  0802176c    00000004     mmw_per4ft.oer4ft (.data:ti_sysbios_knl_Task_Module_State_0_idleTask__A)
                  08021770    00000004     mmw_per4ft.oer4ft (.data:ti_sysbios_utils_Load_Module_State_0_runningTask__A)
                  08021774    00000004     mmw_per4ft.oer4ft (.data:ti_sysbios_utils_Load_Module_State_0_taskStartTime__A)
                  08021778    00000004     mmw_per4ft.oer4ft (.data:xdc_runtime_Memory_Module__state__V)
                  0802177c    00000002     mmw_per4ft.oer4ft (.data:xdc_runtime_Error_Module__state__V)
                  0802177e    00000002     mmw_per4ft.oer4ft (.data:xdc_runtime_Main_Module__root__V)

.myFiqStack 
*          0    08021780    00000800     UNINITIALIZED
                  08021780    00000800     mmw_per4ft.oer4ft (.myFiqStack)

.stack     0    08021f80    000004b0     UNINITIALIZED
                  08021f80    000004b0     --HOLE--

xdc.meta   0    00000000    000000f2     COPY SECTION
                  00000000    000000f2     mmw_per4ft.oer4ft (xdc.meta)

xdc.noload 
*          0    00000000    00000000     COPY SECTION

MODULE SUMMARY

       Module                          code     ro data   rw data
       ------                          ----     -------   -------
    .\board\
       antenna_geometry.oer4f          0        0         28     
    +--+-------------------------------+--------+---------+---------+
       Total:                          0        0         28     
                                                                 
    .\datapath\dpc\objectdetection\objdethwa\
       objectdetection.oer4f           7506     0         40     
    +--+-------------------------------+--------+---------+---------+
       Total:                          7506     0         40     
                                                                 
    .\mss\
       main.oer4f                      11175    0         838688 
       mmw_cli.oer4f                   6422     494       0      
       mmw_lvds_stream.oer4f           3197     0         0      
       data_path.oer4f                 1266     0         0      
    +--+-------------------------------+--------+---------+---------+
       Total:                          22060    494       838688 
                                                                 
    .\utils\
       mmwdemo_rfparser.oer4f          1452     0         8      
       mmwdemo_adcconfig.oer4f         216      0         0      
       mmwdemo_monitor.oer4f           130      0         0      
    +--+-------------------------------+--------+---------+---------+
       Total:                          1798     0         8      
                                                                 
    C:\Users\a0272655\workspace_v8\ods_point_cloud_68xx_hwa\Debug\configPkg\package\cfg\
       mmw_per4ft.oer4ft               1872     1913      80572  
    +--+-------------------------------+--------+---------+---------+
       Total:                          1872     1913      80572  
                                                                 
    C:/ti/mmwave_sdk_03_05_00_04/packages/ti/control/dpm/lib/libdpm_xwr68xx.aer4f
       dpm_msg.oer4f                   1134     40        0      
       dpm_core.oer4f                  1076     0         0      
       dpm_mailbox.oer4f               362      0         24     
       dpm_pipe.oer4f                  312      0         0      
       dpm_listlib.oer4f               86       0         0      
       dpm_xwr68xx.oer4f               0        0         8      
    +--+-------------------------------+--------+---------+---------+
       Total:                          2970     40        32     
                                                                 
    C:/ti/mmwave_sdk_03_05_00_04/packages/ti/control/mmwave/lib/libmmwave_xwr68xx.aer4f
       mmwave_link.oer4f               2612     0         0      
       mmwave_dualcore.oer4f           2108     0         8      
       mmwave_fullcfg.oer4f            2002     0         0      
       mmwave.oer4f                    1016     0         256    
       mmwave_osal.oer4f               200      0         0      
       mmwave_listlib.oer4f            142      0         0      
    +--+-------------------------------+--------+---------+---------+
       Total:                          8080     0         264    
                                                                 
    C:/ti/mmwave_sdk_03_05_00_04/packages/ti/control/mmwavelink/lib/libmmwavelink_xwr68xx.aer4f
       rl_driver.oer4f                 4458     136       1000   
       rl_sensor.oer4f                 2030     696       0      
       rl_device.oer4f                 460      0         0      
       rl_controller.oer4f             152      0         0      
       rl_monitoring.oer4f             114      0         0      
    +--+-------------------------------+--------+---------+---------+
       Total:                          7214     832       1000   
                                                                 
    C:/ti/mmwave_sdk_03_05_00_04/packages/ti/datapath/dpc/dpu/aoa2dproc/lib/libaoa2dproc_hwa_xwr68xx.aer4f
       aoa2dprochwa.oer4f              8714     0         0      
    +--+-------------------------------+--------+---------+---------+
       Total:                          8714     0         0      
                                                                 
    C:/ti/mmwave_sdk_03_05_00_04/packages/ti/datapath/dpc/dpu/cfarcaproc/lib/libcfarcaproc_hwa_xwr68xx.aer4f
       cfarcaprochwa.oer4f             2302     0         0      
    +--+-------------------------------+--------+---------+---------+
       Total:                          2302     0         0      
                                                                 
    C:/ti/mmwave_sdk_03_05_00_04/packages/ti/datapath/dpc/dpu/dopplerproc/lib/libdopplerproc_hwa_xwr68xx.aer4f
       dopplerprochwa.oer4f            2132     0         0      
    +--+-------------------------------+--------+---------+---------+
       Total:                          2132     0         0      
                                                                 
    C:/ti/mmwave_sdk_03_05_00_04/packages/ti/datapath/dpc/dpu/staticclutterproc/lib/libstaticclutterproc_xwr68xx.aer4f
       staticclutterproc.oer4f         948      0         0      
    +--+-------------------------------+--------+---------+---------+
       Total:                          948      0         0      
                                                                 
    C:/ti/mmwave_sdk_03_05_00_04/packages/ti/datapath/dpedma/lib/libdpedma_hwa_xwr68xx.aer4f
       dpedma.oer4f                    610      0         0      
       dpedmahwa.oer4f                 436      0         0      
    +--+-------------------------------+--------+---------+---------+
       Total:                          1046     0         0      
                                                                 
    C:/ti/mmwave_sdk_03_05_00_04/packages/ti/datapath/dpu/rangeproc/lib/librangeproc_hwa_xwr68xx.aer4f
       rangeprochwa.oer4f              4982     0         0      
    +--+-------------------------------+--------+---------+---------+
       Total:                          4982     0         0      
                                                                 
    C:/ti/mmwave_sdk_03_05_00_04/packages/ti/drivers/adcbuf/lib/libadcbuf_xwr68xx.aer4f
       adcbuf_mmwave.oer4f             1972     20        0      
       ADCBuf.oer4f                    136      16        4      
       adcbuf_xwr1xxx.oer4f            0        16        24     
    +--+-------------------------------+--------+---------+---------+
       Total:                          2108     52        28     
                                                                 
    C:/ti/mmwave_sdk_03_05_00_04/packages/ti/drivers/cbuff/lib/libcbuff_xwr68xx.aer4f
       cbuff.oer4f                     2954     0         0      
       cbuff_transfer.oer4f            1542     0         0      
       cbuff_lvds.oer4f                1329     0         0      
       cbuff_edma.oer4f                731      0         0      
       cbuff_xwr68xx.oer4f             0        0         248    
    +--+-------------------------------+--------+---------+---------+
       Total:                          6556     0         248    
                                                                 
    C:/ti/mmwave_sdk_03_05_00_04/packages/ti/drivers/crc/lib/libcrc_xwr68xx.aer4f
       crc.oer4f                       1256     0         0      
       crc_xwr68xx.oer4f               0        0         4      
    +--+-------------------------------+--------+---------+---------+
       Total:                          1256     0         4      
                                                                 
    C:/ti/mmwave_sdk_03_05_00_04/packages/ti/drivers/dma/lib/libdma_xwr68xx.aer4f
       dma.oer4f                       1978     0         0      
    +--+-------------------------------+--------+---------+---------+
       Total:                          1978     0         0      
                                                                 
    C:/ti/mmwave_sdk_03_05_00_04/packages/ti/drivers/edma/lib/libedma_xwr68xx.aer4f
       edma.oer4f                      3650     16        1256   
       edma_low_level.oer4f            882      0         4      
       edma_xwr1xxx.oer4f              0        56        0      
    +--+-------------------------------+--------+---------+---------+
       Total:                          4532     72        1260   
                                                                 
    C:/ti/mmwave_sdk_03_05_00_04/packages/ti/drivers/esm/lib/libesm_xwr68xx.aer4f
       esm.oer4f                       456      0         112    
       esm_xwr1xxx.oer4f               0        0         12     
    +--+-------------------------------+--------+---------+---------+
       Total:                          456      0         124    
                                                                 
    C:/ti/mmwave_sdk_03_05_00_04/packages/ti/drivers/gpio/lib/libgpio_xwr68xx.aer4f
       gpio.oer4f                      886      0         404    
       gpio_xwr68xx.oer4f              0        0         8      
    +--+-------------------------------+--------+---------+---------+
       Total:                          886      0         412    
                                                                 
    C:/ti/mmwave_sdk_03_05_00_04/packages/ti/drivers/hwa/lib/libhwa_xwr68xx.aer4f
       hwa.oer4f                       4354     96        16     
       hwa_xwr68xx.oer4f               0        0         52     
    +--+-------------------------------+--------+---------+---------+
       Total:                          4354     96        68     
                                                                 
    C:/ti/mmwave_sdk_03_05_00_04/packages/ti/drivers/mailbox/lib/libmailbox_xwr68xx.aer4f
       mailbox.oer4f                   1916     36        80     
       mailbox_xwr68xx.oer4f           0        0         48     
    +--+-------------------------------+--------+---------+---------+
       Total:                          1916     36        128    
                                                                 
    C:/ti/mmwave_sdk_03_05_00_04/packages/ti/drivers/osal/lib/libosal_xwr68xx.aer4f
       DebugP_tirtos.oer4f             388      0         0      
       HwiP_tirtos.oer4f               226      0         0      
       SemaphoreP_tirtos.oer4f         150      0         0      
       MemoryP_tirtos.oer4f            36       0         0      
       CycleprofilerP_tirtos.oer4f     26       0         0      
    +--+-------------------------------+--------+---------+---------+
       Total:                          826      0         0      
                                                                 
    C:/ti/mmwave_sdk_03_05_00_04/packages/ti/drivers/pinmux/lib/libpinmux_xwr68xx.aer4f
       pinmux.oer4f                    390      0         0      
       pinmux_xwr1xxx.oer4f            0        0         4      
    +--+-------------------------------+--------+---------+---------+
       Total:                          390      0         4      
                                                                 
    C:/ti/mmwave_sdk_03_05_00_04/packages/ti/drivers/soc/lib/libsoc_xwr68xx.aer4f
       soc_xwr68xx_mss.oer4f           1546     0         32     
       soc_xwr68xx.oer4f               894      0         64     
       soc.oer4f                       928      0         0      
       soc_mpu.o                       182      0         0      
    +--+-------------------------------+--------+---------+---------+
       Total:                          3550     0         96     
                                                                 
    C:/ti/mmwave_sdk_03_05_00_04/packages/ti/drivers/uart/lib/libuart_xwr68xx.aer4f
       uartsci.oer4f                   2192     0         40     
       uartsci_dma.oer4f               642      0         0      
       UART.oer4f                      160      60        4      
       uart_xwr68xx.oer4f              0        0         124    
    +--+-------------------------------+--------+---------+---------+
       Total:                          2994     60        168    
                                                                 
    C:/ti/mmwave_sdk_03_05_00_04/packages/ti/utils/cli/lib/libcli_xwr68xx.aer4f
       cli_mmwave.oer4f                4652     192       872    
       cli.oer4f                       820      4         424    
    +--+-------------------------------+--------+---------+---------+
       Total:                          5472     196       1296   
                                                                 
    C:/ti/mmwave_sdk_03_05_00_04/packages/ti/utils/hsiheader/lib/libhsiheader_xwr68xx.aer4f
       hsiheader.oer4f                 1176     0         144    
    +--+-------------------------------+--------+---------+---------+
       Total:                          1176     0         144    
                                                                 
    C:/ti/mmwave_sdk_03_05_00_04/packages/ti/utils/mathutils/lib/libmathutils.aer4f
       mathutils.oer4f                 344      0         0      
    +--+-------------------------------+--------+---------+---------+
       Total:                          344      0         0      
                                                                 
    C:/ti/ti-cgt-arm_16.9.6.LTS/lib/rtsv7R4_T_le_v3D16_eabi.lib
       _printfi.obj                    4218     0         0      
       _scanfi.obj                     2200     16        0      
       k_rem_pio2.obj                  1532     344       0      
       s_cos.obj                       1012     0         0      
       s_sin.obj                       1012     0         0      
       ull_div32.obj                   696      0         0      
       strtod.obj                      484      152       0      
       strtoll.obj                     484      0         0      
       fopen.obj                       456      0         4      
       defs.obj                        0        0         416    
       trgmsg.obj                      108      0         288    
       strtoull.obj                    356      0         0      
       strtol.obj                      304      0         0      
       strtoul.obj                     272      0         0      
       ctype.obj                       0        257       0      
       write.obj                       40       0         200    
       s_scalbn.obj                    236      0         0      
       s_floor.obj                     224      0         0      
       setvbuf.obj                     220      0         0      
       fflush.obj                      204      0         0      
       sscanf.obj                      204      0         0      
       open.obj                        188      0         4      
       k_cos.obj                       184      0         0      
       _io_perm.obj                    174      0         0      
       k_sin.obj                       164      0         0      
       memcpy_t2.obj                   156      0         0      
       fclose.obj                      152      0         0      
       fputc.obj                       152      0         0      
       vsnprintf.obj                   136      0         0      
       memset_t2.obj                   122      0         0      
       getdevice.obj                   116      0         0      
       s_frexp.obj                     116      0         0      
       copy_decompress_lzss.obj        108      0         0      
       hostlseek.obj                   104      0         0      
       hostrename.obj                  104      0         0      
       fseek.obj                       100      0         0      
       hostopen.obj                    92       0         8      
       sprintf.obj                     100      0         0      
       exit.obj                        80       0         12     
       hostread.obj                    92       0         0      
       close.obj                       88       0         0      
       hostwrite.obj                   88       0         0      
       ltoa.obj                        84       0         0      
       atoi.obj                        80       0         0      
       u_div32.obj                     80       0         0      
       cpy_tbl.obj                     76       0         0      
       hostclose.obj                   68       0         0      
       hostunlink.obj                  68       0         0      
       strtok.obj                      64       0         4      
       strncpy.obj                     54       0         0      
       e_sqrt.obj                      44       0         0      
       unlink.obj                      44       0         0      
       strspn.obj                      42       0         0      
       lseek.obj                       40       0         0      
       memcmp.obj                      38       0         0      
       strcspn.obj                     34       0         0      
       _lock.obj                       20       0         8      
       memccpy.obj                     28       0         0      
       s_copysign.obj                  26       0         0      
       args_main.obj                   24       0         0      
       ll_mul_t2.obj                   24       0         0      
       strcmp.obj                      24       0         0      
       strrchr.obj                     24       0         0      
       strchr.obj                      22       0         0      
       strlen.obj                      22       0         0      
       strcpy.obj                      20       0         0      
       copy_decompress_none.obj        14       0         0      
       copy_zero_init.obj              12       0         0      
       errno.obj                       0        0         4      
       stkdepth_vars.obj               0        0         4      
       i_div0.obj                      2        0         0      
    +--+-------------------------------+--------+---------+---------+
       Total:                          17956    769       952    
                                                                 
    C:\Users\a0272655\workspace_v8\ods_point_cloud_68xx_hwa\mss\src\sysbios\sysbios.aer4ft
       BIOS.obj                        20737    0         0      
       exc_Exception_asm.obj           308      0         0      
       vim_Hwi_asm.obj                 208      0         0      
       arm_TaskSupport_asm.obj         180      0         0      
       vim_Hwi_asm_switch.obj          152      0         0      
       a15_TimestampProvider_asm.obj   46       0         0      
       arm_IntrinsicsSupport_asm.obj   12       0         0      
       tms570_Core_asm.obj             10       0         0      
    +--+-------------------------------+--------+---------+---------+
       Total:                          21653    0         0      
                                                                 
    C:\ti\bios_6_73_01_01\packages\ti\targets\arm\rtsarm\lib\auto_init.aer4ft
       auto_init.oer4ft                160      0         0      
    +--+-------------------------------+--------+---------+---------+
       Total:                          160      0         0      
                                                                 
    C:\ti\bios_6_73_01_01\packages\ti\targets\arm\rtsarm\lib\boot.aer4ft
       boot.oer4ft                     116      0         0      
    +--+-------------------------------+--------+---------+---------+
       Total:                          116      0         0      
                                                                 
       Stack:                          0        0         1200   
       Linker Generated:               0        1396      0      
    +--+-------------------------------+--------+---------+---------+
       Grand Total:                    150303   5956      926764 


LINKER GENERATED COPY TABLES

__TI_cinit_table @ 00026458 records: 6, size/record: 8, table size: 48
	.data: load addr=00025f10, load size=00000510 bytes, run addr=0801fc20, run size=00001b60 bytes, compression=lzss
	.DPC_objDetTcmbHeap: load addr=00026430, load size=00000008 bytes, run addr=08010000, run size=0000c400 bytes, compression=zero_init
	.bss: load addr=00026438, load size=00000008 bytes, run addr=0801c400, run size=0000381c bytes, compression=zero_init
	.l3ram: load addr=00026440, load size=00000008 bytes, run addr=51000000, run size=000c0000 bytes, compression=zero_init
	.myFiqStack: load addr=00026448, load size=00000008 bytes, run addr=08021780, run size=00000800 bytes, compression=zero_init
	systemHeap: load addr=00026450, load size=00000008 bytes, run addr=08000000, run size=00010000 bytes, compression=zero_init


LINKER GENERATED HANDLER TABLE

__TI_handler_table @ 00026420 records: 3, size/record: 4, table size: 12
	index: 0, handler: __TI_zero_init
	index: 1, handler: __TI_decompress_lzss
	index: 2, handler: __TI_decompress_none


GLOBAL SYMBOLS: SORTED ALPHABETICALLY BY Name 

address   name                                                                 
-------   ----                                                                 
0002179d  ADCBUF_MMWave_close                                                  
00005b85  ADCBUF_MMWave_control                                                
0001e2c5  ADCBUF_MMWave_getCQBufAddr                                           
0001a9cd  ADCBUF_MMWave_getChanBufAddr                                         
0000117b  ADCBUF_MMWave_init                                                   
00012dfd  ADCBUF_MMWave_open                                                   
00024a85  ADCBuf_Params_init                                                   
08021548  ADCBuf_config                                                        
0001b435  ADCBuf_control                                                       
00025bb4  ADCBuf_defaultParams                                                 
0001b625  ADCBuf_getChanBufAddr                                                
00022b65  ADCBuf_init                                                          
000227b1  ADCBuf_open                                                          
0001a50d  AoAProcHWA_ConvertFov                                                
00013675  AoAProcHWA_PrepareRangeAzimuthHeatmap                                
00018f29  AoAProcHWA_SelectMaxPeaks                                            
0000f315  AoAProcHWA_XYZestimationAoA2D                                        
0001d335  AoAProcHWA_cfgAndTrigger_EDMA_2DFFT                                  
00020faf  AoAProcHWA_findSinglePeak                                            
0000e0cd  AoAProcHWA_peakGrouping                                              
0001a5b9  AoAProcHWA_rxChanPhaseBiasCompensation                               
00023ea1  AoAProcHWA_waitEdma                                                  
00013c5d  AoAProc_configLUT                                                    
00020e69  C$$EXIT                                                              
0001f1a7  C$$IO$$                                                              
0000f679  CBUFF_activateSession                                                
0001d3bd  CBUFF_closeEDMA                                                      
00021af5  CBUFF_closeLVDS                                                      
0000e859  CBUFF_configEDMA                                                     
00008de1  CBUFF_createSession                                                  
0001a039  CBUFF_deactivateSession                                              
000157c5  CBUFF_deinit                                                         
0001fab5  CBUFF_deinitLVDS                                                     
000160e5  CBUFF_deleteSession                                                  
0002429d  CBUFF_finalizeLVDSLinkListParams                                     
0000b3b1  CBUFF_init                                                           
0000ebfd  CBUFF_initLVDS                                                       
0001dde1  CBUFF_initLVDSLinkListParams                                         
0000c1c5  CBUFF_openLVDS                                                       
0001e3b5  CBUFF_setVC                                                          
0001c37b  CBUFF_setupNonInterleaved_ADC                                        
00018fed  CBUFF_setupNonInterleaved_CP_ADC_CQ                                  
00019a75  CBUFF_setupTransfer                                                  
000214cb  CBUFF_setup_USER                                                     
00024761  CBUFF_shutdownTransfer                                               
0001ee11  CFARCAHWA_config_EDMA                                                
00012f31  CFARHWA_cfarRange_AND_cfarDoppler                                    
00021513  CFARHWA_convHwaCfarDetListToDetMask                                  
0001ff81  CFARHWA_fovConvertDoppler                                            
00022a29  CFARHWA_fovConvertRange                                              
00023ebf  CFARHWA_isHwaCfarDetected                                            
0001ffdd  CFARHWA_prepareHwaRunTime                                            
0001e939  CFARHWA_saveConfiguration                                            
00022de1  CFARHWA_triggerCFAR                                                  
0001fcd9  CLI_MMWaveExtensionHandler                                           
0001aa75  CLI_MMWaveExtensionHelp                                              
00022665  CLI_MMWaveExtensionInit                                              
00024a95  CLI_getMMWaveExtensionConfig                                         
0002443d  CLI_getMMWaveExtensionOpenConfig                                     
000175b1  CLI_open                                                             
00020ffd  CLI_write                                                            
000161e1  CRC_computeSignature                                                 
00020be9  CRC_getSignature                                                     
00020895  CRC_getTransactionId                                                 
000249ad  CRC_initConfigParams                                                 
0000d6d5  CRC_open                                                             
00020f09  CycleprofilerP_getTimeStamp                                          
00024807  CycleprofilerP_init                                                  
0001b05d  DMA_assignChannel                                                    
00015ee5  DMA_clearChannelInterruptFlag                                        
0001ee81  DMA_disableChannel                                                   
000154ad  DMA_disableInterrupt                                                 
0001eeed  DMA_enableChannel                                                    
00017691  DMA_enableInterrupt                                                  
000208e9  DMA_freeChannel                                                      
00019b2d  DMA_getChannelInterruptFlag                                          
0000dedd  DMA_setChannelParams                                                 
000189ad  DPEDMAHWA_configOneHotSignature                                      
00016f5d  DPEDMAHWA_configTwoHotSignature                                      
00014e5d  DPEDMA_configSyncAB                                                  
000158c9  DPEDMA_configSyncA_singleFrame                                       
00020b95  DPEDMA_setup_shadow_link                                             
000190b1  DPM_deinit                                                           
00020371  DPM_execute                                                          
00010b05  DPM_init                                                             
00019175  DPM_ioctl                                                            
000242b7  DPM_listAdd                                                          
00023c53  DPM_listCat                                                          
000240c3  DPM_listRemove                                                       
000233bd  DPM_msgInitHeader                                                    
00010c85  DPM_msgRecv                                                          
0002269d  DPM_notifyExecute                                                    
00023247  DPM_pipeDeinit                                                       
00022efd  DPM_pipeInit                                                         
0002155b  DPM_pipeRecv                                                         
0001de61  DPM_pipeSend                                                         
00021825  DPM_start                                                            
00021869  DPM_stop                                                             
0000e67d  DPU_AoAProcHWA_config                                                
0001bcf5  DPU_AoAProcHWA_control                                               
000240e1  DPU_AoAProcHWA_deinit                                                
0000569d  DPU_AoAProcHWA_getNumHwaParamSets                                    
00016c91  DPU_AoAProcHWA_init                                                  
00007d3d  DPU_AoAProcHWA_process                                               
00013065  DPU_CFARCAProcHWA_config                                             
00017771  DPU_CFARCAProcHWA_control                                            
0002449d  DPU_CFARCAProcHWA_deinit                                             
0001d445  DPU_CFARCAProcHWA_init                                               
0001035d  DPU_CFARCAProcHWA_process                                            
00002875  DPU_DopplerProcHWA_config                                            
000244b5  DPU_DopplerProcHWA_deinit                                            
00017bc5  DPU_DopplerProcHWA_init                                              
00017135  DPU_DopplerProcHWA_process                                           
00006901  DPU_RangeProcHWA_config                                              
00017ff5  DPU_RangeProcHWA_control                                             
000233e5  DPU_RangeProcHWA_deinit                                              
00019305  DPU_RangeProcHWA_init                                                
00004c39  DPU_RangeProcHWA_process                                             
00021049  DPU_StaticClutterProc_config                                         
00012293  DPU_StaticClutterProc_configEdma                                     
000240fd  DPU_StaticClutterProc_deinit                                         
00022f29  DPU_StaticClutterProc_init                                           
000101d1  DPU_StaticClutterProc_process                                        
00023589  DPU_StaticClutterProc_waitInData                                     
000235af  DPU_StaticClutterProc_waitOutData                                    
00020421  DebugP_log0                                                          
00020479  DebugP_log1                                                          
0001fd39  DebugP_log2                                                          
0001fd99  DebugP_log3                                                          
000093d5  EDMA3ChannelToParamMap                                               
0002147b  EDMA3ClrCCErr                                                        
00023885  EDMA3ClrEvt                                                          
000238a9  EDMA3ClrIntr                                                         
000226d5  EDMA3ClrMissEvt                                                      
000238cd  EDMA3DisableDmaEvt                                                   
000238f1  EDMA3DisableEvtIntr                                                  
000244cd  EDMA3DisableQdmaEvt                                                  
000204d1  EDMA3EnableChInShadowReg                                             
00023915  EDMA3EnableDmaEvt                                                    
00023939  EDMA3EnableEvtIntr                                                   
000244e5  EDMA3EnableQdmaEvt                                                   
000229b9  EDMA3ErrIntrHighStatusGet                                            
00022e99  EDMA3GetCCErrStatus                                                  
000231e9  EDMA3GetErrIntrStatus                                                
0002481d  EDMA3GetIntrStatus                                                   
0001ab1d  EDMA3Init                                                            
00024831  EDMA3IntrStatusHighGet                                               
00020c39  EDMA3MapChToEvtQ                                                     
00024845  EDMA3MapQdmaChToPaRAM                                                
00023c75  EDMA3QdmaClrMissEvt                                                  
00023529  EDMA3QdmaGetErrIntrStatus                                            
0002395d  EDMA3SetEvt                                                          
0002431f  EDMA3SetPaRAM                                                        
000249bf  EDMA3SetQdmaTrigWord                                                 
000222d9  EDMA_chainChannels                                                   
000104e5  EDMA_configChannel                                                   
00014a19  EDMA_configErrorMonitoring                                           
0001e4a5  EDMA_configParamSet                                                  
00021095  EDMA_disableChannel                                                  
000210e1  EDMA_enableChannel                                                   
00022315  EDMA_getErrorStatus                                                  
0000a45d  EDMA_getNumInstances                                                 
00022351  EDMA_getTransferControllerErrorStatus                                
00014471  EDMA_init                                                            
0001ef59  EDMA_isTransferComplete                                              
00021c81  EDMA_linkParamSets                                                   
0000f155  EDMA_open                                                            
00022f55  EDMA_setDestinationAddress                                           
00022f81  EDMA_setSourceAddress                                                
0001f85d  EDMA_startDmaTransfer                                                
00019d55  EDMA_startTransfer                                                   
0000b125  EDMAsetRegion                                                        
00020529  ESM_highpriority_FIQ                                                 
0001b101  ESM_init                                                             
00023c95  ESM_lowpriority_IRQ                                                  
0001a665  ESM_processInterrupt                                                 
0001c8b1  GPIO_init                                                            
00010e05  GPIO_setConfig                                                       
000196cd  GPIO_write                                                           
00021935  HOSTclose                                                            
0001f5f5  HOSTlseek                                                            
000201a9  HOSTopen                                                             
00020205  HOSTread                                                             
0001f65d  HOSTrename                                                           
00021979  HOSTunlink                                                           
00020791  HOSTwrite                                                            
0000aea5  HSIHeader_createHeader                                               
0001ea1d  HSIHeader_deleteHeader                                               
000123dd  HSIHeader_init                                                       
000096ad  HWA_configCommon                                                     
00002ee5  HWA_configParamSet                                                   
0001c24f  HWA_configRam                                                        
00022819  HWA_disableDoneInterrupt                                             
0001d19d  HWA_disableParamSetInterrupt                                         
00022167  HWA_enable                                                           
0002112d  HWA_enableDoneInterrupt                                              
000184dd  HWA_enableParamSetInterrupt                                          
00022e3d  HWA_getCfarPeakCntRegAddress                                         
0001f8c1  HWA_getDMAChanIndex                                                  
00020581  HWA_getDMAconfig                                                     
00021cc1  HWA_getHWAMemInfo                                                    
000021d3  HWA_init                                                             
0001066d  HWA_open                                                             
000215ed  HWA_readCFARPeakCountReg                                             
00021b79  HWA_reset                                                            
0002257d  HWA_setDMA2ACCManualTrig                                             
000138d9  HWAutil_configCFAR                                                   
00024859  HwiP_Params_init                                                     
0001dd61  HwiP_create                                                          
000225b9  HwiP_delete                                                          
00015cd9  HwiP_disable                                                         
0000d4cd  HwiP_disableInterrupt                                                
0000ea2d  HwiP_enableInterrupt                                                 
00023559  HwiP_restore                                                         
0001b1a5  MMWave_addBpmChirp                                                   
00018a79  MMWave_addChirp                                                      
0001a0e9  MMWave_addProfile                                                    
0001e681  MMWave_config                                                        
00018b41  MMWave_configBPM                                                     
0001b6d1  MMWave_configLink                                                    
000221a5  MMWave_decodeError                                                   
000169b9  MMWave_decodeErrorLevel                                              
0001d4c9  MMWave_deviceCfgAsyncEvent                                           
0001eafd  MMWave_deviceCfgFxn                                                  
0001d54d  MMWave_deviceEventFxn                                                
0000a99d  MMWave_deviceExecuteFxn                                              
000249d1  MMWave_deviceGetDeviceInfo                                           
00015181  MMWave_deviceInitFxn                                                 
0001df59  MMWave_deviceOpenFxn                                                 
0001e6f5  MMWave_deviceStartFxn                                                
0001f31d  MMWave_deviceStopFxn                                                 
00024339  MMWave_deviceSyncFxn                                                 
00024353  MMWave_encodeError                                                   
000205d9  MMWave_execute                                                       
00021bbb  MMWave_executeLink                                                   
00018c09  MMWave_flushCfg                                                      
0001d8e1  MMWave_getBpmChirpCfg                                                
0001ac6d  MMWave_getBpmChirpHandle                                             
0001bd8d  MMWave_getChirpCfg                                                   
00018cd1  MMWave_getChirpHandle                                                
0001d5d1  MMWave_getNumBpmChirp                                                
0001e51d  MMWave_getNumChirps                                                  
0001d225  MMWave_getProfileCfg                                                 
0001b76d  MMWave_getProfileHandle                                              
00017931  MMWave_init                                                          
00020991  MMWave_initLink                                                      
0002436d  MMWave_listAdd                                                       
00023cd5  MMWave_listCat                                                       
0001539d  MMWave_listGetHead                                                   
0001a91d  MMWave_listGetNext                                                   
00024119  MMWave_listRemove                                                    
00022bc5  MMWave_listRemoveNode                                                
0001d655  MMWave_open                                                          
0000fead  MMWave_openLink                                                      
00023031  MMWave_osalMutexCreate                                               
00024895  MMWave_osalMutexDelete                                               
000244fd  MMWave_osalMutexLock                                                 
0000dad5  MMWave_osalMutexUnlock                                               
0002305d  MMWave_osalSemCreate                                                 
000248a9  MMWave_osalSemDelete                                                 
00010f75  MMWave_osalSemSignal                                                 
00024515  MMWave_osalSemWait                                                   
0001b249  MMWave_start                                                         
000159cd  MMWave_startLink                                                     
00020095  MMWave_stop                                                          
0001f031  MMWave_stopLink                                                      
00020c89  MMWave_sync                                                          
0002340d  Mailbox_Config_init                                                  
0001c941  Mailbox_close                                                        
00025924  Mailbox_defaultCfg                                                   
0001dfd5  Mailbox_init                                                         
0000b875  Mailbox_open                                                         
00017c99  Mailbox_read                                                         
0001f385  Mailbox_readFlush                                                    
000155b5  Mailbox_write                                                        
0002238d  Mailbox_writeReset                                                   
000249e3  MemoryP_ctrlAlloc                                                    
00020b35  MemoryP_ctrlFree                                                     
000188d9  MemoryP_getStats                                                     
0001a3b1  MmwDemo_ADCBufConfig                                                 
0002329b  MmwDemo_ADCBufOpen                                                   
000021d5  MmwDemo_CLIInit                                                      
000209e5  MmwDemo_CfgUpdate                                                    
00023cf5  MmwDemo_DPC_ObjectDetection_processFrameBeginCallBackFxn             
00024135  MmwDemo_DPC_ObjectDetection_processInterFrameBeginCallBackFxn        
000223c9  MmwDemo_EDMA_errorCallbackFxn                                        
00022405  MmwDemo_EDMA_transferControllerErrorCallbackFxn                      
000128f9  MmwDemo_LVDSStreamDeleteHwSession                                    
00013199  MmwDemo_LVDSStreamDeleteSwSession                                    
0000bf85  MmwDemo_LVDSStreamHwConfig                                           
00011259  MmwDemo_LVDSStreamInit                                               
00011699  MmwDemo_LVDSStreamSwConfig                                           
00019845  MmwDemo_LVDSStream_EDMAInit                                          
00013a05  MmwDemo_MMWave_stop                                                  
080216a8  MmwDemo_RFParserHwCfg                                                
000248bd  MmwDemo_RFParser_getNumSubFrames                                     
0001be25  MmwDemo_RFParser_parseConfig                                         
0000c61d  MmwDemo_checkEdmaErrors                                              
000163d9  MmwDemo_configLVDSHwData                                             
0001da61  MmwDemo_configSensor                                                 
00001a15  MmwDemo_dataPathConfig                                               
00019239  MmwDemo_dataPathObjInit                                              
000147dd  MmwDemo_dataPathStart                                                
0001bc59  MmwDemo_dataPathStop                                                 
0001afb5  MmwDemo_edmaInit                                                     
00013d89  MmwDemo_edmaOpen                                                     
0000d8d5  MmwDemo_eventCallbackFxn                                             
0001d10d  MmwDemo_hwaInit                                                      
0001e595  MmwDemo_hwaOpen                                                      
0000602d  MmwDemo_initTask                                                     
0001bebd  MmwDemo_isAllCfgInNonPendingState                                    
0001a711  MmwDemo_isAllCfgInPendingState                                       
0001a7bd  MmwDemo_measurementResultOutput                                      
000200f1  MmwDemo_mmWaveCtrlTask                                               
0001f6c5  MmwDemo_mssSetHsiClk                                                 
000113c1  MmwDemo_openSensor                                                   
0001ed2d  MmwDemo_platformInit                                                 
00021635  MmwDemo_resetStaticCfgPendingState                                   
0000bad5  MmwDemo_sensorStopEpilog                                             
0001ed9d  MmwDemo_sleep                                                        
00011ffd  MmwDemo_startSensor                                                  
00013eb1  MmwDemo_stopSensor                                                   
000132cd  MmwDemo_transferLVDSUserData                                         
000084b5  MmwDemo_transmitProcessedOutput                                      
0001f09d  Pinmux_Set_FuncSel                                                   
0001ad15  Pinmux_Set_OverrideCtrl                                              
UNDEFED   SHT$$INIT_ARRAY$$Base                                                
UNDEFED   SHT$$INIT_ARRAY$$Limit                                               
00019d0f  SOC_MPUAreRegionsSeparate                                            
00019cbb  SOC_MPUDisable                                                       
00019cef  SOC_MPUDisableBackgroundRegion                                       
00019c9d  SOC_MPUEnable                                                        
00019cd9  SOC_MPUEnableBackgroundRegion                                        
00019d05  SOC_MPUGetNumberOfRegions                                            
00019d1d  SOC_MPUGetRegion                                                     
00019d29  SOC_MPUGetRegionBaseAddress                                          
00019d43  SOC_MPUGetRegionPermission                                           
00019d39  SOC_MPUGetRegionType                                                 
00019d17  SOC_MPUSetRegion                                                     
00019d23  SOC_MPUSetRegionBaseAddress                                          
00019d4d  SOC_MPUSetRegionSizeRegister                                         
00019d2f  SOC_MPUSetRegionTypeAndPermission                                    
000232c5  SOC_SystemISR                                                        
08021224  SOC_TranslateAddr_LUT                                                
000180c5  SOC_controlSecureFirewall                                            
0001adbd  SOC_deregisterSysIntListener                                         
000087c9  SOC_deviceInit                                                       
00022881  SOC_enableHWA                                                        
0002014d  SOC_enableLVDS                                                       
0001c539  SOC_gateClock                                                        
00022bf5  SOC_getDevicePartNumber                                              
0001dae1  SOC_getDeviceRFFreqScaleFactor                                       
00024151  SOC_getInAddr_LUTType                                                
00023f19  SOC_getOutAddr_LUTType                                               
000228b5  SOC_hasDSPCore                                                       
0001cd2d  SOC_init                                                             
000239ed  SOC_isDSSOperational                                                 
00023a11  SOC_isMMWaveDSSOperational                                           
00023a35  SOC_isMMWaveMSSOperational                                           
00022441  SOC_isSecureDevice                                                   
00024a33  SOC_microDelay                                                       
0001b4e5  SOC_registerSysIntListener                                           
000218f1  SOC_resetDMA                                                         
000228e9  SOC_setMMWaveDSSLinkState                                            
0002291d  SOC_setMMWaveMSSLinkState                                            
00022951  SOC_setMSSLinkState                                                  
0001cdb9  SOC_translateAddress                                                 
00018d99  SOC_ungateClock                                                      
0002247d  SOC_unhaltBSS                                                        
00023089  SOC_waitBSSPowerUp                                                   
00019e09  SemaphoreP_Params_init                                               
0001f925  SemaphoreP_create                                                    
00024a53  SemaphoreP_delete                                                    
000249f5  SemaphoreP_pend                                                      
00021a55  SemaphoreP_post                                                      
00021a55  SemaphoreP_postFromClock                                             
00021a55  SemaphoreP_postFromISR                                               
00013535  UART_Params_init                                                     
00021aa5  UART_close                                                           
080213fc  UART_config                                                          
0002579c  UART_defaultParams                                                   
0002270d  UART_init                                                            
00022985  UART_open                                                            
000224f5  UART_read                                                            
00022b27  UART_write                                                           
00022c85  UART_writePolling                                                    
000206e1  UartSci_closeDMA                                                     
00023bed  UartSci_disableRxDMA                                                 
000248e5  UartSci_disableTxDMA                                                 
00023c0f  UartSci_enableRxDMA                                                  
000248f9  UartSci_enableTxDMA                                                  
0001ce45  UartSci_initiateRxDMA                                                
0001c9d1  UartSci_initiateTxDMA                                                
00014595  UartSci_isDMAEnabled                                                 
00019f85  UartSci_openDMA                                                      
00022e6b  _DPC_Objdet_Assert                                                   
0002490d  _DebugP_assert                                                       
00023839  _MmwDemo_debugAssert                                                 
00000000  __ASM__                                                              
0801f844  __CIOBUF_                                                            
0000006d  __ISA__                                                              
0000007f  __PLAT__                                                             
08022430  __STACK_END                                                          
000004b0  __STACK_SIZE                                                         
000000a3  __TARG__                                                             
00026458  __TI_CINIT_Base                                                      
00026488  __TI_CINIT_Limit                                                     
00026420  __TI_Handler_Table_Base                                              
0002642c  __TI_Handler_Table_Limit                                             
0001b585  __TI_auto_init                                                       
0000f057  __TI_cleanup                                                         
08021670  __TI_cleanup_ptr                                                     
0001bf55  __TI_closefile                                                       
0001f109  __TI_decompress_lzss                                                 
00024bd1  __TI_decompress_none                                                 
00018741  __TI_doflush                                                         
08021674  __TI_dtors_ptr                                                       
08021678  __TI_enable_exit_profile_output                                      
08021640  __TI_ft_end                                                          
ffffffff  __TI_pprof_out_hndl                                                  
000008c5  __TI_printfi                                                         
ffffffff  __TI_prof_data_size                                                  
ffffffff  __TI_prof_data_start                                                 
0001a4c3  __TI_rd_ok                                                           
0001f1ab  __TI_readmsg                                                         
0000117d  __TI_scanfi                                                          
00025f10  __TI_static_base__                                                   
0801fa64  __TI_tmpnams                                                         
0001f175  __TI_writemsg                                                        
0001a45f  __TI_wrt_ok                                                          
000164d5  __TI_zero_init                                                       
000000ca  __TRDR__                                                             
00007553  __aeabi_idiv0                                                        
000245d5  __aeabi_lmul                                                         
0001e249  __aeabi_memclr                                                       
0001e249  __aeabi_memclr4                                                      
0001e249  __aeabi_memclr8                                                      
0001b941  __aeabi_memcpy                                                       
0001b941  __aeabi_memcpy4                                                      
0001b941  __aeabi_memcpy8                                                      
0001e24b  __aeabi_memset                                                       
0001e24b  __aeabi_memset4                                                      
0001e24b  __aeabi_memset8                                                      
0802164c  __aeabi_stderr                                                       
08021644  __aeabi_stdin                                                        
08021648  __aeabi_stdout                                                       
00020eb8  __aeabi_uidiv                                                        
00020eb8  __aeabi_uidivmod                                                     
0000a1a4  __aeabi_uldivmod                                                     
ffffffff  __binit__                                                            
ffffffff  __c_args__                                                           
00019be5  __kernel_cos                                                         
0000353d  __kernel_rem_pio2                                                    
0001b391  __kernel_sin                                                         
08021f80  __stack                                                              
000245bd  _args_main                                                           
0001e768  _c_int00                                                             
00025378  _ctypes_                                                             
08020f98  _device                                                              
08020d90  _ftable                                                              
080216a0  _lock                                                                
0002496b  _nop                                                                 
00024963  _register_lock                                                       
0002495d  _register_unlock                                                     
0802113c  _stream                                                              
080216a4  _unlock                                                              
00020e6d  abort                                                                
00020e19  atoi                                                                 
ffffffff  binit                                                                
00020739  close                                                                
00021211  copy_in                                                              
000243bb  copysign                                                             
000243bb  copysignl                                                            
00007555  cos                                                                  
00007555  cosl                                                                 
0801ed00  edmaDbg                                                              
08021740  errno                                                                
00020e75  exit                                                                 
0001bfbb  fclose                                                               
0001878d  fflush                                                               
0001e851  finddevice                                                           
00017851  floor                                                                
00017851  floorl                                                               
0000f0ad  fopen                                                                
0001bfed  fputc                                                                
00024387  free                                                                 
0000f083  freopen                                                              
0001e8c5  frexp                                                                
0001e8c5  frexpl                                                               
0001f989  fseek                                                                
00025b90  gADCBufFxnTable                                                      
00025bd4  gADCBufHwCfg                                                         
08021510  gAntDef_IWR6843ODS                                                   
08021010  gCBUFFHwAttribute                                                    
080212e0  gCBUFFInterfaceFxn                                                   
0801f508  gCLI                                                                 
08020900  gCLIMMWaveControlCfg                                                 
08020858  gCLIMMWaveExtensionTable                                             
08020830  gCLIMMWaveOpenCfg                                                    
08020828  gCLI_mmwave_freq_scale_factor                                        
0802172c  gCRCRegister                                                         
08010000  gDPC_ObjDetTCM                                                       
08021420  gDPC_ObjectDetectionCfg                                              
08021730  gDPM                                                                 
080216b0  gDPMHwAttrib                                                         
000258ac  gDPMMessageFxnTable                                                  
08021608  gDPMRemoteTable                                                      
0802167c  gESMHwCfgAttrs                                                       
00025814  gEdmaHwAttrs                                                         
0801fb98  gEsmMCB                                                              
080216b8  gGPIOHwAtrrib                                                        
0801f6b0  gGPIOMCB                                                             
0801fb08  gHSIHeaderMCB                                                        
0802148c  gHWADriverPtr                                                        
0802134c  gHWAHwCfg                                                            
08021630  gHwaEDMAChanMapping                                                  
08021560  gInterleavedTransferFxn                                              
0801fc08  gMMWave_DualcoreMCB                                                  
0801f964  gMMWave_MCB                                                          
0802118c  gMailboxMCB                                                          
08021578  gMailboxMssBssHwCfg                                                  
08021590  gMailboxMssDssHwCfg                                                  
51000000  gMmwL3                                                               
0801fc28  gMmwMCB                                                              
080215a8  gMultipleChirpNonInterleavedTransferFxn                              
080215c0  gNonInterleavedTransferFxn                                           
0801fb04  gObjDetObj                                                           
08021738  gPinmuxRegs                                                          
0801fc20  gRFLdoBypassCfg                                                      
08021490  gSOCHwAttrib                                                         
080213d4  gUartSciFxnTable                                                     
080210e4  gUartSciHwCfg                                                        
0001e87f  getdevice                                                            
00016d7d  ldexp                                                                
00016d7d  ldexpl                                                               
000234ad  lseek                                                                
00020a39  ltoa                                                                 
00013401  main                                                                 
0802174c  main_func_sp                                                         
00022ecf  malloc                                                               
00024921  mathUtils_ceilLog2                                                   
00023b55  mathUtils_floorLog2                                                  
00013fd9  mathUtils_genWindow                                                  
00024a07  mathUtils_pow2roundup                                                
000241a5  memccpy                                                              
000237e9  memcmp                                                               
0001b941  memcpy                                                               
0001e251  memset                                                               
00022221  mmwDemo_cfgAnalogMonitor                                             
000235d5  mmwDemo_cfgRxSaturationMonitor                                       
00023f37  mmwDemo_cfgRxSigImgMonitor                                           
00019901  open                                                                 
0801fc10  parmbuf                                                              
080209cc  partInfoStringArray                                                  
0001bfed  putc                                                                 
0001c073  putchar                                                              
08021734  regionId                                                             
00023139  remove                                                               
00024935  rlAppendDummy                                                        
00022745  rlAppendSubBlock                                                     
000232ef  rlDeviceGetMmWaveLinkVersion                                         
000230b5  rlDeviceGetMssVersion                                                
00024575  rlDeviceGetRfVersion                                                 
0002167d  rlDeviceGetVersion                                                   
00020d79  rlDeviceIdentifyCmdDir                                               
0001f72d  rlDevicePowerOff                                                     
0001ced1  rlDevicePowerOn                                                      
00023a59  rlDeviceSetHsiClk                                                    
0001e7dd  rlDriverAsyncEventHandler                                            
0002458d  rlDriverCalCRC                                                       
00020317  rlDriverCalChkSum                                                    
00010041  rlDriverCmdInvoke                                                    
00012525  rlDriverCmdSendRetry                                                 
00023485  rlDriverConstructInMsg                                               
0001a869  rlDriverConstructOutMsg                                              
0001c5cd  rlDriverDeInit                                                       
0001dbe1  rlDriverExecuteGetApi                                                
0001f525  rlDriverExecuteSetApi                                                
000245a5  rlDriverFillPayload                                                  
0001cfe9  rlDriverGetHandle                                                    
00017f15  rlDriverGetPlatformId                                                
0001f58d  rlDriverHostIrqHandler                                               
00015fe5  rlDriverInit                                                         
00024949  rlDriverIsDeviceMapValid                                             
00017a0d  rlDriverMsgCmdReply                                                  
0000f4c9  rlDriverMsgRead                                                      
0001c661  rlDriverMsgReadCmdCtx                                                
0001cf5d  rlDriverMsgReadSpawnCtx                                              
00019485  rlDriverMsgWrite                                                     
000216c5  rlDriverOsiInit                                                      
0001c6f5  rlDriverProcRdMsg                                                    
000166d5  rlDriverRdVerifyMsg                                                  
0000edc5  rlDriverRxHdrRead                                                    
00021d81  rlDriverValidateHdr                                                  
00020dc9  rlDriverVerifyCRC                                                    
0001ae65  rlDriverWaitForResponse                                              
00023a7d  rlEnableContMode                                                     
000243a1  rlGetRfDieId                                                         
00021bfd  rlGetSubBlock                                                        
00024259  rlGetSubBlockId                                                      
00024a19  rlGetSubBlockLen                                                     
000235fb  rlRfAnaMonConfig                                                     
000185a9  rlRfCalibDataRestore                                                 
00023621  rlRfGetTemperatureReport                                             
00023d35  rlRfInit                                                             
00023647  rlRfInitCalibConfig                                                  
000173e9  rlRfPhShiftCalibDataRestore                                          
0002366d  rlRfRunTimeCalibConfig                                               
00023693  rlRfRxIfSatMonConfig                                                 
000236b9  rlRfRxSigImgMonConfig                                                
000236df  rlRfSetCalMonFreqLimitConfig                                         
00023aa1  rlRfSetCalMonTimeUnitConfig                                          
00023705  rlRfSetDeviceCfg                                                     
0002372b  rlRfSetLdoBypassConfig                                               
00022c25  rlSensorStart                                                        
000230e1  rlSensorStop                                                         
00023751  rlSetAdcOutConfig                                                    
0001af0d  rlSetAdvFrameConfig                                                  
00023777  rlSetBpmCommonConfig                                                 
0002379d  rlSetChannelConfig                                                   
00018675  rlSetChirpConfig                                                     
000237c3  rlSetContModeConfig                                                  
00018e61  rlSetFrameConfig                                                     
00023ac5  rlSetLowPowerModeConfig                                              
00017e41  rlSetMultiBpmChirpConfig                                             
0001a199  rlSetProfileConfig                                                   
08020540  rl_rxMsg                                                             
08020440  rl_txMsg                                                             
00016d7d  scalbn                                                               
00016d7d  scalbnl                                                              
00017ae9  setvbuf                                                              
00007949  sin                                                                  
00007949  sinl                                                                 
0001f9ed  sprintf                                                              
0002310d  sqrt                                                                 
0002310d  sqrtl                                                                
0001881f  sscanf                                                               
0002478d  strchr                                                               
000245ed  strcmp                                                               
00024971  strcpy                                                               
00023c31  strcspn                                                              
000247a3  strlen                                                               
0002277b  strncpy                                                              
00024605  strrchr                                                              
00023319  strspn                                                               
0000e2b5  strtod                                                               
00021dc1  strtok                                                               
000137a9  strtol                                                               
0000e2b5  strtold                                                              
0000e499  strtoll                                                              
00014d4d  strtoul                                                              
000117fd  strtoull                                                             
08021444  ti_sysbios_BIOS_Module__state__V                                     
00024695  ti_sysbios_BIOS_RtsGateProxy_Handle__label__S                        
0002125d  ti_sysbios_BIOS_RtsGateProxy_enter__E                                
0002134d  ti_sysbios_BIOS_RtsGateProxy_leave__E                                
00024d11  ti_sysbios_BIOS_RtsGateProxy_query__E                                
00023165  ti_sysbios_BIOS_atExitFunc__I                                        
00023f55  ti_sysbios_BIOS_errorRaiseHook__I                                    
000247b9  ti_sysbios_BIOS_exitFunc__I                                          
00024ac1  ti_sysbios_BIOS_getCpuFreq__E                                        
00024d61  ti_sysbios_BIOS_linkedWithIncorrectBootLibrary__E                    
0000d0c3  ti_sysbios_BIOS_nullFunc__I                                          
00023ae9  ti_sysbios_BIOS_registerRTSLock__I                                   
00023b0d  ti_sysbios_BIOS_removeRTSLock__I                                     
000241c1  ti_sysbios_BIOS_rtsLock__I                                           
0002461d  ti_sysbios_BIOS_rtsUnlock__I                                         
00024ad1  ti_sysbios_BIOS_setThreadType__E                                     
00022c55  ti_sysbios_BIOS_startFunc__I                                         
00024ae1  ti_sysbios_BIOS_start__E                                             
000148f4  ti_sysbios_family_arm_IntrinsicsSupport_maxbitA__I                   
000148f4  ti_sysbios_family_arm_IntrinsicsSupport_maxbit__E                    
000219bd  ti_sysbios_family_arm_TaskSupport_Module__startupDone__S             
0001e0cc  ti_sysbios_family_arm_TaskSupport_buildTaskStack                     
00024c01  ti_sysbios_family_arm_TaskSupport_checkStack__E                      
00024c11  ti_sysbios_family_arm_TaskSupport_getStackAlignment__E               
0002416c  ti_sysbios_family_arm_TaskSupport_glue                               
00025c38  ti_sysbios_family_arm_TaskSupport_stackAlignment__C                  
00023d61  ti_sysbios_family_arm_TaskSupport_stackUsed__E                       
00022c91  ti_sysbios_family_arm_TaskSupport_start__E                           
00024188  ti_sysbios_family_arm_TaskSupport_swap__E                            
08021754  ti_sysbios_family_arm_a15_TimestampProvider_Module__state__V         
00024af1  ti_sysbios_family_arm_a15_TimestampProvider_Module_startup__E        
00023d81  ti_sysbios_family_arm_a15_TimestampProvider_autoRefreshFxn__I        
00024c8b  ti_sysbios_family_arm_a15_TimestampProvider_get32__E                 
000229c1  ti_sysbios_family_arm_a15_TimestampProvider_get64__E                 
00024ac1  ti_sysbios_family_arm_a15_TimestampProvider_getFreq__E               
00024bdf  ti_sysbios_family_arm_a15_TimestampProvider_getOverflowCCNT__I       
000243d5  ti_sysbios_family_arm_a15_TimestampProvider_initCCNT__I              
00025c3c  ti_sysbios_family_arm_exc_Exception_E_dataAbort__C                   
00025c40  ti_sysbios_family_arm_exc_Exception_E_prefetchAbort__C               
00025c44  ti_sysbios_family_arm_exc_Exception_E_swi__C                         
00025c48  ti_sysbios_family_arm_exc_Exception_E_undefinedInstruction__C        
08021726  ti_sysbios_family_arm_exc_Exception_Module_State_0_excActive__A      
08021758  ti_sysbios_family_arm_exc_Exception_Module_State_0_excContext__A     
0802175c  ti_sysbios_family_arm_exc_Exception_Module_State_0_excStackBuffers__A
0801dd00  ti_sysbios_family_arm_exc_Exception_Module_State_0_excStack_0__A     
08021760  ti_sysbios_family_arm_exc_Exception_Module_State_0_excStack__A       
0002521e  ti_sysbios_family_arm_exc_Exception_Module__id__C                    
0802161c  ti_sysbios_family_arm_exc_Exception_Module__state__V                 
00024c21  ti_sysbios_family_arm_exc_Exception_Module_startup__E                
0000b131  ti_sysbios_family_arm_exc_Exception_excDumpContext__I                
00018194  ti_sysbios_family_arm_exc_Exception_excHandlerAsm__I                 
000181fc  ti_sysbios_family_arm_exc_Exception_excHandlerDataAsm__I             
00011531  ti_sysbios_family_arm_exc_Exception_excHandler__I                    
00025c4c  ti_sysbios_family_arm_exc_Exception_excHookFuncs__A                  
00025c50  ti_sysbios_family_arm_exc_Exception_excHookFuncs__C                  
0001fa50  ti_sysbios_family_arm_exc_Exception_initCore0__I                     
00025c54  ti_sysbios_family_arm_v7a_Pmu_A_invalidCounterId__C                  
00025c58  ti_sysbios_family_arm_v7a_Pmu_Module__diagsEnabled__C                
00025c5c  ti_sysbios_family_arm_v7a_Pmu_Module__diagsIncluded__C               
00025c60  ti_sysbios_family_arm_v7a_Pmu_Module__diagsMask__C                   
0002547a  ti_sysbios_family_arm_v7a_Pmu_Module__id__C                          
08021688  ti_sysbios_family_arm_v7a_Pmu_Module__state__V                       
00023da1  ti_sysbios_family_arm_v7a_Pmu_Module_startup__E                      
00018264  ti_sysbios_family_arm_v7a_Pmu_configureCounterI__I                   
00019241  ti_sysbios_family_arm_v7a_Pmu_configureCounter__E                    
00024b00  ti_sysbios_family_arm_v7a_Pmu_disableInterruptI__E                   
00024b10  ti_sysbios_family_arm_v7a_Pmu_enableInterruptI__E                    
00019544  ti_sysbios_family_arm_v7a_Pmu_getCountI__E                           
0001cff1  ti_sysbios_family_arm_v7a_Pmu_getCount__E                            
0001e148  ti_sysbios_family_arm_v7a_Pmu_getEnabled__E                          
00024b20  ti_sysbios_family_arm_v7a_Pmu_getNumCounters__E                      
00024634  ti_sysbios_family_arm_v7a_Pmu_initCounters__I                        
00024b30  ti_sysbios_family_arm_v7a_Pmu_startCounterI__E                       
0001caf1  ti_sysbios_family_arm_v7a_Pmu_startCounter__E                        
00024b40  ti_sysbios_family_arm_v7a_Pmu_stopCounterI__E                        
00025c64  ti_sysbios_family_arm_v7r_tms570_Core_E_mismatchedIds__C             
00025ed0  ti_sysbios_family_arm_v7r_tms570_Core_Module__id__C                  
000219c1  ti_sysbios_family_arm_v7r_tms570_Core_Module_startup__E              
00023d55  ti_sysbios_family_arm_v7r_tms570_Core_getId__E                       
00025c68  ti_sysbios_family_arm_v7r_tms570_Core_id__C                          
00025c6c  ti_sysbios_family_arm_v7r_vim_Hwi_A_badChannelId__C                  
00025c70  ti_sysbios_family_arm_v7r_vim_Hwi_E_alreadyDefined__C                
00025c74  ti_sysbios_family_arm_v7r_vim_Hwi_E_badIntNum__C                     
00025c78  ti_sysbios_family_arm_v7r_vim_Hwi_E_phantomInterrupt__C              
00025c7c  ti_sysbios_family_arm_v7r_vim_Hwi_E_undefined__C                     
00025c80  ti_sysbios_family_arm_v7r_vim_Hwi_E_unsupportedMaskingOption__C      
0001d081  ti_sysbios_family_arm_v7r_vim_Hwi_Instance_finalize__E               
00014901  ti_sysbios_family_arm_v7r_vim_Hwi_Instance_init__E                   
00025c84  ti_sysbios_family_arm_v7r_vim_Hwi_LD_end__C                          
00025c88  ti_sysbios_family_arm_v7r_vim_Hwi_LM_begin__C                        
08020b90  ti_sysbios_family_arm_v7r_vim_Hwi_Module_State_0_dispatchTable__A    
08021780  ti_sysbios_family_arm_v7r_vim_Hwi_Module_State_0_fiqStack__A         
00025c8c  ti_sysbios_family_arm_v7r_vim_Hwi_Module__diagsEnabled__C            
00025c90  ti_sysbios_family_arm_v7r_vim_Hwi_Module__diagsIncluded__C           
00025c94  ti_sysbios_family_arm_v7r_vim_Hwi_Module__diagsMask__C               
00025ed2  ti_sysbios_family_arm_v7r_vim_Hwi_Module__id__C                      
00025ed4  ti_sysbios_family_arm_v7r_vim_Hwi_Module__loggerDefined__C           
00025c98  ti_sysbios_family_arm_v7r_vim_Hwi_Module__loggerFxn1__C              
00025c9c  ti_sysbios_family_arm_v7r_vim_Hwi_Module__loggerFxn8__C              
00025ca0  ti_sysbios_family_arm_v7r_vim_Hwi_Module__loggerObj__C               
080216c0  ti_sysbios_family_arm_v7r_vim_Hwi_Module__root__V                    
0002464d  ti_sysbios_family_arm_v7r_vim_Hwi_Module__startupDone__F             
0002464d  ti_sysbios_family_arm_v7r_vim_Hwi_Module__startupDone__S             
08021318  ti_sysbios_family_arm_v7r_vim_Hwi_Module__state__V                   
000169c1  ti_sysbios_family_arm_v7r_vim_Hwi_Module_startup__E                  
00025ca4  ti_sysbios_family_arm_v7r_vim_Hwi_NUM_INTERRUPTS__C                  
00025a18  ti_sysbios_family_arm_v7r_vim_Hwi_Object__DESC__C                    
0002584c  ti_sysbios_family_arm_v7r_vim_Hwi_Object__PARAMS__C                  
00023dc1  ti_sysbios_family_arm_v7r_vim_Hwi_Object__delete__S                  
0802137c  ti_sysbios_family_arm_v7r_vim_Hwi_Object__table__V                   
00024665  ti_sysbios_family_arm_v7r_vim_Hwi_Params__init__S                    
00025640  ti_sysbios_family_arm_v7r_vim_Hwi_channelMap__A                      
00025ca8  ti_sysbios_family_arm_v7r_vim_Hwi_channelMap__C                      
000241e1  ti_sysbios_family_arm_v7r_vim_Hwi_clearInterrupt__E                  
00020a8d  ti_sysbios_family_arm_v7r_vim_Hwi_create                             
0002253d  ti_sysbios_family_arm_v7r_vim_Hwi_delete                             
00023de1  ti_sysbios_family_arm_v7r_vim_Hwi_disableInterrupt__E                
0000ea31  ti_sysbios_family_arm_v7r_vim_Hwi_dispatchIRQC__I                    
0001c788  ti_sysbios_family_arm_v7r_vim_Hwi_dispatchIRQ__I                     
00023e01  ti_sysbios_family_arm_v7r_vim_Hwi_enableInterrupt__E                 
00021261  ti_sysbios_family_arm_v7r_vim_Hwi_getStackInfo__E                    
0001b9e1  ti_sysbios_family_arm_v7r_vim_Hwi_initIntController__I               
000224b8  ti_sysbios_family_arm_v7r_vim_Hwi_init__I                            
00025be4  ti_sysbios_family_arm_v7r_vim_Hwi_intReqEnaSet__A                    
00025cac  ti_sysbios_family_arm_v7r_vim_Hwi_intReqEnaSet__C                    
0001ba81  ti_sysbios_family_arm_v7r_vim_Hwi_mapChannel__I                      
00025cb0  ti_sysbios_family_arm_v7r_vim_Hwi_phantomFunc__C                     
0001fac1  ti_sysbios_family_arm_v7r_vim_Hwi_phantomIntHandler__I               
00011961  ti_sysbios_family_arm_v7r_vim_Hwi_reconfig__E                        
00024cb1  ti_sysbios_family_arm_v7r_vim_Hwi_startup__E                         
00024c31  ti_sysbios_family_arm_v7r_vim_Hwi_switchFromBootStack__E             
00025cb4  ti_sysbios_family_arm_v7r_vim_Hwi_taskDisable__C                     
00025cb8  ti_sysbios_family_arm_v7r_vim_Hwi_taskRestoreHwi__C                  
00000000  ti_sysbios_family_arm_v7r_vim_Hwi_vectors                            
fffffdec  ti_sysbios_family_arm_v7r_vim_Hwi_vim                                
00025bf4  ti_sysbios_family_arm_v7r_vim_Hwi_wakeEnaSet__A                      
00025cbc  ti_sysbios_family_arm_v7r_vim_Hwi_wakeEnaSet__C                      
0001c0d0  ti_sysbios_family_xxx_Hwi_switchAndRunDispatchC                      
0001c084  ti_sysbios_family_xxx_Hwi_switchAndRunFunc                           
0002467d  ti_sysbios_gates_GateHwi_Handle__label__S                            
00024d71  ti_sysbios_gates_GateHwi_Instance_init__E                            
00025948  ti_sysbios_gates_GateHwi_Module__FXNS__C                             
080216c8  ti_sysbios_gates_GateHwi_Module__root__V                             
00025a38  ti_sysbios_gates_GateHwi_Object__DESC__C                             
00025b18  ti_sysbios_gates_GateHwi_Object__PARAMS__C                           
00022cc1  ti_sysbios_gates_GateHwi_Object__create__S                           
00023e21  ti_sysbios_gates_GateHwi_Object__delete__S                           
08021764  ti_sysbios_gates_GateHwi_Object__table__V                            
00024ca1  ti_sysbios_gates_GateHwi_enter__E                                    
00024cc1  ti_sysbios_gates_GateHwi_leave__E                                    
00024d01  ti_sysbios_gates_GateHwi_query__E                                    
00025cc0  ti_sysbios_gates_GateMutex_A_badContext__C                           
00024695  ti_sysbios_gates_GateMutex_Handle__label__S                          
00025cc4  ti_sysbios_gates_GateMutex_Instance_State_sem__O                     
00024b51  ti_sysbios_gates_GateMutex_Instance_finalize__E                      
00024201  ti_sysbios_gates_GateMutex_Instance_init__E                          
0002596c  ti_sysbios_gates_GateMutex_Module__FXNS__C                           
00025cc8  ti_sysbios_gates_GateMutex_Module__diagsEnabled__C                   
00025ccc  ti_sysbios_gates_GateMutex_Module__diagsIncluded__C                  
00025cd0  ti_sysbios_gates_GateMutex_Module__diagsMask__C                      
00025ed6  ti_sysbios_gates_GateMutex_Module__id__C                             
080216d0  ti_sysbios_gates_GateMutex_Module__root__V                           
00025a58  ti_sysbios_gates_GateMutex_Object__DESC__C                           
00025b30  ti_sysbios_gates_GateMutex_Object__PARAMS__C                         
00022cf1  ti_sysbios_gates_GateMutex_Object__create__S                         
00023b31  ti_sysbios_gates_GateMutex_Object__delete__S                         
08021264  ti_sysbios_gates_GateMutex_Object__table__V                          
00019e11  ti_sysbios_gates_GateMutex_enter__E                                  
00024221  ti_sysbios_gates_GateMutex_leave__E                                  
00024d11  ti_sysbios_gates_GateMutex_query__E                                  
00023d55  ti_sysbios_hal_Core_CoreProxy_getId__E                               
00025cd4  ti_sysbios_hal_Hwi_E_stackOverflow__C                                
0002464d  ti_sysbios_hal_Hwi_HwiProxy_Module__startupDone__S                   
00024665  ti_sysbios_hal_Hwi_HwiProxy_Params__init__S                          
000241e1  ti_sysbios_hal_Hwi_HwiProxy_clearInterrupt__E                        
00023de1  ti_sysbios_hal_Hwi_HwiProxy_disableInterrupt__E                      
00023e01  ti_sysbios_hal_Hwi_HwiProxy_enableInterrupt__E                       
00021261  ti_sysbios_hal_Hwi_HwiProxy_getStackInfo__E                          
00024cb1  ti_sysbios_hal_Hwi_HwiProxy_startup__E                               
00024c31  ti_sysbios_hal_Hwi_HwiProxy_switchFromBootStack__E                   
00025ed8  ti_sysbios_hal_Hwi_Module__id__C                                     
00024a21  ti_sysbios_hal_Hwi_Module_startup__E                                 
080216d8  ti_sysbios_hal_Hwi_Object__table__V                                  
00022501  ti_sysbios_hal_Hwi_checkStack                                        
000241e1  ti_sysbios_hal_Hwi_clearInterrupt__E                                 
00023de1  ti_sysbios_hal_Hwi_disableInterrupt__E                               
00023e01  ti_sysbios_hal_Hwi_enableInterrupt__E                                
00021261  ti_sysbios_hal_Hwi_getStackInfo__E                                   
00022b31  ti_sysbios_hal_Hwi_initStack                                         
00024cb1  ti_sysbios_hal_Hwi_startup__E                                        
00024c31  ti_sysbios_hal_Hwi_switchFromBootStack__E                            
00025cd8  ti_sysbios_heaps_HeapBuf_Instance_State_freeList__O                  
08021768  ti_sysbios_heaps_HeapBuf_Module__state__V                            
00016e71  ti_sysbios_heaps_HeapBuf_Module_startup__E                           
00025cdc  ti_sysbios_heaps_HeapBuf_Object__count__C                            
00024b61  ti_sysbios_heaps_HeapBuf_Object__get__S                              
00025ce0  ti_sysbios_heaps_HeapBuf_numConstructedHeaps__C                      
00025ce4  ti_sysbios_heaps_HeapMem_A_align__C                                  
00025ce8  ti_sysbios_heaps_HeapMem_A_heapSize__C                               
00025cec  ti_sysbios_heaps_HeapMem_A_invalidFree__C                            
00025cf0  ti_sysbios_heaps_HeapMem_A_zeroBlock__C                              
00025cf4  ti_sysbios_heaps_HeapMem_E_memory__C                                 
000246ad  ti_sysbios_heaps_HeapMem_Handle__label__S                            
08000000  ti_sysbios_heaps_HeapMem_Instance_State_0_buf__A                     
00012a41  ti_sysbios_heaps_HeapMem_Instance_init__E                            
00024695  ti_sysbios_heaps_HeapMem_Module_GateProxy_Handle__label__S           
000234fd  ti_sysbios_heaps_HeapMem_Module_GateProxy_enter__E                   
000241dd  ti_sysbios_heaps_HeapMem_Module_GateProxy_leave__E                   
00024d11  ti_sysbios_heaps_HeapMem_Module_GateProxy_query__E                   
000258d4  ti_sysbios_heaps_HeapMem_Module__FXNS__C                             
00025cf8  ti_sysbios_heaps_HeapMem_Module__diagsEnabled__C                     
00025cfc  ti_sysbios_heaps_HeapMem_Module__diagsIncluded__C                    
00025d00  ti_sysbios_heaps_HeapMem_Module__diagsMask__C                        
00025d04  ti_sysbios_heaps_HeapMem_Module__gateObj__C                          
00025eda  ti_sysbios_heaps_HeapMem_Module__id__C                               
080216e0  ti_sysbios_heaps_HeapMem_Module__root__V                             
00025a78  ti_sysbios_heaps_HeapMem_Object__DESC__C                             
00025990  ti_sysbios_heaps_HeapMem_Object__PARAMS__C                           
00025d08  ti_sysbios_heaps_HeapMem_Object__count__C                            
00022d21  ti_sysbios_heaps_HeapMem_Object__create__S                           
00023e41  ti_sysbios_heaps_HeapMem_Object__delete__S                           
00024985  ti_sysbios_heaps_HeapMem_Object__get__S                              
080215d8  ti_sysbios_heaps_HeapMem_Object__table__V                            
0000c851  ti_sysbios_heaps_HeapMem_allocUnprotected__E                         
0001fe01  ti_sysbios_heaps_HeapMem_alloc__E                                    
0000a461  ti_sysbios_heaps_HeapMem_freeUnprotected__E                          
00022d51  ti_sysbios_heaps_HeapMem_free__E                                     
00020ae1  ti_sysbios_heaps_HeapMem_getStats__E                                 
00022541  ti_sysbios_heaps_HeapMem_init__I                                     
00024cd1  ti_sysbios_heaps_HeapMem_isBlocking__E                               
00025d0c  ti_sysbios_heaps_HeapMem_reqAlign__C                                 
00025d10  ti_sysbios_knl_Clock_LM_begin__C                                     
00025d14  ti_sysbios_knl_Clock_LM_tick__C                                      
00025d18  ti_sysbios_knl_Clock_LW_delayed__C                                   
00025d1c  ti_sysbios_knl_Clock_Module_State_clockQ__O                          
00025d20  ti_sysbios_knl_Clock_Module__diagsEnabled__C                         
00025d24  ti_sysbios_knl_Clock_Module__diagsIncluded__C                        
00025d28  ti_sysbios_knl_Clock_Module__diagsMask__C                            
00025edc  ti_sysbios_knl_Clock_Module__id__C                                   
00025ede  ti_sysbios_knl_Clock_Module__loggerDefined__C                        
00025d2c  ti_sysbios_knl_Clock_Module__loggerFxn1__C                           
00025d30  ti_sysbios_knl_Clock_Module__loggerFxn2__C                           
00025d34  ti_sysbios_knl_Clock_Module__loggerObj__C                            
080213a8  ti_sysbios_knl_Clock_Module__state__V                                
00023b61  ti_sysbios_knl_Clock_Module_startup__E                               
080214b0  ti_sysbios_knl_Clock_Object__table__V                                
00024719  ti_sysbios_knl_Clock_TimerProxy_Module__startupDone__S               
000241fd  ti_sysbios_knl_Clock_TimerProxy_getMaxTicks__E                       
00019551  ti_sysbios_knl_Clock_TimerProxy_startup__E                           
00023191  ti_sysbios_knl_Clock_doTick__I                                       
0001fb31  ti_sysbios_knl_Clock_logTick__E                                      
00012cc1  ti_sysbios_knl_Clock_workFunc__E                                     
00025c04  ti_sysbios_knl_Idle_funcList__A                                      
00025c10  ti_sysbios_knl_Idle_funcList__C                                      
000247d1  ti_sysbios_knl_Idle_loop__E                                          
00023501  ti_sysbios_knl_Idle_run__E                                           
000148f4  ti_sysbios_knl_Intrinsics_SupportProxy_maxbit__E                     
000148f4  ti_sysbios_knl_Intrinsics_maxbit__E                                  
00024ce1  ti_sysbios_knl_Queue_Instance_init__E                                
080216e8  ti_sysbios_knl_Queue_Module__root__V                                 
00025a98  ti_sysbios_knl_Queue_Object__DESC__C                                 
00025b48  ti_sysbios_knl_Queue_Object__PARAMS__C                               
00019ec5  ti_sysbios_knl_Queue_Object__get__S                                  
000231bd  ti_sysbios_knl_Queue_construct                                       
0002423d  ti_sysbios_knl_Queue_destruct                                        
00024bf1  ti_sysbios_knl_Queue_empty__E                                        
00025d38  ti_sysbios_knl_Semaphore_A_badContext__C                             
00025d3c  ti_sysbios_knl_Semaphore_A_noEvents__C                               
00025d40  ti_sysbios_knl_Semaphore_A_overflow__C                               
00025d44  ti_sysbios_knl_Semaphore_A_pendTaskDisabled__C                       
00025d48  ti_sysbios_knl_Semaphore_Instance_State_pendQ__O                     
00024b71  ti_sysbios_knl_Semaphore_Instance_finalize__E                        
0001bb21  ti_sysbios_knl_Semaphore_Instance_init__E                            
00025d4c  ti_sysbios_knl_Semaphore_LM_pend__C                                  
00025d50  ti_sysbios_knl_Semaphore_LM_post__C                                  
00025d54  ti_sysbios_knl_Semaphore_Module__diagsEnabled__C                     
00025d58  ti_sysbios_knl_Semaphore_Module__diagsIncluded__C                    
00025d5c  ti_sysbios_knl_Semaphore_Module__diagsMask__C                        
00025ee0  ti_sysbios_knl_Semaphore_Module__id__C                               
00025ee2  ti_sysbios_knl_Semaphore_Module__loggerDefined__C                    
00025d60  ti_sysbios_knl_Semaphore_Module__loggerFxn2__C                       
00025d64  ti_sysbios_knl_Semaphore_Module__loggerFxn4__C                       
00025d68  ti_sysbios_knl_Semaphore_Module__loggerObj__C                        
080216f0  ti_sysbios_knl_Semaphore_Module__root__V                             
00025ab8  ti_sysbios_knl_Semaphore_Object__DESC__C                             
000259b4  ti_sysbios_knl_Semaphore_Object__PARAMS__C                           
00023b85  ti_sysbios_knl_Semaphore_Object__delete__S                           
000246c5  ti_sysbios_knl_Semaphore_Params__init__S                             
00022d81  ti_sysbios_knl_Semaphore_construct                                   
000229f5  ti_sysbios_knl_Semaphore_create                                      
0002421d  ti_sysbios_knl_Semaphore_delete                                      
00023e61  ti_sysbios_knl_Semaphore_destruct                                    
00022ea1  ti_sysbios_knl_Semaphore_pendTimeout__I                              
000090e1  ti_sysbios_knl_Semaphore_pend__E                                     
00010f81  ti_sysbios_knl_Semaphore_post__E                                     
00025d6c  ti_sysbios_knl_Task_A_badPriority__C                                 
00025d70  ti_sysbios_knl_Task_A_badTaskState__C                                
00025d74  ti_sysbios_knl_Task_A_badThreadType__C                               
00025d78  ti_sysbios_knl_Task_A_badTimeout__C                                  
00025d7c  ti_sysbios_knl_Task_A_noPendElem__C                                  
00025d80  ti_sysbios_knl_Task_A_sleepTaskDisabled__C                           
00025d84  ti_sysbios_knl_Task_E_spOutOfBounds__C                               
00025d88  ti_sysbios_knl_Task_E_stackOverflow__C                               
0801fc18  ti_sysbios_knl_Task_Instance_State_0_hookEnv__A                      
0801f1e8  ti_sysbios_knl_Task_Instance_State_0_stack__A                        
000093e1  ti_sysbios_knl_Task_Instance_finalize__E                             
0000dae1  ti_sysbios_knl_Task_Instance_init__E                                 
00025d8c  ti_sysbios_knl_Task_LD_block__C                                      
00025d90  ti_sysbios_knl_Task_LD_exit__C                                       
00025d94  ti_sysbios_knl_Task_LD_ready__C                                      
00025d98  ti_sysbios_knl_Task_LM_sleep__C                                      
00025d9c  ti_sysbios_knl_Task_LM_switch__C                                     
0802176c  ti_sysbios_knl_Task_Module_State_0_idleTask__A                       
08020f18  ti_sysbios_knl_Task_Module_State_0_readyQ__A                         
00025da0  ti_sysbios_knl_Task_Module_State_inactiveQ__O                        
00025da4  ti_sysbios_knl_Task_Module__diagsEnabled__C                          
00025da8  ti_sysbios_knl_Task_Module__diagsIncluded__C                         
00025dac  ti_sysbios_knl_Task_Module__diagsMask__C                             
00025ee4  ti_sysbios_knl_Task_Module__id__C                                    
00025ee6  ti_sysbios_knl_Task_Module__loggerDefined__C                         
00025db0  ti_sysbios_knl_Task_Module__loggerFxn2__C                            
00025db4  ti_sysbios_knl_Task_Module__loggerFxn4__C                            
00025db8  ti_sysbios_knl_Task_Module__loggerObj__C                             
08021694  ti_sysbios_knl_Task_Module__root__V                                  
080211dc  ti_sysbios_knl_Task_Module__state__V                                 
0001a871  ti_sysbios_knl_Task_Module_startup__E                                
00025ad8  ti_sysbios_knl_Task_Object__DESC__C                                  
00025718  ti_sysbios_knl_Task_Object__PARAMS__C                                
00025dbc  ti_sysbios_knl_Task_Object__count__C                                 
00024b81  ti_sysbios_knl_Task_Object__get__S                                   
00025dc0  ti_sysbios_knl_Task_Object__heap__C                                  
08021088  ti_sysbios_knl_Task_Object__table__V                                 
000246dd  ti_sysbios_knl_Task_Params__init__S                                  
000219bd  ti_sysbios_knl_Task_SupportProxy_Module__startupDone__S              
00024c01  ti_sysbios_knl_Task_SupportProxy_checkStack__E                       
00024c11  ti_sysbios_knl_Task_SupportProxy_getStackAlignment__E                
00023d61  ti_sysbios_knl_Task_SupportProxy_stackUsed__E                        
00022c91  ti_sysbios_knl_Task_SupportProxy_start__E                            
00024188  ti_sysbios_knl_Task_SupportProxy_swap__E                             
00025dc4  ti_sysbios_knl_Task_allBlockedFunc__C                                
00021a11  ti_sysbios_knl_Task_allBlockedFunction__I                            
0001b631  ti_sysbios_knl_Task_blockI__E                                        
000188e1  ti_sysbios_knl_Task_checkStacks__E                                   
000212ad  ti_sysbios_knl_Task_create                                           
00025dc8  ti_sysbios_knl_Task_defaultStackHeap__C                              
00025dcc  ti_sysbios_knl_Task_defaultStackSize__C                              
00024b91  ti_sysbios_knl_Task_disable__E                                       
00024701  ti_sysbios_knl_Task_enter__I                                         
000164e1  ti_sysbios_knl_Task_exit__E                                          
00025b60  ti_sysbios_knl_Task_hooks__A                                         
00025c18  ti_sysbios_knl_Task_hooks__C                                         
00025dd0  ti_sysbios_knl_Task_numConstructedTasks__C                           
00011ac1  ti_sysbios_knl_Task_postInit__I                                      
00024261  ti_sysbios_knl_Task_restoreHwi__E                                    
00015291  ti_sysbios_knl_Task_schedule__I                                      
000247f1  ti_sysbios_knl_Task_sleepTimeout__I                                  
0000d4d1  ti_sysbios_knl_Task_sleep__E                                         
00016ab1  ti_sysbios_knl_Task_startCore__E                                     
00024d21  ti_sysbios_knl_Task_startup__E                                       
00021301  ti_sysbios_knl_Task_stat__E                                          
0001cb81  ti_sysbios_knl_Task_unblockI__E                                      
00025dd4  ti_sysbios_timers_rti_Timer_E_cannotSupport__C                       
080215f0  ti_sysbios_timers_rti_Timer_Module_State_0_device__A                 
080216f8  ti_sysbios_timers_rti_Timer_Module_State_0_handles__A                
08021650  ti_sysbios_timers_rti_Timer_Module_State_0_intFreqs__A               
00025dd8  ti_sysbios_timers_rti_Timer_Module__diagsEnabled__C                  
00025ddc  ti_sysbios_timers_rti_Timer_Module__diagsIncluded__C                 
00025de0  ti_sysbios_timers_rti_Timer_Module__diagsMask__C                     
00025ee8  ti_sysbios_timers_rti_Timer_Module__id__C                            
00024719  ti_sysbios_timers_rti_Timer_Module__startupDone__F                   
00024719  ti_sysbios_timers_rti_Timer_Module__startupDone__S                   
08021660  ti_sysbios_timers_rti_Timer_Module__state__V                         
0000ca81  ti_sysbios_timers_rti_Timer_Module_startup__E                        
080212a4  ti_sysbios_timers_rti_Timer_Object__table__V                         
00025eea  ti_sysbios_timers_rti_Timer_continueOnSuspend__C                     
00015ce1  ti_sysbios_timers_rti_Timer_getFreq__E                               
00024d31  ti_sysbios_timers_rti_Timer_getMaxTicks__E                           
0001dc61  ti_sysbios_timers_rti_Timer_initDevice__I                            
00025de4  ti_sysbios_timers_rti_Timer_numTimerDevices__C                       
000231f1  ti_sysbios_timers_rti_Timer_periodicStub__E                          
00025de8  ti_sysbios_timers_rti_Timer_startupNeeded__C                         
00019551  ti_sysbios_timers_rti_Timer_startup__E                               
00021e01  ti_sysbios_timers_rti_Timer_stop__E                                  
00025dec  ti_sysbios_utils_Load_LS_cpuLoad__C                                  
00025df0  ti_sysbios_utils_Load_LS_taskLoad__C                                 
08021770  ti_sysbios_utils_Load_Module_State_0_runningTask__A                  
0802152c  ti_sysbios_utils_Load_Module_State_0_taskEnv__A                      
08021774  ti_sysbios_utils_Load_Module_State_0_taskStartTime__A                
00025df4  ti_sysbios_utils_Load_Module_State_taskList__O                       
00025df8  ti_sysbios_utils_Load_Module__diagsEnabled__C                        
00025dfc  ti_sysbios_utils_Load_Module__diagsIncluded__C                       
00025e00  ti_sysbios_utils_Load_Module__diagsMask__C                           
00025eec  ti_sysbios_utils_Load_Module__id__C                                  
00025eee  ti_sysbios_utils_Load_Module__loggerDefined__C                       
00025e04  ti_sysbios_utils_Load_Module__loggerFxn1__C                          
00025e08  ti_sysbios_utils_Load_Module__loggerFxn4__C                          
00025e0c  ti_sysbios_utils_Load_Module__loggerObj__C                           
08020e80  ti_sysbios_utils_Load_Module__state__V                               
00025ef0  ti_sysbios_utils_Load_autoAddTasks__C                                
00024c41  ti_sysbios_utils_Load_getCPULoad__E                                  
00018271  ti_sysbios_utils_Load_idleFxn__E                                     
0001fba1  ti_sysbios_utils_Load_logCPULoad__I                                  
00017f21  ti_sysbios_utils_Load_logLoads__I                                    
00025e10  ti_sysbios_utils_Load_postUpdate__C                                  
0001a921  ti_sysbios_utils_Load_startup__E                                     
00016ba1  ti_sysbios_utils_Load_taskCreateHook__E                              
0001c121  ti_sysbios_utils_Load_taskDeleteHook__E                              
00024c51  ti_sysbios_utils_Load_taskRegHook__E                                 
00021351  ti_sysbios_utils_Load_taskSwitchHook__E                              
00020261  ti_sysbios_utils_Load_updateCurrentThreadTime__E                     
00025ef2  ti_sysbios_utils_Load_updateInIdle__C                                
0001a251  ti_sysbios_utils_Load_updateLoads__E                                 
00014101  ti_sysbios_utils_Load_updateThreadContexts__E                        
0001a251  ti_sysbios_utils_Load_update__E                                      
00025e14  ti_sysbios_utils_Load_windowInMs__C                                  
00023139  unlink                                                               
0001d2ad  vsnprintf                                                            
0001880d  vsscanf                                                              
000234d5  write                                                                
00025e18  xdc_runtime_Assert_E_assertFailed__C                                 
0001fe61  xdc_runtime_Assert_raise__I                                          
00025e1c  xdc_runtime_Core_A_initializedParams__C                              
00025e20  xdc_runtime_Core_Module__diagsEnabled__C                             
00025e24  xdc_runtime_Core_Module__diagsIncluded__C                            
00025e28  xdc_runtime_Core_Module__diagsMask__C                                
00025ef4  xdc_runtime_Core_Module__id__C                                       
00020b41  xdc_runtime_Core_assignLabel__I                                      
00021431  xdc_runtime_Core_assignParams__I                                     
000153a1  xdc_runtime_Core_constructObject__I                                  
00012b81  xdc_runtime_Core_createObject__I                                     
0001e151  xdc_runtime_Core_deleteObject__I                                     
00025e2c  xdc_runtime_Error_E_memory__C                                        
080214d0  xdc_runtime_Error_IgnoreBlock                                        
00025e30  xdc_runtime_Error_Module__diagsEnabled__C                            
00025e34  xdc_runtime_Error_Module__diagsIncluded__C                           
00025e38  xdc_runtime_Error_Module__diagsMask__C                               
00025ef6  xdc_runtime_Error_Module__loggerDefined__C                           
00025e3c  xdc_runtime_Error_Module__loggerFxn8__C                              
00025e40  xdc_runtime_Error_Module__loggerObj__C                               
0802177c  xdc_runtime_Error_Module__state__V                                   
00024731  xdc_runtime_Error_init__E                                            
00025ef8  xdc_runtime_Error_maxDepth__C                                        
0000fd11  xdc_runtime_Error_policyDefault__E                                   
00025e44  xdc_runtime_Error_policyFxn__C                                       
00025e48  xdc_runtime_Error_policy__C                                          
0001eda1  xdc_runtime_Error_print__E                                           
00025e4c  xdc_runtime_Error_raiseHook__C                                       
00025e50  xdc_runtime_IFilterLogger_Interface__BASE__C                         
00025e54  xdc_runtime_IGateProvider_Interface__BASE__C                         
00025e58  xdc_runtime_IHeap_Interface__BASE__C                                 
00025e5c  xdc_runtime_ILogger_Interface__BASE__C                               
00025e60  xdc_runtime_IModule_Interface__BASE__C                               
00025e64  xdc_runtime_Log_L_error__C                                           
00025e68  xdc_runtime_LoggerBuf_E_badLevel__C                                  
00024749  xdc_runtime_LoggerBuf_Handle__label__S                               
0801c400  xdc_runtime_LoggerBuf_Instance_State_0_entryArr__A                   
00024281  xdc_runtime_LoggerBuf_Instance_finalize__E                           
00018341  xdc_runtime_LoggerBuf_Instance_init__E                               
0002467d  xdc_runtime_LoggerBuf_Module_GateProxy_Handle__label__S              
0002427d  xdc_runtime_LoggerBuf_Module_GateProxy_enter__E                      
00024bed  xdc_runtime_LoggerBuf_Module_GateProxy_leave__E                      
00024d01  xdc_runtime_LoggerBuf_Module_GateProxy_query__E                      
000257d8  xdc_runtime_LoggerBuf_Module__FXNS__C                                
00025e6c  xdc_runtime_LoggerBuf_Module__gateObj__C                             
00025efa  xdc_runtime_LoggerBuf_Module__id__C                                  
08021700  xdc_runtime_LoggerBuf_Module__root__V                                
08021720  xdc_runtime_LoggerBuf_Module__state__V                               
00021a61  xdc_runtime_LoggerBuf_Module_startup__E                              
00025af8  xdc_runtime_LoggerBuf_Object__DESC__C                                
000258fc  xdc_runtime_LoggerBuf_Object__PARAMS__C                              
00025e70  xdc_runtime_LoggerBuf_Object__count__C                               
0002170d  xdc_runtime_LoggerBuf_Object__create__S                              
00023e81  xdc_runtime_LoggerBuf_Object__delete__S                              
00024999  xdc_runtime_LoggerBuf_Object__get__S                                 
08021468  xdc_runtime_LoggerBuf_Object__table__V                               
00024c8b  xdc_runtime_LoggerBuf_TimestampProxy_get32__E                        
000229c1  xdc_runtime_LoggerBuf_TimestampProxy_get64__E                        
00024ac1  xdc_runtime_LoggerBuf_TimestampProxy_getFreq__E                      
00024c81  xdc_runtime_LoggerBuf_disable__E                                     
00024c91  xdc_runtime_LoggerBuf_enable__E                                      
00025efc  xdc_runtime_LoggerBuf_filterByLevel__C                               
0001cc11  xdc_runtime_LoggerBuf_getFilterLevel__E                              
00019ed1  xdc_runtime_LoggerBuf_setFilterLevel__E                              
00025e74  xdc_runtime_LoggerBuf_statusLogger__C                                
00024ba1  xdc_runtime_LoggerBuf_write0__E                                      
00024a41  xdc_runtime_LoggerBuf_write1__E                                      
00024a61  xdc_runtime_LoggerBuf_write2__E                                      
000145a1  xdc_runtime_LoggerBuf_write4__E                                      
00010981  xdc_runtime_LoggerBuf_write8__E                                      
0002467d  xdc_runtime_Main_Module_GateProxy_Handle__label__S                   
00024d01  xdc_runtime_Main_Module_GateProxy_query__E                           
00025e78  xdc_runtime_Main_Module__diagsEnabled__C                             
00025e7c  xdc_runtime_Main_Module__diagsIncluded__C                            
00025e80  xdc_runtime_Main_Module__diagsMask__C                                
00025efe  xdc_runtime_Main_Module__id__C                                       
00025f00  xdc_runtime_Main_Module__loggerDefined__C                            
00025e84  xdc_runtime_Main_Module__loggerFxn1__C                               
00025e88  xdc_runtime_Main_Module__loggerFxn2__C                               
00025e8c  xdc_runtime_Main_Module__loggerFxn4__C                               
00025e90  xdc_runtime_Main_Module__loggerObj__C                                
0802177e  xdc_runtime_Main_Module__root__V                                     
000246ad  xdc_runtime_Memory_HeapProxy_Handle__label__S                        
000246f5  xdc_runtime_Memory_HeapProxy_alloc__E                                
000247e7  xdc_runtime_Memory_HeapProxy_free__E                                 
00024ab5  xdc_runtime_Memory_HeapProxy_getStats__E                             
00025f02  xdc_runtime_Memory_Module__id__C                                     
08021778  xdc_runtime_Memory_Module__state__V                                  
0001d111  xdc_runtime_Memory_alloc__E                                          
00025e94  xdc_runtime_Memory_defaultHeapInstance__C                            
00024bb1  xdc_runtime_Memory_free__E                                           
00024bc1  xdc_runtime_Memory_getStats__E                                       
08021708  xdc_runtime_Registry_Module__state__V                                
08021710  xdc_runtime_Startup_Module__state__V                                 
00000001  xdc_runtime_Startup__EXECFXN__C                                      
00000001  xdc_runtime_Startup__RESETFXN__C                                     
00025e98  xdc_runtime_Startup_execImpl__C                                      
0001fc11  xdc_runtime_Startup_exec__E                                          
00024a73  xdc_runtime_Startup_exec__I                                          
00025c20  xdc_runtime_Startup_firstFxns__A                                     
00025c28  xdc_runtime_Startup_firstFxns__C                                     
00025c30  xdc_runtime_Startup_lastFxns__C                                      
00025e9c  xdc_runtime_Startup_maxPasses__C                                     
0000dedb  xdc_runtime_Startup_reset__I                                         
00024c61  xdc_runtime_Startup_rtsDone__E                                       
00025b78  xdc_runtime_Startup_sfxnRts__A                                       
00025ea0  xdc_runtime_Startup_sfxnRts__C                                       
0002587c  xdc_runtime_Startup_sfxnTab__A                                       
00025ea4  xdc_runtime_Startup_sfxnTab__C                                       
00013541  xdc_runtime_Startup_startMods__I                                     
00023531  xdc_runtime_SysStd_abort__E                                          
00024c71  xdc_runtime_SysStd_exit__E                                           
00024d41  xdc_runtime_SysStd_putch__E                                          
00024d51  xdc_runtime_SysStd_ready__E                                          
0002467d  xdc_runtime_System_Module_GateProxy_Handle__label__S                 
00024c0d  xdc_runtime_System_Module_GateProxy_enter__E                         
00024c1d  xdc_runtime_System_Module_GateProxy_leave__E                         
00024d01  xdc_runtime_System_Module_GateProxy_query__E                         
080214f0  xdc_runtime_System_Module_State_0_atexitHandlers__A                  
00025ea8  xdc_runtime_System_Module__gateObj__C                                
08021718  xdc_runtime_System_Module__state__V                                  
00024cf1  xdc_runtime_System_Module_startup__E                                 
00023531  xdc_runtime_System_SupportProxy_abort__E                             
00024c71  xdc_runtime_System_SupportProxy_exit__E                              
00024d41  xdc_runtime_System_SupportProxy_putch__E                             
00024d51  xdc_runtime_System_SupportProxy_ready__E                             
00025eac  xdc_runtime_System_abortFxn__C                                       
00020e6d  xdc_runtime_System_abortStd__E                                       
000243ef  xdc_runtime_System_aprintf__E                                        
00023561  xdc_runtime_System_aprintf_va__F                                     
00021ab1  xdc_runtime_System_atexit__E                                         
000056a1  xdc_runtime_System_doPrint__I                                        
00025eb0  xdc_runtime_System_exitFxn__C                                        
00020e75  xdc_runtime_System_exitStd__E                                        
00020f11  xdc_runtime_System_exit__E                                           
00025eb4  xdc_runtime_System_extendFxn__C                                      
00025eb8  xdc_runtime_System_maxAtexitHandlers__C                              
000167cd  xdc_runtime_System_printfExtend__I                                   
00024409  xdc_runtime_System_printf__E                                         
00023811  xdc_runtime_System_printf_va__F                                      
00025f04  xdc_runtime_Text_charCnt__C                                          
00025479  xdc_runtime_Text_charTab__A                                          
00025ebc  xdc_runtime_Text_charTab__C                                          
00025f06  xdc_runtime_Text_isLoaded__C                                         
00025ec0  xdc_runtime_Text_nameEmpty__C                                        
00025ec4  xdc_runtime_Text_nameStatic__C                                       
00025ec8  xdc_runtime_Text_nameUnknown__C                                      
00022db1  xdc_runtime_Text_printVisFxn__I                                      
0001fec1  xdc_runtime_Text_putLab__E                                           
0001a301  xdc_runtime_Text_putMod__E                                           
0001b441  xdc_runtime_Text_putSite__E                                          
00025f08  xdc_runtime_Text_registryModsLastId__C                               
00025f0a  xdc_runtime_Text_unnamedModsLastId__C                                
00025ecc  xdc_runtime_Text_visitRopeFxn__C                                     
0001fdf9  xdc_runtime_Text_visitRope__I                                        
00021481  xdc_runtime_Text_xprintf__I                                          
00024c8b  xdc_runtime_Timestamp_SupportProxy_get32__E                          
000229c1  xdc_runtime_Timestamp_SupportProxy_get64__E                          
00024ac1  xdc_runtime_Timestamp_SupportProxy_getFreq__E                        
00024c8b  xdc_runtime_Timestamp_get32__E                                       
000229c1  xdc_runtime_Timestamp_get64__E                                       
00024ac1  xdc_runtime_Timestamp_getFreq__E                                     


GLOBAL SYMBOLS: SORTED BY Symbol Address 

address   name                                                                 
-------   ----                                                                 
00000000  __ASM__                                                              
00000000  ti_sysbios_family_arm_v7r_vim_Hwi_vectors                            
00000001  xdc_runtime_Startup__EXECFXN__C                                      
00000001  xdc_runtime_Startup__RESETFXN__C                                     
0000006d  __ISA__                                                              
0000007f  __PLAT__                                                             
000000a3  __TARG__                                                             
000000ca  __TRDR__                                                             
000004b0  __STACK_SIZE                                                         
000008c5  __TI_printfi                                                         
0000117b  ADCBUF_MMWave_init                                                   
0000117d  __TI_scanfi                                                          
00001a15  MmwDemo_dataPathConfig                                               
000021d3  HWA_init                                                             
000021d5  MmwDemo_CLIInit                                                      
00002875  DPU_DopplerProcHWA_config                                            
00002ee5  HWA_configParamSet                                                   
0000353d  __kernel_rem_pio2                                                    
00004c39  DPU_RangeProcHWA_process                                             
0000569d  DPU_AoAProcHWA_getNumHwaParamSets                                    
000056a1  xdc_runtime_System_doPrint__I                                        
00005b85  ADCBUF_MMWave_control                                                
0000602d  MmwDemo_initTask                                                     
00006901  DPU_RangeProcHWA_config                                              
00007553  __aeabi_idiv0                                                        
00007555  cos                                                                  
00007555  cosl                                                                 
00007949  sin                                                                  
00007949  sinl                                                                 
00007d3d  DPU_AoAProcHWA_process                                               
000084b5  MmwDemo_transmitProcessedOutput                                      
000087c9  SOC_deviceInit                                                       
00008de1  CBUFF_createSession                                                  
000090e1  ti_sysbios_knl_Semaphore_pend__E                                     
000093d5  EDMA3ChannelToParamMap                                               
000093e1  ti_sysbios_knl_Task_Instance_finalize__E                             
000096ad  HWA_configCommon                                                     
0000a1a4  __aeabi_uldivmod                                                     
0000a45d  EDMA_getNumInstances                                                 
0000a461  ti_sysbios_heaps_HeapMem_freeUnprotected__E                          
0000a99d  MMWave_deviceExecuteFxn                                              
0000aea5  HSIHeader_createHeader                                               
0000b125  EDMAsetRegion                                                        
0000b131  ti_sysbios_family_arm_exc_Exception_excDumpContext__I                
0000b3b1  CBUFF_init                                                           
0000b875  Mailbox_open                                                         
0000bad5  MmwDemo_sensorStopEpilog                                             
0000bf85  MmwDemo_LVDSStreamHwConfig                                           
0000c1c5  CBUFF_openLVDS                                                       
0000c61d  MmwDemo_checkEdmaErrors                                              
0000c851  ti_sysbios_heaps_HeapMem_allocUnprotected__E                         
0000ca81  ti_sysbios_timers_rti_Timer_Module_startup__E                        
0000d0c3  ti_sysbios_BIOS_nullFunc__I                                          
0000d4cd  HwiP_disableInterrupt                                                
0000d4d1  ti_sysbios_knl_Task_sleep__E                                         
0000d6d5  CRC_open                                                             
0000d8d5  MmwDemo_eventCallbackFxn                                             
0000dad5  MMWave_osalMutexUnlock                                               
0000dae1  ti_sysbios_knl_Task_Instance_init__E                                 
0000dedb  xdc_runtime_Startup_reset__I                                         
0000dedd  DMA_setChannelParams                                                 
0000e0cd  AoAProcHWA_peakGrouping                                              
0000e2b5  strtod                                                               
0000e2b5  strtold                                                              
0000e499  strtoll                                                              
0000e67d  DPU_AoAProcHWA_config                                                
0000e859  CBUFF_configEDMA                                                     
0000ea2d  HwiP_enableInterrupt                                                 
0000ea31  ti_sysbios_family_arm_v7r_vim_Hwi_dispatchIRQC__I                    
0000ebfd  CBUFF_initLVDS                                                       
0000edc5  rlDriverRxHdrRead                                                    
0000f057  __TI_cleanup                                                         
0000f083  freopen                                                              
0000f0ad  fopen                                                                
0000f155  EDMA_open                                                            
0000f315  AoAProcHWA_XYZestimationAoA2D                                        
0000f4c9  rlDriverMsgRead                                                      
0000f679  CBUFF_activateSession                                                
0000fd11  xdc_runtime_Error_policyDefault__E                                   
0000fead  MMWave_openLink                                                      
00010041  rlDriverCmdInvoke                                                    
000101d1  DPU_StaticClutterProc_process                                        
0001035d  DPU_CFARCAProcHWA_process                                            
000104e5  EDMA_configChannel                                                   
0001066d  HWA_open                                                             
00010981  xdc_runtime_LoggerBuf_write8__E                                      
00010b05  DPM_init                                                             
00010c85  DPM_msgRecv                                                          
00010e05  GPIO_setConfig                                                       
00010f75  MMWave_osalSemSignal                                                 
00010f81  ti_sysbios_knl_Semaphore_post__E                                     
00011259  MmwDemo_LVDSStreamInit                                               
000113c1  MmwDemo_openSensor                                                   
00011531  ti_sysbios_family_arm_exc_Exception_excHandler__I                    
00011699  MmwDemo_LVDSStreamSwConfig                                           
000117fd  strtoull                                                             
00011961  ti_sysbios_family_arm_v7r_vim_Hwi_reconfig__E                        
00011ac1  ti_sysbios_knl_Task_postInit__I                                      
00011ffd  MmwDemo_startSensor                                                  
00012293  DPU_StaticClutterProc_configEdma                                     
000123dd  HSIHeader_init                                                       
00012525  rlDriverCmdSendRetry                                                 
000128f9  MmwDemo_LVDSStreamDeleteHwSession                                    
00012a41  ti_sysbios_heaps_HeapMem_Instance_init__E                            
00012b81  xdc_runtime_Core_createObject__I                                     
00012cc1  ti_sysbios_knl_Clock_workFunc__E                                     
00012dfd  ADCBUF_MMWave_open                                                   
00012f31  CFARHWA_cfarRange_AND_cfarDoppler                                    
00013065  DPU_CFARCAProcHWA_config                                             
00013199  MmwDemo_LVDSStreamDeleteSwSession                                    
000132cd  MmwDemo_transferLVDSUserData                                         
00013401  main                                                                 
00013535  UART_Params_init                                                     
00013541  xdc_runtime_Startup_startMods__I                                     
00013675  AoAProcHWA_PrepareRangeAzimuthHeatmap                                
000137a9  strtol                                                               
000138d9  HWAutil_configCFAR                                                   
00013a05  MmwDemo_MMWave_stop                                                  
00013c5d  AoAProc_configLUT                                                    
00013d89  MmwDemo_edmaOpen                                                     
00013eb1  MmwDemo_stopSensor                                                   
00013fd9  mathUtils_genWindow                                                  
00014101  ti_sysbios_utils_Load_updateThreadContexts__E                        
00014471  EDMA_init                                                            
00014595  UartSci_isDMAEnabled                                                 
000145a1  xdc_runtime_LoggerBuf_write4__E                                      
000147dd  MmwDemo_dataPathStart                                                
000148f4  ti_sysbios_family_arm_IntrinsicsSupport_maxbitA__I                   
000148f4  ti_sysbios_family_arm_IntrinsicsSupport_maxbit__E                    
000148f4  ti_sysbios_knl_Intrinsics_SupportProxy_maxbit__E                     
000148f4  ti_sysbios_knl_Intrinsics_maxbit__E                                  
00014901  ti_sysbios_family_arm_v7r_vim_Hwi_Instance_init__E                   
00014a19  EDMA_configErrorMonitoring                                           
00014d4d  strtoul                                                              
00014e5d  DPEDMA_configSyncAB                                                  
00015181  MMWave_deviceInitFxn                                                 
00015291  ti_sysbios_knl_Task_schedule__I                                      
0001539d  MMWave_listGetHead                                                   
000153a1  xdc_runtime_Core_constructObject__I                                  
000154ad  DMA_disableInterrupt                                                 
000155b5  Mailbox_write                                                        
000157c5  CBUFF_deinit                                                         
000158c9  DPEDMA_configSyncA_singleFrame                                       
000159cd  MMWave_startLink                                                     
00015cd9  HwiP_disable                                                         
00015ce1  ti_sysbios_timers_rti_Timer_getFreq__E                               
00015ee5  DMA_clearChannelInterruptFlag                                        
00015fe5  rlDriverInit                                                         
000160e5  CBUFF_deleteSession                                                  
000161e1  CRC_computeSignature                                                 
000163d9  MmwDemo_configLVDSHwData                                             
000164d5  __TI_zero_init                                                       
000164e1  ti_sysbios_knl_Task_exit__E                                          
000166d5  rlDriverRdVerifyMsg                                                  
000167cd  xdc_runtime_System_printfExtend__I                                   
000169b9  MMWave_decodeErrorLevel                                              
000169c1  ti_sysbios_family_arm_v7r_vim_Hwi_Module_startup__E                  
00016ab1  ti_sysbios_knl_Task_startCore__E                                     
00016ba1  ti_sysbios_utils_Load_taskCreateHook__E                              
00016c91  DPU_AoAProcHWA_init                                                  
00016d7d  ldexp                                                                
00016d7d  ldexpl                                                               
00016d7d  scalbn                                                               
00016d7d  scalbnl                                                              
00016e71  ti_sysbios_heaps_HeapBuf_Module_startup__E                           
00016f5d  DPEDMAHWA_configTwoHotSignature                                      
00017135  DPU_DopplerProcHWA_process                                           
000173e9  rlRfPhShiftCalibDataRestore                                          
000175b1  CLI_open                                                             
00017691  DMA_enableInterrupt                                                  
00017771  DPU_CFARCAProcHWA_control                                            
00017851  floor                                                                
00017851  floorl                                                               
00017931  MMWave_init                                                          
00017a0d  rlDriverMsgCmdReply                                                  
00017ae9  setvbuf                                                              
00017bc5  DPU_DopplerProcHWA_init                                              
00017c99  Mailbox_read                                                         
00017e41  rlSetMultiBpmChirpConfig                                             
00017f15  rlDriverGetPlatformId                                                
00017f21  ti_sysbios_utils_Load_logLoads__I                                    
00017ff5  DPU_RangeProcHWA_control                                             
000180c5  SOC_controlSecureFirewall                                            
00018194  ti_sysbios_family_arm_exc_Exception_excHandlerAsm__I                 
000181fc  ti_sysbios_family_arm_exc_Exception_excHandlerDataAsm__I             
00018264  ti_sysbios_family_arm_v7a_Pmu_configureCounterI__I                   
00018271  ti_sysbios_utils_Load_idleFxn__E                                     
00018341  xdc_runtime_LoggerBuf_Instance_init__E                               
000184dd  HWA_enableParamSetInterrupt                                          
000185a9  rlRfCalibDataRestore                                                 
00018675  rlSetChirpConfig                                                     
00018741  __TI_doflush                                                         
0001878d  fflush                                                               
0001880d  vsscanf                                                              
0001881f  sscanf                                                               
000188d9  MemoryP_getStats                                                     
000188e1  ti_sysbios_knl_Task_checkStacks__E                                   
000189ad  DPEDMAHWA_configOneHotSignature                                      
00018a79  MMWave_addChirp                                                      
00018b41  MMWave_configBPM                                                     
00018c09  MMWave_flushCfg                                                      
00018cd1  MMWave_getChirpHandle                                                
00018d99  SOC_ungateClock                                                      
00018e61  rlSetFrameConfig                                                     
00018f29  AoAProcHWA_SelectMaxPeaks                                            
00018fed  CBUFF_setupNonInterleaved_CP_ADC_CQ                                  
000190b1  DPM_deinit                                                           
00019175  DPM_ioctl                                                            
00019239  MmwDemo_dataPathObjInit                                              
00019241  ti_sysbios_family_arm_v7a_Pmu_configureCounter__E                    
00019305  DPU_RangeProcHWA_init                                                
00019485  rlDriverMsgWrite                                                     
00019544  ti_sysbios_family_arm_v7a_Pmu_getCountI__E                           
00019551  ti_sysbios_knl_Clock_TimerProxy_startup__E                           
00019551  ti_sysbios_timers_rti_Timer_startup__E                               
000196cd  GPIO_write                                                           
00019845  MmwDemo_LVDSStream_EDMAInit                                          
00019901  open                                                                 
00019a75  CBUFF_setupTransfer                                                  
00019b2d  DMA_getChannelInterruptFlag                                          
00019be5  __kernel_cos                                                         
00019c9d  SOC_MPUEnable                                                        
00019cbb  SOC_MPUDisable                                                       
00019cd9  SOC_MPUEnableBackgroundRegion                                        
00019cef  SOC_MPUDisableBackgroundRegion                                       
00019d05  SOC_MPUGetNumberOfRegions                                            
00019d0f  SOC_MPUAreRegionsSeparate                                            
00019d17  SOC_MPUSetRegion                                                     
00019d1d  SOC_MPUGetRegion                                                     
00019d23  SOC_MPUSetRegionBaseAddress                                          
00019d29  SOC_MPUGetRegionBaseAddress                                          
00019d2f  SOC_MPUSetRegionTypeAndPermission                                    
00019d39  SOC_MPUGetRegionType                                                 
00019d43  SOC_MPUGetRegionPermission                                           
00019d4d  SOC_MPUSetRegionSizeRegister                                         
00019d55  EDMA_startTransfer                                                   
00019e09  SemaphoreP_Params_init                                               
00019e11  ti_sysbios_gates_GateMutex_enter__E                                  
00019ec5  ti_sysbios_knl_Queue_Object__get__S                                  
00019ed1  xdc_runtime_LoggerBuf_setFilterLevel__E                              
00019f85  UartSci_openDMA                                                      
0001a039  CBUFF_deactivateSession                                              
0001a0e9  MMWave_addProfile                                                    
0001a199  rlSetProfileConfig                                                   
0001a251  ti_sysbios_utils_Load_updateLoads__E                                 
0001a251  ti_sysbios_utils_Load_update__E                                      
0001a301  xdc_runtime_Text_putMod__E                                           
0001a3b1  MmwDemo_ADCBufConfig                                                 
0001a45f  __TI_wrt_ok                                                          
0001a4c3  __TI_rd_ok                                                           
0001a50d  AoAProcHWA_ConvertFov                                                
0001a5b9  AoAProcHWA_rxChanPhaseBiasCompensation                               
0001a665  ESM_processInterrupt                                                 
0001a711  MmwDemo_isAllCfgInPendingState                                       
0001a7bd  MmwDemo_measurementResultOutput                                      
0001a869  rlDriverConstructOutMsg                                              
0001a871  ti_sysbios_knl_Task_Module_startup__E                                
0001a91d  MMWave_listGetNext                                                   
0001a921  ti_sysbios_utils_Load_startup__E                                     
0001a9cd  ADCBUF_MMWave_getChanBufAddr                                         
0001aa75  CLI_MMWaveExtensionHelp                                              
0001ab1d  EDMA3Init                                                            
0001ac6d  MMWave_getBpmChirpHandle                                             
0001ad15  Pinmux_Set_OverrideCtrl                                              
0001adbd  SOC_deregisterSysIntListener                                         
0001ae65  rlDriverWaitForResponse                                              
0001af0d  rlSetAdvFrameConfig                                                  
0001afb5  MmwDemo_edmaInit                                                     
0001b05d  DMA_assignChannel                                                    
0001b101  ESM_init                                                             
0001b1a5  MMWave_addBpmChirp                                                   
0001b249  MMWave_start                                                         
0001b391  __kernel_sin                                                         
0001b435  ADCBuf_control                                                       
0001b441  xdc_runtime_Text_putSite__E                                          
0001b4e5  SOC_registerSysIntListener                                           
0001b585  __TI_auto_init                                                       
0001b625  ADCBuf_getChanBufAddr                                                
0001b631  ti_sysbios_knl_Task_blockI__E                                        
0001b6d1  MMWave_configLink                                                    
0001b76d  MMWave_getProfileHandle                                              
0001b941  __aeabi_memcpy                                                       
0001b941  __aeabi_memcpy4                                                      
0001b941  __aeabi_memcpy8                                                      
0001b941  memcpy                                                               
0001b9e1  ti_sysbios_family_arm_v7r_vim_Hwi_initIntController__I               
0001ba81  ti_sysbios_family_arm_v7r_vim_Hwi_mapChannel__I                      
0001bb21  ti_sysbios_knl_Semaphore_Instance_init__E                            
0001bc59  MmwDemo_dataPathStop                                                 
0001bcf5  DPU_AoAProcHWA_control                                               
0001bd8d  MMWave_getChirpCfg                                                   
0001be25  MmwDemo_RFParser_parseConfig                                         
0001bebd  MmwDemo_isAllCfgInNonPendingState                                    
0001bf55  __TI_closefile                                                       
0001bfbb  fclose                                                               
0001bfed  fputc                                                                
0001bfed  putc                                                                 
0001c073  putchar                                                              
0001c084  ti_sysbios_family_xxx_Hwi_switchAndRunFunc                           
0001c0d0  ti_sysbios_family_xxx_Hwi_switchAndRunDispatchC                      
0001c121  ti_sysbios_utils_Load_taskDeleteHook__E                              
0001c24f  HWA_configRam                                                        
0001c37b  CBUFF_setupNonInterleaved_ADC                                        
0001c539  SOC_gateClock                                                        
0001c5cd  rlDriverDeInit                                                       
0001c661  rlDriverMsgReadCmdCtx                                                
0001c6f5  rlDriverProcRdMsg                                                    
0001c788  ti_sysbios_family_arm_v7r_vim_Hwi_dispatchIRQ__I                     
0001c8b1  GPIO_init                                                            
0001c941  Mailbox_close                                                        
0001c9d1  UartSci_initiateTxDMA                                                
0001caf1  ti_sysbios_family_arm_v7a_Pmu_startCounter__E                        
0001cb81  ti_sysbios_knl_Task_unblockI__E                                      
0001cc11  xdc_runtime_LoggerBuf_getFilterLevel__E                              
0001cd2d  SOC_init                                                             
0001cdb9  SOC_translateAddress                                                 
0001ce45  UartSci_initiateRxDMA                                                
0001ced1  rlDevicePowerOn                                                      
0001cf5d  rlDriverMsgReadSpawnCtx                                              
0001cfe9  rlDriverGetHandle                                                    
0001cff1  ti_sysbios_family_arm_v7a_Pmu_getCount__E                            
0001d081  ti_sysbios_family_arm_v7r_vim_Hwi_Instance_finalize__E               
0001d10d  MmwDemo_hwaInit                                                      
0001d111  xdc_runtime_Memory_alloc__E                                          
0001d19d  HWA_disableParamSetInterrupt                                         
0001d225  MMWave_getProfileCfg                                                 
0001d2ad  vsnprintf                                                            
0001d335  AoAProcHWA_cfgAndTrigger_EDMA_2DFFT                                  
0001d3bd  CBUFF_closeEDMA                                                      
0001d445  DPU_CFARCAProcHWA_init                                               
0001d4c9  MMWave_deviceCfgAsyncEvent                                           
0001d54d  MMWave_deviceEventFxn                                                
0001d5d1  MMWave_getNumBpmChirp                                                
0001d655  MMWave_open                                                          
0001d8e1  MMWave_getBpmChirpCfg                                                
0001da61  MmwDemo_configSensor                                                 
0001dae1  SOC_getDeviceRFFreqScaleFactor                                       
0001dbe1  rlDriverExecuteGetApi                                                
0001dc61  ti_sysbios_timers_rti_Timer_initDevice__I                            
0001dd61  HwiP_create                                                          
0001dde1  CBUFF_initLVDSLinkListParams                                         
0001de61  DPM_pipeSend                                                         
0001df59  MMWave_deviceOpenFxn                                                 
0001dfd5  Mailbox_init                                                         
0001e0cc  ti_sysbios_family_arm_TaskSupport_buildTaskStack                     
0001e148  ti_sysbios_family_arm_v7a_Pmu_getEnabled__E                          
0001e151  xdc_runtime_Core_deleteObject__I                                     
0001e249  __aeabi_memclr                                                       
0001e249  __aeabi_memclr4                                                      
0001e249  __aeabi_memclr8                                                      
0001e24b  __aeabi_memset                                                       
0001e24b  __aeabi_memset4                                                      
0001e24b  __aeabi_memset8                                                      
0001e251  memset                                                               
0001e2c5  ADCBUF_MMWave_getCQBufAddr                                           
0001e3b5  CBUFF_setVC                                                          
0001e4a5  EDMA_configParamSet                                                  
0001e51d  MMWave_getNumChirps                                                  
0001e595  MmwDemo_hwaOpen                                                      
0001e681  MMWave_config                                                        
0001e6f5  MMWave_deviceStartFxn                                                
0001e768  _c_int00                                                             
0001e7dd  rlDriverAsyncEventHandler                                            
0001e851  finddevice                                                           
0001e87f  getdevice                                                            
0001e8c5  frexp                                                                
0001e8c5  frexpl                                                               
0001e939  CFARHWA_saveConfiguration                                            
0001ea1d  HSIHeader_deleteHeader                                               
0001eafd  MMWave_deviceCfgFxn                                                  
0001ed2d  MmwDemo_platformInit                                                 
0001ed9d  MmwDemo_sleep                                                        
0001eda1  xdc_runtime_Error_print__E                                           
0001ee11  CFARCAHWA_config_EDMA                                                
0001ee81  DMA_disableChannel                                                   
0001eeed  DMA_enableChannel                                                    
0001ef59  EDMA_isTransferComplete                                              
0001f031  MMWave_stopLink                                                      
0001f09d  Pinmux_Set_FuncSel                                                   
0001f109  __TI_decompress_lzss                                                 
0001f175  __TI_writemsg                                                        
0001f1a7  C$$IO$$                                                              
0001f1ab  __TI_readmsg                                                         
0001f31d  MMWave_deviceStopFxn                                                 
0001f385  Mailbox_readFlush                                                    
0001f525  rlDriverExecuteSetApi                                                
0001f58d  rlDriverHostIrqHandler                                               
0001f5f5  HOSTlseek                                                            
0001f65d  HOSTrename                                                           
0001f6c5  MmwDemo_mssSetHsiClk                                                 
0001f72d  rlDevicePowerOff                                                     
0001f85d  EDMA_startDmaTransfer                                                
0001f8c1  HWA_getDMAChanIndex                                                  
0001f925  SemaphoreP_create                                                    
0001f989  fseek                                                                
0001f9ed  sprintf                                                              
0001fa50  ti_sysbios_family_arm_exc_Exception_initCore0__I                     
0001fab5  CBUFF_deinitLVDS                                                     
0001fac1  ti_sysbios_family_arm_v7r_vim_Hwi_phantomIntHandler__I               
0001fb31  ti_sysbios_knl_Clock_logTick__E                                      
0001fba1  ti_sysbios_utils_Load_logCPULoad__I                                  
0001fc11  xdc_runtime_Startup_exec__E                                          
0001fcd9  CLI_MMWaveExtensionHandler                                           
0001fd39  DebugP_log2                                                          
0001fd99  DebugP_log3                                                          
0001fdf9  xdc_runtime_Text_visitRope__I                                        
0001fe01  ti_sysbios_heaps_HeapMem_alloc__E                                    
0001fe61  xdc_runtime_Assert_raise__I                                          
0001fec1  xdc_runtime_Text_putLab__E                                           
0001ff81  CFARHWA_fovConvertDoppler                                            
0001ffdd  CFARHWA_prepareHwaRunTime                                            
00020095  MMWave_stop                                                          
000200f1  MmwDemo_mmWaveCtrlTask                                               
0002014d  SOC_enableLVDS                                                       
000201a9  HOSTopen                                                             
00020205  HOSTread                                                             
00020261  ti_sysbios_utils_Load_updateCurrentThreadTime__E                     
00020317  rlDriverCalChkSum                                                    
00020371  DPM_execute                                                          
00020421  DebugP_log0                                                          
00020479  DebugP_log1                                                          
000204d1  EDMA3EnableChInShadowReg                                             
00020529  ESM_highpriority_FIQ                                                 
00020581  HWA_getDMAconfig                                                     
000205d9  MMWave_execute                                                       
000206e1  UartSci_closeDMA                                                     
00020739  close                                                                
00020791  HOSTwrite                                                            
00020895  CRC_getTransactionId                                                 
000208e9  DMA_freeChannel                                                      
00020991  MMWave_initLink                                                      
000209e5  MmwDemo_CfgUpdate                                                    
00020a39  ltoa                                                                 
00020a8d  ti_sysbios_family_arm_v7r_vim_Hwi_create                             
00020ae1  ti_sysbios_heaps_HeapMem_getStats__E                                 
00020b35  MemoryP_ctrlFree                                                     
00020b41  xdc_runtime_Core_assignLabel__I                                      
00020b95  DPEDMA_setup_shadow_link                                             
00020be9  CRC_getSignature                                                     
00020c39  EDMA3MapChToEvtQ                                                     
00020c89  MMWave_sync                                                          
00020d79  rlDeviceIdentifyCmdDir                                               
00020dc9  rlDriverVerifyCRC                                                    
00020e19  atoi                                                                 
00020e69  C$$EXIT                                                              
00020e6d  abort                                                                
00020e6d  xdc_runtime_System_abortStd__E                                       
00020e75  exit                                                                 
00020e75  xdc_runtime_System_exitStd__E                                        
00020eb8  __aeabi_uidiv                                                        
00020eb8  __aeabi_uidivmod                                                     
00020f09  CycleprofilerP_getTimeStamp                                          
00020f11  xdc_runtime_System_exit__E                                           
00020faf  AoAProcHWA_findSinglePeak                                            
00020ffd  CLI_write                                                            
00021049  DPU_StaticClutterProc_config                                         
00021095  EDMA_disableChannel                                                  
000210e1  EDMA_enableChannel                                                   
0002112d  HWA_enableDoneInterrupt                                              
00021211  copy_in                                                              
0002125d  ti_sysbios_BIOS_RtsGateProxy_enter__E                                
00021261  ti_sysbios_family_arm_v7r_vim_Hwi_getStackInfo__E                    
00021261  ti_sysbios_hal_Hwi_HwiProxy_getStackInfo__E                          
00021261  ti_sysbios_hal_Hwi_getStackInfo__E                                   
000212ad  ti_sysbios_knl_Task_create                                           
00021301  ti_sysbios_knl_Task_stat__E                                          
0002134d  ti_sysbios_BIOS_RtsGateProxy_leave__E                                
00021351  ti_sysbios_utils_Load_taskSwitchHook__E                              
00021431  xdc_runtime_Core_assignParams__I                                     
0002147b  EDMA3ClrCCErr                                                        
00021481  xdc_runtime_Text_xprintf__I                                          
000214cb  CBUFF_setup_USER                                                     
00021513  CFARHWA_convHwaCfarDetListToDetMask                                  
0002155b  DPM_pipeRecv                                                         
000215ed  HWA_readCFARPeakCountReg                                             
00021635  MmwDemo_resetStaticCfgPendingState                                   
0002167d  rlDeviceGetVersion                                                   
000216c5  rlDriverOsiInit                                                      
0002170d  xdc_runtime_LoggerBuf_Object__create__S                              
0002179d  ADCBUF_MMWave_close                                                  
00021825  DPM_start                                                            
00021869  DPM_stop                                                             
000218f1  SOC_resetDMA                                                         
00021935  HOSTclose                                                            
00021979  HOSTunlink                                                           
000219bd  ti_sysbios_family_arm_TaskSupport_Module__startupDone__S             
000219bd  ti_sysbios_knl_Task_SupportProxy_Module__startupDone__S              
000219c1  ti_sysbios_family_arm_v7r_tms570_Core_Module_startup__E              
00021a11  ti_sysbios_knl_Task_allBlockedFunction__I                            
00021a55  SemaphoreP_post                                                      
00021a55  SemaphoreP_postFromClock                                             
00021a55  SemaphoreP_postFromISR                                               
00021a61  xdc_runtime_LoggerBuf_Module_startup__E                              
00021aa5  UART_close                                                           
00021ab1  xdc_runtime_System_atexit__E                                         
00021af5  CBUFF_closeLVDS                                                      
00021b79  HWA_reset                                                            
00021bbb  MMWave_executeLink                                                   
00021bfd  rlGetSubBlock                                                        
00021c81  EDMA_linkParamSets                                                   
00021cc1  HWA_getHWAMemInfo                                                    
00021d81  rlDriverValidateHdr                                                  
00021dc1  strtok                                                               
00021e01  ti_sysbios_timers_rti_Timer_stop__E                                  
00022167  HWA_enable                                                           
000221a5  MMWave_decodeError                                                   
00022221  mmwDemo_cfgAnalogMonitor                                             
000222d9  EDMA_chainChannels                                                   
00022315  EDMA_getErrorStatus                                                  
00022351  EDMA_getTransferControllerErrorStatus                                
0002238d  Mailbox_writeReset                                                   
000223c9  MmwDemo_EDMA_errorCallbackFxn                                        
00022405  MmwDemo_EDMA_transferControllerErrorCallbackFxn                      
00022441  SOC_isSecureDevice                                                   
0002247d  SOC_unhaltBSS                                                        
000224b8  ti_sysbios_family_arm_v7r_vim_Hwi_init__I                            
000224f5  UART_read                                                            
00022501  ti_sysbios_hal_Hwi_checkStack                                        
0002253d  ti_sysbios_family_arm_v7r_vim_Hwi_delete                             
00022541  ti_sysbios_heaps_HeapMem_init__I                                     
0002257d  HWA_setDMA2ACCManualTrig                                             
000225b9  HwiP_delete                                                          
00022665  CLI_MMWaveExtensionInit                                              
0002269d  DPM_notifyExecute                                                    
000226d5  EDMA3ClrMissEvt                                                      
0002270d  UART_init                                                            
00022745  rlAppendSubBlock                                                     
0002277b  strncpy                                                              
000227b1  ADCBuf_open                                                          
00022819  HWA_disableDoneInterrupt                                             
00022881  SOC_enableHWA                                                        
000228b5  SOC_hasDSPCore                                                       
000228e9  SOC_setMMWaveDSSLinkState                                            
0002291d  SOC_setMMWaveMSSLinkState                                            
00022951  SOC_setMSSLinkState                                                  
00022985  UART_open                                                            
000229b9  EDMA3ErrIntrHighStatusGet                                            
000229c1  ti_sysbios_family_arm_a15_TimestampProvider_get64__E                 
000229c1  xdc_runtime_LoggerBuf_TimestampProxy_get64__E                        
000229c1  xdc_runtime_Timestamp_SupportProxy_get64__E                          
000229c1  xdc_runtime_Timestamp_get64__E                                       
000229f5  ti_sysbios_knl_Semaphore_create                                      
00022a29  CFARHWA_fovConvertRange                                              
00022b27  UART_write                                                           
00022b31  ti_sysbios_hal_Hwi_initStack                                         
00022b65  ADCBuf_init                                                          
00022bc5  MMWave_listRemoveNode                                                
00022bf5  SOC_getDevicePartNumber                                              
00022c25  rlSensorStart                                                        
00022c55  ti_sysbios_BIOS_startFunc__I                                         
00022c85  UART_writePolling                                                    
00022c91  ti_sysbios_family_arm_TaskSupport_start__E                           
00022c91  ti_sysbios_knl_Task_SupportProxy_start__E                            
00022cc1  ti_sysbios_gates_GateHwi_Object__create__S                           
00022cf1  ti_sysbios_gates_GateMutex_Object__create__S                         
00022d21  ti_sysbios_heaps_HeapMem_Object__create__S                           
00022d51  ti_sysbios_heaps_HeapMem_free__E                                     
00022d81  ti_sysbios_knl_Semaphore_construct                                   
00022db1  xdc_runtime_Text_printVisFxn__I                                      
00022de1  CFARHWA_triggerCFAR                                                  
00022e3d  HWA_getCfarPeakCntRegAddress                                         
00022e6b  _DPC_Objdet_Assert                                                   
00022e99  EDMA3GetCCErrStatus                                                  
00022ea1  ti_sysbios_knl_Semaphore_pendTimeout__I                              
00022ecf  malloc                                                               
00022efd  DPM_pipeInit                                                         
00022f29  DPU_StaticClutterProc_init                                           
00022f55  EDMA_setDestinationAddress                                           
00022f81  EDMA_setSourceAddress                                                
00023031  MMWave_osalMutexCreate                                               
0002305d  MMWave_osalSemCreate                                                 
00023089  SOC_waitBSSPowerUp                                                   
000230b5  rlDeviceGetMssVersion                                                
000230e1  rlSensorStop                                                         
0002310d  sqrt                                                                 
0002310d  sqrtl                                                                
00023139  remove                                                               
00023139  unlink                                                               
00023165  ti_sysbios_BIOS_atExitFunc__I                                        
00023191  ti_sysbios_knl_Clock_doTick__I                                       
000231bd  ti_sysbios_knl_Queue_construct                                       
000231e9  EDMA3GetErrIntrStatus                                                
000231f1  ti_sysbios_timers_rti_Timer_periodicStub__E                          
00023247  DPM_pipeDeinit                                                       
0002329b  MmwDemo_ADCBufOpen                                                   
000232c5  SOC_SystemISR                                                        
000232ef  rlDeviceGetMmWaveLinkVersion                                         
00023319  strspn                                                               
000233bd  DPM_msgInitHeader                                                    
000233e5  DPU_RangeProcHWA_deinit                                              
0002340d  Mailbox_Config_init                                                  
00023485  rlDriverConstructInMsg                                               
000234ad  lseek                                                                
000234d5  write                                                                
000234fd  ti_sysbios_heaps_HeapMem_Module_GateProxy_enter__E                   
00023501  ti_sysbios_knl_Idle_run__E                                           
00023529  EDMA3QdmaGetErrIntrStatus                                            
00023531  xdc_runtime_SysStd_abort__E                                          
00023531  xdc_runtime_System_SupportProxy_abort__E                             
00023559  HwiP_restore                                                         
00023561  xdc_runtime_System_aprintf_va__F                                     
00023589  DPU_StaticClutterProc_waitInData                                     
000235af  DPU_StaticClutterProc_waitOutData                                    
000235d5  mmwDemo_cfgRxSaturationMonitor                                       
000235fb  rlRfAnaMonConfig                                                     
00023621  rlRfGetTemperatureReport                                             
00023647  rlRfInitCalibConfig                                                  
0002366d  rlRfRunTimeCalibConfig                                               
00023693  rlRfRxIfSatMonConfig                                                 
000236b9  rlRfRxSigImgMonConfig                                                
000236df  rlRfSetCalMonFreqLimitConfig                                         
00023705  rlRfSetDeviceCfg                                                     
0002372b  rlRfSetLdoBypassConfig                                               
00023751  rlSetAdcOutConfig                                                    
00023777  rlSetBpmCommonConfig                                                 
0002379d  rlSetChannelConfig                                                   
000237c3  rlSetContModeConfig                                                  
000237e9  memcmp                                                               
00023811  xdc_runtime_System_printf_va__F                                      
00023839  _MmwDemo_debugAssert                                                 
00023885  EDMA3ClrEvt                                                          
000238a9  EDMA3ClrIntr                                                         
000238cd  EDMA3DisableDmaEvt                                                   
000238f1  EDMA3DisableEvtIntr                                                  
00023915  EDMA3EnableDmaEvt                                                    
00023939  EDMA3EnableEvtIntr                                                   
0002395d  EDMA3SetEvt                                                          
000239ed  SOC_isDSSOperational                                                 
00023a11  SOC_isMMWaveDSSOperational                                           
00023a35  SOC_isMMWaveMSSOperational                                           
00023a59  rlDeviceSetHsiClk                                                    
00023a7d  rlEnableContMode                                                     
00023aa1  rlRfSetCalMonTimeUnitConfig                                          
00023ac5  rlSetLowPowerModeConfig                                              
00023ae9  ti_sysbios_BIOS_registerRTSLock__I                                   
00023b0d  ti_sysbios_BIOS_removeRTSLock__I                                     
00023b31  ti_sysbios_gates_GateMutex_Object__delete__S                         
00023b55  mathUtils_floorLog2                                                  
00023b61  ti_sysbios_knl_Clock_Module_startup__E                               
00023b85  ti_sysbios_knl_Semaphore_Object__delete__S                           
00023bed  UartSci_disableRxDMA                                                 
00023c0f  UartSci_enableRxDMA                                                  
00023c31  strcspn                                                              
00023c53  DPM_listCat                                                          
00023c75  EDMA3QdmaClrMissEvt                                                  
00023c95  ESM_lowpriority_IRQ                                                  
00023cd5  MMWave_listCat                                                       
00023cf5  MmwDemo_DPC_ObjectDetection_processFrameBeginCallBackFxn             
00023d35  rlRfInit                                                             
00023d55  ti_sysbios_family_arm_v7r_tms570_Core_getId__E                       
00023d55  ti_sysbios_hal_Core_CoreProxy_getId__E                               
00023d61  ti_sysbios_family_arm_TaskSupport_stackUsed__E                       
00023d61  ti_sysbios_knl_Task_SupportProxy_stackUsed__E                        
00023d81  ti_sysbios_family_arm_a15_TimestampProvider_autoRefreshFxn__I        
00023da1  ti_sysbios_family_arm_v7a_Pmu_Module_startup__E                      
00023dc1  ti_sysbios_family_arm_v7r_vim_Hwi_Object__delete__S                  
00023de1  ti_sysbios_family_arm_v7r_vim_Hwi_disableInterrupt__E                
00023de1  ti_sysbios_hal_Hwi_HwiProxy_disableInterrupt__E                      
00023de1  ti_sysbios_hal_Hwi_disableInterrupt__E                               
00023e01  ti_sysbios_family_arm_v7r_vim_Hwi_enableInterrupt__E                 
00023e01  ti_sysbios_hal_Hwi_HwiProxy_enableInterrupt__E                       
00023e01  ti_sysbios_hal_Hwi_enableInterrupt__E                                
00023e21  ti_sysbios_gates_GateHwi_Object__delete__S                           
00023e41  ti_sysbios_heaps_HeapMem_Object__delete__S                           
00023e61  ti_sysbios_knl_Semaphore_destruct                                    
00023e81  xdc_runtime_LoggerBuf_Object__delete__S                              
00023ea1  AoAProcHWA_waitEdma                                                  
00023ebf  CFARHWA_isHwaCfarDetected                                            
00023f19  SOC_getOutAddr_LUTType                                               
00023f37  mmwDemo_cfgRxSigImgMonitor                                           
00023f55  ti_sysbios_BIOS_errorRaiseHook__I                                    
000240c3  DPM_listRemove                                                       
000240e1  DPU_AoAProcHWA_deinit                                                
000240fd  DPU_StaticClutterProc_deinit                                         
00024119  MMWave_listRemove                                                    
00024135  MmwDemo_DPC_ObjectDetection_processInterFrameBeginCallBackFxn        
00024151  SOC_getInAddr_LUTType                                                
0002416c  ti_sysbios_family_arm_TaskSupport_glue                               
00024188  ti_sysbios_family_arm_TaskSupport_swap__E                            
00024188  ti_sysbios_knl_Task_SupportProxy_swap__E                             
000241a5  memccpy                                                              
000241c1  ti_sysbios_BIOS_rtsLock__I                                           
000241dd  ti_sysbios_heaps_HeapMem_Module_GateProxy_leave__E                   
000241e1  ti_sysbios_family_arm_v7r_vim_Hwi_clearInterrupt__E                  
000241e1  ti_sysbios_hal_Hwi_HwiProxy_clearInterrupt__E                        
000241e1  ti_sysbios_hal_Hwi_clearInterrupt__E                                 
000241fd  ti_sysbios_knl_Clock_TimerProxy_getMaxTicks__E                       
00024201  ti_sysbios_gates_GateMutex_Instance_init__E                          
0002421d  ti_sysbios_knl_Semaphore_delete                                      
00024221  ti_sysbios_gates_GateMutex_leave__E                                  
0002423d  ti_sysbios_knl_Queue_destruct                                        
00024259  rlGetSubBlockId                                                      
00024261  ti_sysbios_knl_Task_restoreHwi__E                                    
0002427d  xdc_runtime_LoggerBuf_Module_GateProxy_enter__E                      
00024281  xdc_runtime_LoggerBuf_Instance_finalize__E                           
0002429d  CBUFF_finalizeLVDSLinkListParams                                     
000242b7  DPM_listAdd                                                          
0002431f  EDMA3SetPaRAM                                                        
00024339  MMWave_deviceSyncFxn                                                 
00024353  MMWave_encodeError                                                   
0002436d  MMWave_listAdd                                                       
00024387  free                                                                 
000243a1  rlGetRfDieId                                                         
000243bb  copysign                                                             
000243bb  copysignl                                                            
000243d5  ti_sysbios_family_arm_a15_TimestampProvider_initCCNT__I              
000243ef  xdc_runtime_System_aprintf__E                                        
00024409  xdc_runtime_System_printf__E                                         
0002443d  CLI_getMMWaveExtensionOpenConfig                                     
0002449d  DPU_CFARCAProcHWA_deinit                                             
000244b5  DPU_DopplerProcHWA_deinit                                            
000244cd  EDMA3DisableQdmaEvt                                                  
000244e5  EDMA3EnableQdmaEvt                                                   
000244fd  MMWave_osalMutexLock                                                 
00024515  MMWave_osalSemWait                                                   
00024575  rlDeviceGetRfVersion                                                 
0002458d  rlDriverCalCRC                                                       
000245a5  rlDriverFillPayload                                                  
000245bd  _args_main                                                           
000245d5  __aeabi_lmul                                                         
000245ed  strcmp                                                               
00024605  strrchr                                                              
0002461d  ti_sysbios_BIOS_rtsUnlock__I                                         
00024634  ti_sysbios_family_arm_v7a_Pmu_initCounters__I                        
0002464d  ti_sysbios_family_arm_v7r_vim_Hwi_Module__startupDone__F             
0002464d  ti_sysbios_family_arm_v7r_vim_Hwi_Module__startupDone__S             
0002464d  ti_sysbios_hal_Hwi_HwiProxy_Module__startupDone__S                   
00024665  ti_sysbios_family_arm_v7r_vim_Hwi_Params__init__S                    
00024665  ti_sysbios_hal_Hwi_HwiProxy_Params__init__S                          
0002467d  ti_sysbios_gates_GateHwi_Handle__label__S                            
0002467d  xdc_runtime_LoggerBuf_Module_GateProxy_Handle__label__S              
0002467d  xdc_runtime_Main_Module_GateProxy_Handle__label__S                   
0002467d  xdc_runtime_System_Module_GateProxy_Handle__label__S                 
00024695  ti_sysbios_BIOS_RtsGateProxy_Handle__label__S                        
00024695  ti_sysbios_gates_GateMutex_Handle__label__S                          
00024695  ti_sysbios_heaps_HeapMem_Module_GateProxy_Handle__label__S           
000246ad  ti_sysbios_heaps_HeapMem_Handle__label__S                            
000246ad  xdc_runtime_Memory_HeapProxy_Handle__label__S                        
000246c5  ti_sysbios_knl_Semaphore_Params__init__S                             
000246dd  ti_sysbios_knl_Task_Params__init__S                                  
000246f5  xdc_runtime_Memory_HeapProxy_alloc__E                                
00024701  ti_sysbios_knl_Task_enter__I                                         
00024719  ti_sysbios_knl_Clock_TimerProxy_Module__startupDone__S               
00024719  ti_sysbios_timers_rti_Timer_Module__startupDone__F                   
00024719  ti_sysbios_timers_rti_Timer_Module__startupDone__S                   
00024731  xdc_runtime_Error_init__E                                            
00024749  xdc_runtime_LoggerBuf_Handle__label__S                               
00024761  CBUFF_shutdownTransfer                                               
0002478d  strchr                                                               
000247a3  strlen                                                               
000247b9  ti_sysbios_BIOS_exitFunc__I                                          
000247d1  ti_sysbios_knl_Idle_loop__E                                          
000247e7  xdc_runtime_Memory_HeapProxy_free__E                                 
000247f1  ti_sysbios_knl_Task_sleepTimeout__I                                  
00024807  CycleprofilerP_init                                                  
0002481d  EDMA3GetIntrStatus                                                   
00024831  EDMA3IntrStatusHighGet                                               
00024845  EDMA3MapQdmaChToPaRAM                                                
00024859  HwiP_Params_init                                                     
00024895  MMWave_osalMutexDelete                                               
000248a9  MMWave_osalSemDelete                                                 
000248bd  MmwDemo_RFParser_getNumSubFrames                                     
000248e5  UartSci_disableTxDMA                                                 
000248f9  UartSci_enableTxDMA                                                  
0002490d  _DebugP_assert                                                       
00024921  mathUtils_ceilLog2                                                   
00024935  rlAppendDummy                                                        
00024949  rlDriverIsDeviceMapValid                                             
0002495d  _register_unlock                                                     
00024963  _register_lock                                                       
0002496b  _nop                                                                 
00024971  strcpy                                                               
00024985  ti_sysbios_heaps_HeapMem_Object__get__S                              
00024999  xdc_runtime_LoggerBuf_Object__get__S                                 
000249ad  CRC_initConfigParams                                                 
000249bf  EDMA3SetQdmaTrigWord                                                 
000249d1  MMWave_deviceGetDeviceInfo                                           
000249e3  MemoryP_ctrlAlloc                                                    
000249f5  SemaphoreP_pend                                                      
00024a07  mathUtils_pow2roundup                                                
00024a19  rlGetSubBlockLen                                                     
00024a21  ti_sysbios_hal_Hwi_Module_startup__E                                 
00024a33  SOC_microDelay                                                       
00024a41  xdc_runtime_LoggerBuf_write1__E                                      
00024a53  SemaphoreP_delete                                                    
00024a61  xdc_runtime_LoggerBuf_write2__E                                      
00024a73  xdc_runtime_Startup_exec__I                                          
00024a85  ADCBuf_Params_init                                                   
00024a95  CLI_getMMWaveExtensionConfig                                         
00024ab5  xdc_runtime_Memory_HeapProxy_getStats__E                             
00024ac1  ti_sysbios_BIOS_getCpuFreq__E                                        
00024ac1  ti_sysbios_family_arm_a15_TimestampProvider_getFreq__E               
00024ac1  xdc_runtime_LoggerBuf_TimestampProxy_getFreq__E                      
00024ac1  xdc_runtime_Timestamp_SupportProxy_getFreq__E                        
00024ac1  xdc_runtime_Timestamp_getFreq__E                                     
00024ad1  ti_sysbios_BIOS_setThreadType__E                                     
00024ae1  ti_sysbios_BIOS_start__E                                             
00024af1  ti_sysbios_family_arm_a15_TimestampProvider_Module_startup__E        
00024b00  ti_sysbios_family_arm_v7a_Pmu_disableInterruptI__E                   
00024b10  ti_sysbios_family_arm_v7a_Pmu_enableInterruptI__E                    
00024b20  ti_sysbios_family_arm_v7a_Pmu_getNumCounters__E                      
00024b30  ti_sysbios_family_arm_v7a_Pmu_startCounterI__E                       
00024b40  ti_sysbios_family_arm_v7a_Pmu_stopCounterI__E                        
00024b51  ti_sysbios_gates_GateMutex_Instance_finalize__E                      
00024b61  ti_sysbios_heaps_HeapBuf_Object__get__S                              
00024b71  ti_sysbios_knl_Semaphore_Instance_finalize__E                        
00024b81  ti_sysbios_knl_Task_Object__get__S                                   
00024b91  ti_sysbios_knl_Task_disable__E                                       
00024ba1  xdc_runtime_LoggerBuf_write0__E                                      
00024bb1  xdc_runtime_Memory_free__E                                           
00024bc1  xdc_runtime_Memory_getStats__E                                       
00024bd1  __TI_decompress_none                                                 
00024bdf  ti_sysbios_family_arm_a15_TimestampProvider_getOverflowCCNT__I       
00024bed  xdc_runtime_LoggerBuf_Module_GateProxy_leave__E                      
00024bf1  ti_sysbios_knl_Queue_empty__E                                        
00024c01  ti_sysbios_family_arm_TaskSupport_checkStack__E                      
00024c01  ti_sysbios_knl_Task_SupportProxy_checkStack__E                       
00024c0d  xdc_runtime_System_Module_GateProxy_enter__E                         
00024c11  ti_sysbios_family_arm_TaskSupport_getStackAlignment__E               
00024c11  ti_sysbios_knl_Task_SupportProxy_getStackAlignment__E                
00024c1d  xdc_runtime_System_Module_GateProxy_leave__E                         
00024c21  ti_sysbios_family_arm_exc_Exception_Module_startup__E                
00024c31  ti_sysbios_family_arm_v7r_vim_Hwi_switchFromBootStack__E             
00024c31  ti_sysbios_hal_Hwi_HwiProxy_switchFromBootStack__E                   
00024c31  ti_sysbios_hal_Hwi_switchFromBootStack__E                            
00024c41  ti_sysbios_utils_Load_getCPULoad__E                                  
00024c51  ti_sysbios_utils_Load_taskRegHook__E                                 
00024c61  xdc_runtime_Startup_rtsDone__E                                       
00024c71  xdc_runtime_SysStd_exit__E                                           
00024c71  xdc_runtime_System_SupportProxy_exit__E                              
00024c81  xdc_runtime_LoggerBuf_disable__E                                     
00024c8b  ti_sysbios_family_arm_a15_TimestampProvider_get32__E                 
00024c8b  xdc_runtime_LoggerBuf_TimestampProxy_get32__E                        
00024c8b  xdc_runtime_Timestamp_SupportProxy_get32__E                          
00024c8b  xdc_runtime_Timestamp_get32__E                                       
00024c91  xdc_runtime_LoggerBuf_enable__E                                      
00024ca1  ti_sysbios_gates_GateHwi_enter__E                                    
00024cb1  ti_sysbios_family_arm_v7r_vim_Hwi_startup__E                         
00024cb1  ti_sysbios_hal_Hwi_HwiProxy_startup__E                               
00024cb1  ti_sysbios_hal_Hwi_startup__E                                        
00024cc1  ti_sysbios_gates_GateHwi_leave__E                                    
00024cd1  ti_sysbios_heaps_HeapMem_isBlocking__E                               
00024ce1  ti_sysbios_knl_Queue_Instance_init__E                                
00024cf1  xdc_runtime_System_Module_startup__E                                 
00024d01  ti_sysbios_gates_GateHwi_query__E                                    
00024d01  xdc_runtime_LoggerBuf_Module_GateProxy_query__E                      
00024d01  xdc_runtime_Main_Module_GateProxy_query__E                           
00024d01  xdc_runtime_System_Module_GateProxy_query__E                         
00024d11  ti_sysbios_BIOS_RtsGateProxy_query__E                                
00024d11  ti_sysbios_gates_GateMutex_query__E                                  
00024d11  ti_sysbios_heaps_HeapMem_Module_GateProxy_query__E                   
00024d21  ti_sysbios_knl_Task_startup__E                                       
00024d31  ti_sysbios_timers_rti_Timer_getMaxTicks__E                           
00024d41  xdc_runtime_SysStd_putch__E                                          
00024d41  xdc_runtime_System_SupportProxy_putch__E                             
00024d51  xdc_runtime_SysStd_ready__E                                          
00024d51  xdc_runtime_System_SupportProxy_ready__E                             
00024d61  ti_sysbios_BIOS_linkedWithIncorrectBootLibrary__E                    
00024d71  ti_sysbios_gates_GateHwi_Instance_init__E                            
0002521e  ti_sysbios_family_arm_exc_Exception_Module__id__C                    
00025378  _ctypes_                                                             
00025479  xdc_runtime_Text_charTab__A                                          
0002547a  ti_sysbios_family_arm_v7a_Pmu_Module__id__C                          
00025640  ti_sysbios_family_arm_v7r_vim_Hwi_channelMap__A                      
00025718  ti_sysbios_knl_Task_Object__PARAMS__C                                
0002579c  UART_defaultParams                                                   
000257d8  xdc_runtime_LoggerBuf_Module__FXNS__C                                
00025814  gEdmaHwAttrs                                                         
0002584c  ti_sysbios_family_arm_v7r_vim_Hwi_Object__PARAMS__C                  
0002587c  xdc_runtime_Startup_sfxnTab__A                                       
000258ac  gDPMMessageFxnTable                                                  
000258d4  ti_sysbios_heaps_HeapMem_Module__FXNS__C                             
000258fc  xdc_runtime_LoggerBuf_Object__PARAMS__C                              
00025924  Mailbox_defaultCfg                                                   
00025948  ti_sysbios_gates_GateHwi_Module__FXNS__C                             
0002596c  ti_sysbios_gates_GateMutex_Module__FXNS__C                           
00025990  ti_sysbios_heaps_HeapMem_Object__PARAMS__C                           
000259b4  ti_sysbios_knl_Semaphore_Object__PARAMS__C                           
00025a18  ti_sysbios_family_arm_v7r_vim_Hwi_Object__DESC__C                    
00025a38  ti_sysbios_gates_GateHwi_Object__DESC__C                             
00025a58  ti_sysbios_gates_GateMutex_Object__DESC__C                           
00025a78  ti_sysbios_heaps_HeapMem_Object__DESC__C                             
00025a98  ti_sysbios_knl_Queue_Object__DESC__C                                 
00025ab8  ti_sysbios_knl_Semaphore_Object__DESC__C                             
00025ad8  ti_sysbios_knl_Task_Object__DESC__C                                  
00025af8  xdc_runtime_LoggerBuf_Object__DESC__C                                
00025b18  ti_sysbios_gates_GateHwi_Object__PARAMS__C                           
00025b30  ti_sysbios_gates_GateMutex_Object__PARAMS__C                         
00025b48  ti_sysbios_knl_Queue_Object__PARAMS__C                               
00025b60  ti_sysbios_knl_Task_hooks__A                                         
00025b78  xdc_runtime_Startup_sfxnRts__A                                       
00025b90  gADCBufFxnTable                                                      
00025bb4  ADCBuf_defaultParams                                                 
00025bd4  gADCBufHwCfg                                                         
00025be4  ti_sysbios_family_arm_v7r_vim_Hwi_intReqEnaSet__A                    
00025bf4  ti_sysbios_family_arm_v7r_vim_Hwi_wakeEnaSet__A                      
00025c04  ti_sysbios_knl_Idle_funcList__A                                      
00025c10  ti_sysbios_knl_Idle_funcList__C                                      
00025c18  ti_sysbios_knl_Task_hooks__C                                         
00025c20  xdc_runtime_Startup_firstFxns__A                                     
00025c28  xdc_runtime_Startup_firstFxns__C                                     
00025c30  xdc_runtime_Startup_lastFxns__C                                      
00025c38  ti_sysbios_family_arm_TaskSupport_stackAlignment__C                  
00025c3c  ti_sysbios_family_arm_exc_Exception_E_dataAbort__C                   
00025c40  ti_sysbios_family_arm_exc_Exception_E_prefetchAbort__C               
00025c44  ti_sysbios_family_arm_exc_Exception_E_swi__C                         
00025c48  ti_sysbios_family_arm_exc_Exception_E_undefinedInstruction__C        
00025c4c  ti_sysbios_family_arm_exc_Exception_excHookFuncs__A                  
00025c50  ti_sysbios_family_arm_exc_Exception_excHookFuncs__C                  
00025c54  ti_sysbios_family_arm_v7a_Pmu_A_invalidCounterId__C                  
00025c58  ti_sysbios_family_arm_v7a_Pmu_Module__diagsEnabled__C                
00025c5c  ti_sysbios_family_arm_v7a_Pmu_Module__diagsIncluded__C               
00025c60  ti_sysbios_family_arm_v7a_Pmu_Module__diagsMask__C                   
00025c64  ti_sysbios_family_arm_v7r_tms570_Core_E_mismatchedIds__C             
00025c68  ti_sysbios_family_arm_v7r_tms570_Core_id__C                          
00025c6c  ti_sysbios_family_arm_v7r_vim_Hwi_A_badChannelId__C                  
00025c70  ti_sysbios_family_arm_v7r_vim_Hwi_E_alreadyDefined__C                
00025c74  ti_sysbios_family_arm_v7r_vim_Hwi_E_badIntNum__C                     
00025c78  ti_sysbios_family_arm_v7r_vim_Hwi_E_phantomInterrupt__C              
00025c7c  ti_sysbios_family_arm_v7r_vim_Hwi_E_undefined__C                     
00025c80  ti_sysbios_family_arm_v7r_vim_Hwi_E_unsupportedMaskingOption__C      
00025c84  ti_sysbios_family_arm_v7r_vim_Hwi_LD_end__C                          
00025c88  ti_sysbios_family_arm_v7r_vim_Hwi_LM_begin__C                        
00025c8c  ti_sysbios_family_arm_v7r_vim_Hwi_Module__diagsEnabled__C            
00025c90  ti_sysbios_family_arm_v7r_vim_Hwi_Module__diagsIncluded__C           
00025c94  ti_sysbios_family_arm_v7r_vim_Hwi_Module__diagsMask__C               
00025c98  ti_sysbios_family_arm_v7r_vim_Hwi_Module__loggerFxn1__C              
00025c9c  ti_sysbios_family_arm_v7r_vim_Hwi_Module__loggerFxn8__C              
00025ca0  ti_sysbios_family_arm_v7r_vim_Hwi_Module__loggerObj__C               
00025ca4  ti_sysbios_family_arm_v7r_vim_Hwi_NUM_INTERRUPTS__C                  
00025ca8  ti_sysbios_family_arm_v7r_vim_Hwi_channelMap__C                      
00025cac  ti_sysbios_family_arm_v7r_vim_Hwi_intReqEnaSet__C                    
00025cb0  ti_sysbios_family_arm_v7r_vim_Hwi_phantomFunc__C                     
00025cb4  ti_sysbios_family_arm_v7r_vim_Hwi_taskDisable__C                     
00025cb8  ti_sysbios_family_arm_v7r_vim_Hwi_taskRestoreHwi__C                  
00025cbc  ti_sysbios_family_arm_v7r_vim_Hwi_wakeEnaSet__C                      
00025cc0  ti_sysbios_gates_GateMutex_A_badContext__C                           
00025cc4  ti_sysbios_gates_GateMutex_Instance_State_sem__O                     
00025cc8  ti_sysbios_gates_GateMutex_Module__diagsEnabled__C                   
00025ccc  ti_sysbios_gates_GateMutex_Module__diagsIncluded__C                  
00025cd0  ti_sysbios_gates_GateMutex_Module__diagsMask__C                      
00025cd4  ti_sysbios_hal_Hwi_E_stackOverflow__C                                
00025cd8  ti_sysbios_heaps_HeapBuf_Instance_State_freeList__O                  
00025cdc  ti_sysbios_heaps_HeapBuf_Object__count__C                            
00025ce0  ti_sysbios_heaps_HeapBuf_numConstructedHeaps__C                      
00025ce4  ti_sysbios_heaps_HeapMem_A_align__C                                  
00025ce8  ti_sysbios_heaps_HeapMem_A_heapSize__C                               
00025cec  ti_sysbios_heaps_HeapMem_A_invalidFree__C                            
00025cf0  ti_sysbios_heaps_HeapMem_A_zeroBlock__C                              
00025cf4  ti_sysbios_heaps_HeapMem_E_memory__C                                 
00025cf8  ti_sysbios_heaps_HeapMem_Module__diagsEnabled__C                     
00025cfc  ti_sysbios_heaps_HeapMem_Module__diagsIncluded__C                    
00025d00  ti_sysbios_heaps_HeapMem_Module__diagsMask__C                        
00025d04  ti_sysbios_heaps_HeapMem_Module__gateObj__C                          
00025d08  ti_sysbios_heaps_HeapMem_Object__count__C                            
00025d0c  ti_sysbios_heaps_HeapMem_reqAlign__C                                 
00025d10  ti_sysbios_knl_Clock_LM_begin__C                                     
00025d14  ti_sysbios_knl_Clock_LM_tick__C                                      
00025d18  ti_sysbios_knl_Clock_LW_delayed__C                                   
00025d1c  ti_sysbios_knl_Clock_Module_State_clockQ__O                          
00025d20  ti_sysbios_knl_Clock_Module__diagsEnabled__C                         
00025d24  ti_sysbios_knl_Clock_Module__diagsIncluded__C                        
00025d28  ti_sysbios_knl_Clock_Module__diagsMask__C                            
00025d2c  ti_sysbios_knl_Clock_Module__loggerFxn1__C                           
00025d30  ti_sysbios_knl_Clock_Module__loggerFxn2__C                           
00025d34  ti_sysbios_knl_Clock_Module__loggerObj__C                            
00025d38  ti_sysbios_knl_Semaphore_A_badContext__C                             
00025d3c  ti_sysbios_knl_Semaphore_A_noEvents__C                               
00025d40  ti_sysbios_knl_Semaphore_A_overflow__C                               
00025d44  ti_sysbios_knl_Semaphore_A_pendTaskDisabled__C                       
00025d48  ti_sysbios_knl_Semaphore_Instance_State_pendQ__O                     
00025d4c  ti_sysbios_knl_Semaphore_LM_pend__C                                  
00025d50  ti_sysbios_knl_Semaphore_LM_post__C                                  
00025d54  ti_sysbios_knl_Semaphore_Module__diagsEnabled__C                     
00025d58  ti_sysbios_knl_Semaphore_Module__diagsIncluded__C                    
00025d5c  ti_sysbios_knl_Semaphore_Module__diagsMask__C                        
00025d60  ti_sysbios_knl_Semaphore_Module__loggerFxn2__C                       
00025d64  ti_sysbios_knl_Semaphore_Module__loggerFxn4__C                       
00025d68  ti_sysbios_knl_Semaphore_Module__loggerObj__C                        
00025d6c  ti_sysbios_knl_Task_A_badPriority__C                                 
00025d70  ti_sysbios_knl_Task_A_badTaskState__C                                
00025d74  ti_sysbios_knl_Task_A_badThreadType__C                               
00025d78  ti_sysbios_knl_Task_A_badTimeout__C                                  
00025d7c  ti_sysbios_knl_Task_A_noPendElem__C                                  
00025d80  ti_sysbios_knl_Task_A_sleepTaskDisabled__C                           
00025d84  ti_sysbios_knl_Task_E_spOutOfBounds__C                               
00025d88  ti_sysbios_knl_Task_E_stackOverflow__C                               
00025d8c  ti_sysbios_knl_Task_LD_block__C                                      
00025d90  ti_sysbios_knl_Task_LD_exit__C                                       
00025d94  ti_sysbios_knl_Task_LD_ready__C                                      
00025d98  ti_sysbios_knl_Task_LM_sleep__C                                      
00025d9c  ti_sysbios_knl_Task_LM_switch__C                                     
00025da0  ti_sysbios_knl_Task_Module_State_inactiveQ__O                        
00025da4  ti_sysbios_knl_Task_Module__diagsEnabled__C                          
00025da8  ti_sysbios_knl_Task_Module__diagsIncluded__C                         
00025dac  ti_sysbios_knl_Task_Module__diagsMask__C                             
00025db0  ti_sysbios_knl_Task_Module__loggerFxn2__C                            
00025db4  ti_sysbios_knl_Task_Module__loggerFxn4__C                            
00025db8  ti_sysbios_knl_Task_Module__loggerObj__C                             
00025dbc  ti_sysbios_knl_Task_Object__count__C                                 
00025dc0  ti_sysbios_knl_Task_Object__heap__C                                  
00025dc4  ti_sysbios_knl_Task_allBlockedFunc__C                                
00025dc8  ti_sysbios_knl_Task_defaultStackHeap__C                              
00025dcc  ti_sysbios_knl_Task_defaultStackSize__C                              
00025dd0  ti_sysbios_knl_Task_numConstructedTasks__C                           
00025dd4  ti_sysbios_timers_rti_Timer_E_cannotSupport__C                       
00025dd8  ti_sysbios_timers_rti_Timer_Module__diagsEnabled__C                  
00025ddc  ti_sysbios_timers_rti_Timer_Module__diagsIncluded__C                 
00025de0  ti_sysbios_timers_rti_Timer_Module__diagsMask__C                     
00025de4  ti_sysbios_timers_rti_Timer_numTimerDevices__C                       
00025de8  ti_sysbios_timers_rti_Timer_startupNeeded__C                         
00025dec  ti_sysbios_utils_Load_LS_cpuLoad__C                                  
00025df0  ti_sysbios_utils_Load_LS_taskLoad__C                                 
00025df4  ti_sysbios_utils_Load_Module_State_taskList__O                       
00025df8  ti_sysbios_utils_Load_Module__diagsEnabled__C                        
00025dfc  ti_sysbios_utils_Load_Module__diagsIncluded__C                       
00025e00  ti_sysbios_utils_Load_Module__diagsMask__C                           
00025e04  ti_sysbios_utils_Load_Module__loggerFxn1__C                          
00025e08  ti_sysbios_utils_Load_Module__loggerFxn4__C                          
00025e0c  ti_sysbios_utils_Load_Module__loggerObj__C                           
00025e10  ti_sysbios_utils_Load_postUpdate__C                                  
00025e14  ti_sysbios_utils_Load_windowInMs__C                                  
00025e18  xdc_runtime_Assert_E_assertFailed__C                                 
00025e1c  xdc_runtime_Core_A_initializedParams__C                              
00025e20  xdc_runtime_Core_Module__diagsEnabled__C                             
00025e24  xdc_runtime_Core_Module__diagsIncluded__C                            
00025e28  xdc_runtime_Core_Module__diagsMask__C                                
00025e2c  xdc_runtime_Error_E_memory__C                                        
00025e30  xdc_runtime_Error_Module__diagsEnabled__C                            
00025e34  xdc_runtime_Error_Module__diagsIncluded__C                           
00025e38  xdc_runtime_Error_Module__diagsMask__C                               
00025e3c  xdc_runtime_Error_Module__loggerFxn8__C                              
00025e40  xdc_runtime_Error_Module__loggerObj__C                               
00025e44  xdc_runtime_Error_policyFxn__C                                       
00025e48  xdc_runtime_Error_policy__C                                          
00025e4c  xdc_runtime_Error_raiseHook__C                                       
00025e50  xdc_runtime_IFilterLogger_Interface__BASE__C                         
00025e54  xdc_runtime_IGateProvider_Interface__BASE__C                         
00025e58  xdc_runtime_IHeap_Interface__BASE__C                                 
00025e5c  xdc_runtime_ILogger_Interface__BASE__C                               
00025e60  xdc_runtime_IModule_Interface__BASE__C                               
00025e64  xdc_runtime_Log_L_error__C                                           
00025e68  xdc_runtime_LoggerBuf_E_badLevel__C                                  
00025e6c  xdc_runtime_LoggerBuf_Module__gateObj__C                             
00025e70  xdc_runtime_LoggerBuf_Object__count__C                               
00025e74  xdc_runtime_LoggerBuf_statusLogger__C                                
00025e78  xdc_runtime_Main_Module__diagsEnabled__C                             
00025e7c  xdc_runtime_Main_Module__diagsIncluded__C                            
00025e80  xdc_runtime_Main_Module__diagsMask__C                                
00025e84  xdc_runtime_Main_Module__loggerFxn1__C                               
00025e88  xdc_runtime_Main_Module__loggerFxn2__C                               
00025e8c  xdc_runtime_Main_Module__loggerFxn4__C                               
00025e90  xdc_runtime_Main_Module__loggerObj__C                                
00025e94  xdc_runtime_Memory_defaultHeapInstance__C                            
00025e98  xdc_runtime_Startup_execImpl__C                                      
00025e9c  xdc_runtime_Startup_maxPasses__C                                     
00025ea0  xdc_runtime_Startup_sfxnRts__C                                       
00025ea4  xdc_runtime_Startup_sfxnTab__C                                       
00025ea8  xdc_runtime_System_Module__gateObj__C                                
00025eac  xdc_runtime_System_abortFxn__C                                       
00025eb0  xdc_runtime_System_exitFxn__C                                        
00025eb4  xdc_runtime_System_extendFxn__C                                      
00025eb8  xdc_runtime_System_maxAtexitHandlers__C                              
00025ebc  xdc_runtime_Text_charTab__C                                          
00025ec0  xdc_runtime_Text_nameEmpty__C                                        
00025ec4  xdc_runtime_Text_nameStatic__C                                       
00025ec8  xdc_runtime_Text_nameUnknown__C                                      
00025ecc  xdc_runtime_Text_visitRopeFxn__C                                     
00025ed0  ti_sysbios_family_arm_v7r_tms570_Core_Module__id__C                  
00025ed2  ti_sysbios_family_arm_v7r_vim_Hwi_Module__id__C                      
00025ed4  ti_sysbios_family_arm_v7r_vim_Hwi_Module__loggerDefined__C           
00025ed6  ti_sysbios_gates_GateMutex_Module__id__C                             
00025ed8  ti_sysbios_hal_Hwi_Module__id__C                                     
00025eda  ti_sysbios_heaps_HeapMem_Module__id__C                               
00025edc  ti_sysbios_knl_Clock_Module__id__C                                   
00025ede  ti_sysbios_knl_Clock_Module__loggerDefined__C                        
00025ee0  ti_sysbios_knl_Semaphore_Module__id__C                               
00025ee2  ti_sysbios_knl_Semaphore_Module__loggerDefined__C                    
00025ee4  ti_sysbios_knl_Task_Module__id__C                                    
00025ee6  ti_sysbios_knl_Task_Module__loggerDefined__C                         
00025ee8  ti_sysbios_timers_rti_Timer_Module__id__C                            
00025eea  ti_sysbios_timers_rti_Timer_continueOnSuspend__C                     
00025eec  ti_sysbios_utils_Load_Module__id__C                                  
00025eee  ti_sysbios_utils_Load_Module__loggerDefined__C                       
00025ef0  ti_sysbios_utils_Load_autoAddTasks__C                                
00025ef2  ti_sysbios_utils_Load_updateInIdle__C                                
00025ef4  xdc_runtime_Core_Module__id__C                                       
00025ef6  xdc_runtime_Error_Module__loggerDefined__C                           
00025ef8  xdc_runtime_Error_maxDepth__C                                        
00025efa  xdc_runtime_LoggerBuf_Module__id__C                                  
00025efc  xdc_runtime_LoggerBuf_filterByLevel__C                               
00025efe  xdc_runtime_Main_Module__id__C                                       
00025f00  xdc_runtime_Main_Module__loggerDefined__C                            
00025f02  xdc_runtime_Memory_Module__id__C                                     
00025f04  xdc_runtime_Text_charCnt__C                                          
00025f06  xdc_runtime_Text_isLoaded__C                                         
00025f08  xdc_runtime_Text_registryModsLastId__C                               
00025f0a  xdc_runtime_Text_unnamedModsLastId__C                                
00025f10  __TI_static_base__                                                   
00026420  __TI_Handler_Table_Base                                              
0002642c  __TI_Handler_Table_Limit                                             
00026458  __TI_CINIT_Base                                                      
00026488  __TI_CINIT_Limit                                                     
08000000  ti_sysbios_heaps_HeapMem_Instance_State_0_buf__A                     
08010000  gDPC_ObjDetTCM                                                       
0801c400  xdc_runtime_LoggerBuf_Instance_State_0_entryArr__A                   
0801dd00  ti_sysbios_family_arm_exc_Exception_Module_State_0_excStack_0__A     
0801ed00  edmaDbg                                                              
0801f1e8  ti_sysbios_knl_Task_Instance_State_0_stack__A                        
0801f508  gCLI                                                                 
0801f6b0  gGPIOMCB                                                             
0801f844  __CIOBUF_                                                            
0801f964  gMMWave_MCB                                                          
0801fa64  __TI_tmpnams                                                         
0801fb04  gObjDetObj                                                           
0801fb08  gHSIHeaderMCB                                                        
0801fb98  gEsmMCB                                                              
0801fc08  gMMWave_DualcoreMCB                                                  
0801fc10  parmbuf                                                              
0801fc18  ti_sysbios_knl_Task_Instance_State_0_hookEnv__A                      
0801fc20  gRFLdoBypassCfg                                                      
0801fc28  gMmwMCB                                                              
08020440  rl_txMsg                                                             
08020540  rl_rxMsg                                                             
08020828  gCLI_mmwave_freq_scale_factor                                        
08020830  gCLIMMWaveOpenCfg                                                    
08020858  gCLIMMWaveExtensionTable                                             
08020900  gCLIMMWaveControlCfg                                                 
080209cc  partInfoStringArray                                                  
08020b90  ti_sysbios_family_arm_v7r_vim_Hwi_Module_State_0_dispatchTable__A    
08020d90  _ftable                                                              
08020e80  ti_sysbios_utils_Load_Module__state__V                               
08020f18  ti_sysbios_knl_Task_Module_State_0_readyQ__A                         
08020f98  _device                                                              
08021010  gCBUFFHwAttribute                                                    
08021088  ti_sysbios_knl_Task_Object__table__V                                 
080210e4  gUartSciHwCfg                                                        
0802113c  _stream                                                              
0802118c  gMailboxMCB                                                          
080211dc  ti_sysbios_knl_Task_Module__state__V                                 
08021224  SOC_TranslateAddr_LUT                                                
08021264  ti_sysbios_gates_GateMutex_Object__table__V                          
080212a4  ti_sysbios_timers_rti_Timer_Object__table__V                         
080212e0  gCBUFFInterfaceFxn                                                   
08021318  ti_sysbios_family_arm_v7r_vim_Hwi_Module__state__V                   
0802134c  gHWAHwCfg                                                            
0802137c  ti_sysbios_family_arm_v7r_vim_Hwi_Object__table__V                   
080213a8  ti_sysbios_knl_Clock_Module__state__V                                
080213d4  gUartSciFxnTable                                                     
080213fc  UART_config                                                          
08021420  gDPC_ObjectDetectionCfg                                              
08021444  ti_sysbios_BIOS_Module__state__V                                     
08021468  xdc_runtime_LoggerBuf_Object__table__V                               
0802148c  gHWADriverPtr                                                        
08021490  gSOCHwAttrib                                                         
080214b0  ti_sysbios_knl_Clock_Object__table__V                                
080214d0  xdc_runtime_Error_IgnoreBlock                                        
080214f0  xdc_runtime_System_Module_State_0_atexitHandlers__A                  
08021510  gAntDef_IWR6843ODS                                                   
0802152c  ti_sysbios_utils_Load_Module_State_0_taskEnv__A                      
08021548  ADCBuf_config                                                        
08021560  gInterleavedTransferFxn                                              
08021578  gMailboxMssBssHwCfg                                                  
08021590  gMailboxMssDssHwCfg                                                  
080215a8  gMultipleChirpNonInterleavedTransferFxn                              
080215c0  gNonInterleavedTransferFxn                                           
080215d8  ti_sysbios_heaps_HeapMem_Object__table__V                            
080215f0  ti_sysbios_timers_rti_Timer_Module_State_0_device__A                 
08021608  gDPMRemoteTable                                                      
0802161c  ti_sysbios_family_arm_exc_Exception_Module__state__V                 
08021630  gHwaEDMAChanMapping                                                  
08021640  __TI_ft_end                                                          
08021644  __aeabi_stdin                                                        
08021648  __aeabi_stdout                                                       
0802164c  __aeabi_stderr                                                       
08021650  ti_sysbios_timers_rti_Timer_Module_State_0_intFreqs__A               
08021660  ti_sysbios_timers_rti_Timer_Module__state__V                         
08021670  __TI_cleanup_ptr                                                     
08021674  __TI_dtors_ptr                                                       
08021678  __TI_enable_exit_profile_output                                      
0802167c  gESMHwCfgAttrs                                                       
08021688  ti_sysbios_family_arm_v7a_Pmu_Module__state__V                       
08021694  ti_sysbios_knl_Task_Module__root__V                                  
080216a0  _lock                                                                
080216a4  _unlock                                                              
080216a8  MmwDemo_RFParserHwCfg                                                
080216b0  gDPMHwAttrib                                                         
080216b8  gGPIOHwAtrrib                                                        
080216c0  ti_sysbios_family_arm_v7r_vim_Hwi_Module__root__V                    
080216c8  ti_sysbios_gates_GateHwi_Module__root__V                             
080216d0  ti_sysbios_gates_GateMutex_Module__root__V                           
080216d8  ti_sysbios_hal_Hwi_Object__table__V                                  
080216e0  ti_sysbios_heaps_HeapMem_Module__root__V                             
080216e8  ti_sysbios_knl_Queue_Module__root__V                                 
080216f0  ti_sysbios_knl_Semaphore_Module__root__V                             
080216f8  ti_sysbios_timers_rti_Timer_Module_State_0_handles__A                
08021700  xdc_runtime_LoggerBuf_Module__root__V                                
08021708  xdc_runtime_Registry_Module__state__V                                
08021710  xdc_runtime_Startup_Module__state__V                                 
08021718  xdc_runtime_System_Module__state__V                                  
08021720  xdc_runtime_LoggerBuf_Module__state__V                               
08021726  ti_sysbios_family_arm_exc_Exception_Module_State_0_excActive__A      
0802172c  gCRCRegister                                                         
08021730  gDPM                                                                 
08021734  regionId                                                             
08021738  gPinmuxRegs                                                          
08021740  errno                                                                
0802174c  main_func_sp                                                         
08021754  ti_sysbios_family_arm_a15_TimestampProvider_Module__state__V         
08021758  ti_sysbios_family_arm_exc_Exception_Module_State_0_excContext__A     
0802175c  ti_sysbios_family_arm_exc_Exception_Module_State_0_excStackBuffers__A
08021760  ti_sysbios_family_arm_exc_Exception_Module_State_0_excStack__A       
08021764  ti_sysbios_gates_GateHwi_Object__table__V                            
08021768  ti_sysbios_heaps_HeapBuf_Module__state__V                            
0802176c  ti_sysbios_knl_Task_Module_State_0_idleTask__A                       
08021770  ti_sysbios_utils_Load_Module_State_0_runningTask__A                  
08021774  ti_sysbios_utils_Load_Module_State_0_taskStartTime__A                
08021778  xdc_runtime_Memory_Module__state__V                                  
0802177c  xdc_runtime_Error_Module__state__V                                   
0802177e  xdc_runtime_Main_Module__root__V                                     
08021780  ti_sysbios_family_arm_v7r_vim_Hwi_Module_State_0_fiqStack__A         
08021f80  __stack                                                              
08022430  __STACK_END                                                          
51000000  gMmwL3                                                               
fffffdec  ti_sysbios_family_arm_v7r_vim_Hwi_vim                                
ffffffff  __TI_pprof_out_hndl                                                  
ffffffff  __TI_prof_data_size                                                  
ffffffff  __TI_prof_data_start                                                 
ffffffff  __binit__                                                            
ffffffff  __c_args__                                                           
ffffffff  binit                                                                
UNDEFED   SHT$$INIT_ARRAY$$Base                                                
UNDEFED   SHT$$INIT_ARRAY$$Limit                                               

[1233 symbols]
