******************************************************************************
               TMS320C6x Linker PC v8.3.3                      
******************************************************************************
>> Linked Mon Apr 12 23:51:55 2021

OUTPUT FILE NAME:   <high_accuracy_68xx_dss.xe674>
ENTRY POINT SYMBOL: "_c_int00"  address: 007fbaa0


MEMORY CONFIGURATION

         name            origin    length      used     unused   attr    fill
----------------------  --------  ---------  --------  --------  ----  --------
PAGE 0:
  L2SRAM_UMAP1          007e0000   00020000  00020000  00000000  RWIX
  L2SRAM_UMAP0          00800000   00020000  0001037b  0000fc85  RWIX
  L1PSRAM               00e00000   00007000  000022c0  00004d40  RWIX
  L1DSRAM               00f00000   00004000  00004000  00000000  RWIX
  L3SRAM                20000000   000c0000  00002b20  000bd4e0  RWIX
  HWA_RAM               21030000   00010000  00000000  00010000  RWIX
  HSRAM                 21080000   00008000  00002020  00005fe0  RWIX

PAGE 1:
  L3SRAM                20000000   000c0000  00010000  000b0000  RWIX


SEGMENT ALLOCATION MAP

run origin  load origin   length   init length attrs members
----------  ----------- ---------- ----------- ----- -------
007e0000    007e0000    00021060   00021060    r-x
  007e0000    007e0000    00000200   00000200    r-x .vecs
  007e0200    007e0200    0001fe00   0001fe00    r-x .text.1
  00800000    00800000    00001060   00001060    r-x .text.2
00801060    00801060    0000be00   00000000    rw-
  00801060    00801060    00005000   00000000    rw- .l2data
  00806060    00806060    00004000   00000000    rw- systemHeap
  0080a060    0080a060    00002e00   00000000    rw- .far
0080ce60    0080ce60    00001d29   00001d29    r--
  0080ce60    0080ce60    00001d29   00001d29    r-- .const
0080eb90    0080eb90    000014e0   000010c6    rw-
  0080eb90    0080eb90    000010c6   000010c6    rw- .fardata
  0080fc58    0080fc58    00000418   00000000    rw- .stack
00810070    00810070    000001d4   000001d4    r--
  00810070    00810070    000001d4   000001d4    r-- .switch
00810248    00810248    00000120   00000000    rw-
  00810248    00810248    00000120   00000000    rw- .cio
00810368    00810368    00000010   00000010    rw-
  00810368    00810368    00000010   00000010    rw- .neardata
00810378    00810378    00000010   00000010    r--
  00810378    00810378    00000010   00000010    r-- .ovly
00e00000    20000000    000022c0   000022c0    r-x
  00e00000    20000000    000022c0   000022c0    r-x .fastCode
00f00000    00f00000    00004000   00000000    rw-
  00f00000    00f00000    00004000   00000000    rw- .l1data
200022c0    200022c0    00000860   00000860    r-x
  200022c0    200022c0    00000860   00000860    r-x .overlay
21080000    21080000    00002020   00000000    rw-
  21080000    21080000    00002020   00000000    rw- .hsramdata
20000000    20000000    00010000   00000000    rw-
  20000000    20000000    00010000   00000000    rw- .l3data


SECTION ALLOCATION MAP

 output                                  attributes/
section   page    origin      length       input sections
--------  ----  ----------  ----------   ----------------
.vecs      0    007e0000    00000200     
                  007e0000    00000200     dss_mmw_pe674.oe674 (.vecs)

.text.1    0    007e0200    0001fe00     
                  007e0200    00002040     rts6740_elf.lib : _printfi.c.obj (.text:__TI_printfi)
                  007e2240    000008a0     ti.targets.rts6000.ae674 : System.oe674 (.text:xdc_runtime_System_doPrint__I)
                  007e2ae0    000007e0     sysbios.ae674 : BIOS.obj (.text:ti_sysbios_knl_Event_pend__E)
                  007e32c0    00000780                   : BIOS.obj (.text:ti_sysbios_family_c64p_Exception_handler__I)
                  007e3a40    00000760                   : BIOS.obj (.text:ti_sysbios_knl_Semaphore_pend__E)
                  007e41a0    00000680     libadcbuf_xwr68xx.ae674 : adcbuf_mmwave.oe674 (.text:ADCBUF_MMWave_control)
                  007e4820    00000680     dss_data_path.oe674 (.text:MmwDemo_initConfigStruct)
                  007e4ea0    00000660     rts6740_elf.lib : _printfi.c.obj (.text:_pconv_a)
                  007e5500    00000620     sysbios.ae674 : BIOS.obj (.text:ti_sysbios_heaps_HeapMem_allocUnprotected__E)
                  007e5b20    000005e0     rts6740_elf.lib : divd.c.obj (.text:__c6xabi_divd)
                  007e6100    000005c0     sysbios.ae674 : BIOS.obj (.text:ti_sysbios_heaps_HeapMem_freeUnprotected__E)
                  007e66c0    000005a0     dss_main.oe674 (.text:MmwDemo_dssDataPathTask)
                  007e6c60    00000540     sysbios.ae674 : BIOS.obj (.text:ti_sysbios_knl_Task_Instance_finalize__E)
                  007e71a0    00000500     libmmwave_xwr68xx.ae674 : mmwave_dualcore.oe674 (.text:MMWave_deviceExecuteFxn)
                  007e76a0    00000480     sysbios.ae674 : BIOS.obj (.text:ti_sysbios_knl_Task_sleep__E)
                  007e7b20    00000440                   : BIOS.obj (.text:ti_sysbios_timers_rti_Timer_Module_startup__E)
                  007e7f60    00000420     libmailbox_xwr68xx.ae674 : mailbox.oe674 (.text:Mailbox_open)
                  007e8380    00000400     rts6740_elf.lib : _printfi.c.obj (.text:_pconv_g)
                  007e8780    00000400     libmmwavelink_xwr68xx.ae674 : rl_driver.oe674 (.text:rlDriverRxHdrRead)
                  007e8b80    000003c0     sysbios.ae674 : BIOS.obj (.text:ti_sysbios_knl_Task_Instance_init__E)
                  007e8f40    000003a0     dsplib.ae674 : DSPF_sp_fftSPxSP.oe674 (.text:optimized)
                  007e92e0    000003a0     sysbios.ae674 : BIOS.obj (.text:ti_sysbios_family_c64p_Cache_Module_startup__E)
                  007e9680    00000380                   : BIOS.obj (.text:ti_sysbios_knl_Task_Module_startup__E)
                  007e9a00    00000360     libcrc_xwr68xx.ae674 : crc.oe674 (.text:CRC_open)
                  007e9d60    00000360     libmmwavelink_xwr68xx.ae674 : rl_driver.oe674 (.text:rlDriverMsgRead)
                  007ea0c0    00000360     sysbios.ae674 : BIOS.obj (.text:ti_sysbios_knl_Event_post__E)
                  007ea420    00000320     libuart_xwr68xx.ae674 : uartsci.oe674 (.text:UartSci_open)
                  007ea740    00000320     rts6740_elf.lib : cos.c.obj (.text:cos)
                  007eaa60    00000320                     : fputs.c.obj (.text:fputs)
                  007ead80    00000320     sysbios.ae674 : BIOS.obj (.text:ti_sysbios_knl_Semaphore_post__E)
                  007eb0a0    000002e0     libmmwavelink_xwr68xx.ae674 : rl_driver.oe674 (.text:rlDriverCmdSendRetry)
                  007eb380    000002e0     rts6740_elf.lib : sin.c.obj (.text:sin)
                  007eb660    000002e0     sysbios.ae674 : BIOS.obj (.text:ti_sysbios_heaps_HeapMem_Instance_init__E)
                  007eb940    000002c0     libedma_xwr68xx.ae674 : edma.oe674 (.text:EDMA_configChannel)
                  007ebc00    000002c0                           : edma.oe674 (.text:EDMA_configErrorMonitoring)
                  007ebec0    000002c0     libmmwavelink_xwr68xx.ae674 : rl_driver.oe674 (.text:rlDriverCmdInvoke)
                  007ec180    000002c0     sysbios.ae674 : BIOS.obj (.text:ti_sysbios_knl_Clock_workFunc__E)
                  007ec440    000002a0     libcrc_xwr68xx.ae674 : crc.oe674 (.text:CRC_computeSignature)
                  007ec6e0    000002a0     libedma_xwr68xx.ae674 : edma.oe674 (.text:EDMA_open)
                  007ec980    000002a0     rts6740_elf.lib : _printfi.c.obj (.text:_pconv_e)
                  007ecc20    000002a0                     : _printfi.c.obj (.text:fcvt)
                  007ecec0    00000280                     : divf.c.obj (.text:__c6xabi_divf)
                  007ed140    00000260                     : imath64.c.obj (.text:__c6xabi_divull)
                  007ed3a0    00000260     libmmwavelink_xwr68xx.ae674 : rl_driver.oe674 (.text:rlDriverInit)
                  007ed600    00000260     ti.targets.rts6000.ae674 : Startup.oe674 (.text:xdc_runtime_Startup_startMods__I)
                  007ed860    00000240     libmmwave_xwr68xx.ae674 : mmwave_link.oe674 (.text:MMWave_startLink)
                  007edaa0    00000240     dss_main.oe674 (.text:MmwDemo_dssDataPathConfig)
                  007edce0    00000240     dss_main.oe674 (.text:MmwDemo_dssDataPathInit)
                  007edf20    00000240     libuart_xwr68xx.ae674 : uartsci.oe674 (.text:UartSci_ISR)
                  007ee160    00000240     sysbios.ae674 : BIOS.obj (.text:ti_sysbios_family_c64p_EventCombiner_dispatch__E)
                  007ee3a0    00000240                   : BIOS.obj (.text:ti_sysbios_family_c64p_Exception_internalHandler__I)
                  007ee5e0    00000240                   : BIOS.obj (.text:ti_sysbios_family_c64p_Hwi_dispatchCore__I)
                  007ee820    00000240                   : BIOS.obj (.text:ti_sysbios_timers_rti_Timer_getFreq__E)
                  007eea60    00000240     ti.targets.rts6000.ae674 : Core-mem.oe674 (.text:xdc_runtime_Core_createObject__I)
                  007eeca0    00000240     dss_mmw_pe674.oe674 (.text:xdc_runtime_System_printfExtend__I)
                  007eeee0    00000220     libedma_xwr68xx.ae674 : edma.oe674 (.text:EDMA_transferComplete_isr)
                  007ef100    00000220     libmailbox_xwr68xx.ae674 : mailbox.oe674 (.text:Mailbox_write)
                  007ef320    00000200     libmmwave_xwr68xx.ae674 : mmwave_link.oe674 (.text:MMWave_initMMWaveLink)
                  007ef520    00000200     dss_data_path.oe674 (.text:MmwDemo_dataPathConfigBuffers)
                  007ef720    00000200     rts6740_elf.lib : _printfi.c.obj (.text:_ltostr)
                  007ef920    00000200     sysbios.ae674 : c64p_Hwi_disp_always.obj (.text:_ti_sysbios_family_c64p_Hwi_dispatchAlways)
                  007efb20    00000200     RADARDEMO_highAccuRangeProc_utils.oe674 (.text:tw_gen_float)
                  007efd20    00000200     ti.targets.rts6000.ae674 : Error.oe674 (.text:xdc_runtime_Error_policyDefault__E)
                  007eff20    000001e0     libedma_xwr68xx.ae674 : edma.oe674 (.text:EDMA_init)
                  007f0100    000001e0     libuart_xwr68xx.ae674 : uartsci_edma.oe674 (.text:UartSci_initiateTxEDMA)
                  007f02e0    000001e0                           : uartsci_edma.oe674 (.text:UartSci_openEDMA)
                  007f04c0    000001e0     libmmwavelink_xwr68xx.ae674 : rl_driver.oe674 (.text:rlDriverRdVerifyMsg)
                  007f06a0    000001e0     sysbios.ae674 : BIOS.obj (.text:ti_sysbios_family_c64p_EventCombiner_dispatchPlug__E)
                  007f0880    000001e0                   : BIOS.obj (.text:ti_sysbios_gates_GateMutex_enter__E)
                  007f0a60    000001e0     ti.targets.rts6000.ae674 : Text.oe674 (.text:xdc_runtime_Text_putSite__E)
                  007f0c40    000001c0     libmmwave_xwr68xx.ae674 : mmwave_link.oe674 (.text:MMWave_asyncEventHandler)
                  007f0e00    000001c0                             : mmwave_dualcore.oe674 (.text:MMWave_deviceInitFxn)
                  007f0fc0    000001c0     libmailbox_xwr68xx.ae674 : mailbox.oe674 (.text:Mailbox_read)
                  007f1180    000001c0     dss_main.oe674 (.text:MmwDemo_dssSendProcessOutputToMSS)
                  007f1340    000001c0     dss_main.oe674 (.text:MmwDemo_mboxReadTask)
                  007f1500    000001c0     rts6740_elf.lib : imath40.c.obj (.text:__c6xabi_divul)
                  007f16c0    000001c0                     : fputc.c.obj (.text:fputc)
                  007f1880    000001c0                     : frexp.c.obj (.text:frexp)
                  007f1a40    000001c0     libmmwavelink_xwr68xx.ae674 : rl_driver.oe674 (.text:rlDriverMsgCmdReply)
                  007f1c00    000001c0     rts6740_elf.lib : setvbuf.c.obj (.text:setvbuf)
                  007f1dc0    000001c0     sysbios.ae674 : BIOS.obj (.text:ti_sysbios_knl_Task_checkStacks__E)
                  007f1f80    000001c0                   : BIOS.obj (.text:ti_sysbios_knl_Task_exit__E)
                  007f2140    000001a0     libadcbuf_xwr68xx.ae674 : adcbuf_mmwave.oe674 (.text:ADCBUF_MMWave_open)
                  007f22e0    000001a0     libedma_xwr68xx.ae674 : edma.oe674 (.text:EDMA_paramConfig_assist)
                  007f2480    000001a0     rts6740_elf.lib : hostrename.c.obj (.text:HOSTrename)
                  007f2620    000001a0     dss_main.oe674 (.text:MmwDemo_edmaBlockCopy)
                  007f27c0    000001a0     radarOsal_malloc.oe674 (.text:radarOsal_memAlloc)
                  007f2960    000001a0     libmmwavelink_xwr68xx.ae674 : rl_driver.oe674 (.text:rlDriverDeInit)
                  007f2b00    000001a0                                 : rl_driver.oe674 (.text:rlDriverMsgWrite)
                  007f2ca0    000001a0     sysbios.ae674 : BIOS.obj (.text:ti_sysbios_family_c64p_Cache_getL2InitSize__I)
                  007f2e40    000001a0                   : BIOS.obj (.text:ti_sysbios_family_c64p_EventCombiner_disableEvent__E)
                  007f2fe0    000001a0                   : BIOS.obj (.text:ti_sysbios_family_c64p_EventCombiner_enableEvent__E)
                  007f3180    000001a0                   : BIOS.obj (.text:ti_sysbios_knl_Task_schedule__I)
                  007f3320    000001a0                   : BIOS.obj (.text:ti_sysbios_timers_rti_Timer_startup__E)
                  007f34c0    000001a0     ti.targets.rts6000.ae674 : Core-smem.oe674 (.text:xdc_runtime_Core_constructObject__I)
                  007f3660    00000180     libadcbuf_xwr68xx.ae674 : adcbuf_mmwave.oe674 (.text:ADCBUFCmdParamCheck)
                  007f37e0    00000180     dss_config_edma_util.oe674 (.text:EDMAutil_configType1)
                  007f3960    00000180     libmmwave_xwr68xx.ae674 : mmwave_fullcfg.oe674 (.text:MMWave_flushCfg)
                  007f3ae0    00000180                             : mmwave_fullcfg.oe674 (.text:MMWave_getChirpHandle)
                  007f3c60    00000180                             : mmwave.oe674 (.text:MMWave_start)
                  007f3de0    00000180     rts6740_elf.lib : ldexp.c.obj (.text:ldexp)
                  007f3f60    00000180     sysbios.ae674 : c64p_Exception_asm.obj (.text)
                  007f40e0    00000180                   : BIOS.obj (.text:ti_sysbios_knl_Task_startCore__E)
                  007f4260    00000160     libedma_xwr68xx.ae674 : edma.oe674 (.text:EDMA_getErrorStatusInfo)
                  007f43c0    00000160     libmmwave_xwr68xx.ae674 : mmwave_link.oe674 (.text:MMWave_computeCRC)
                  007f4520    00000160     libmailbox_xwr68xx.ae674 : mailbox.oe674 (.text:Mailbox_close)
                  007f4680    00000160     libsoc_xwr68xx.ae674 : soc.oe674 (.text:SOC_registerSysIntListener)
                  007f47e0    00000160                          : soc_xwr68xx.oe674 (.text:SOC_ungateClock)
                  007f4940    00000160     libuart_xwr68xx.ae674 : uartsci.oe674 (.text:UartSci_readPolling)
                  007f4aa0    00000160                           : uartsci.oe674 (.text:UartSci_writePolling)
                  007f4c00    00000160     libmmwavelink_xwr68xx.ae674 : rl_driver.oe674 (.text:rlDriverMsgReadCmdCtx)
                  007f4d60    00000160                                 : rl_driver.oe674 (.text:rlDriverWaitForResponse)
                  007f4ec0    00000160     sysbios.ae674 : BIOS.obj (.text:ti_sysbios_family_c64p_Hwi_Module_startup__E)
                  007f5020    00000160                   : BIOS.obj (.text:ti_sysbios_knl_Task_postInit__I)
                  007f5180    00000160     ti.targets.rts6000.ae674 : Text.oe674 (.text:xdc_runtime_Text_putMod__E)
                  007f52e0    00000140     libedma_xwr68xx.ae674 : edma_low_level.oe674 (.text:EDMA3Init)
                  007f5420    00000140                           : edma.oe674 (.text:EDMA_clearErrors)
                  007f5560    00000140     libmmwave_xwr68xx.ae674 : mmwave_fullcfg.oe674 (.text:MMWave_addChirp)
                  007f56a0    00000140                             : mmwave.oe674 (.text:MMWave_init)
                  007f57e0    00000140     libsoc_xwr68xx.ae674 : soc.oe674 (.text:SOC_init)
                  007f5920    00000140     libuart_xwr68xx.ae674 : uartsci.oe674 (.text:UartSci_read)
                  007f5a60    00000140                           : uartsci.oe674 (.text:UartSci_write)
                  007f5ba0    00000140     libmmwavelink_xwr68xx.ae674 : rl_device.oe674 (.text:rlDevicePowerOn)
                  007f5ce0    00000140                                 : rl_driver.oe674 (.text:rlDriverMsgReadSpawnCtx)
                  007f5e20    00000140     sysbios.ae674 : BIOS.obj (.text:ti_sysbios_family_c64p_Cache_getL1DInitSize__I)
                  007f5f60    00000140                   : BIOS.obj (.text:ti_sysbios_knl_Semaphore_Instance_init__E)
                  007f60a0    00000140                   : BIOS.obj (.text:ti_sysbios_knl_Task_blockI__E)
                  007f61e0    00000140                   : BIOS.obj (.text:ti_sysbios_timers_rti_Timer_initDevice__I)
                  007f6320    00000140     ti.targets.rts6000.ae674 : Core-mem.oe674 (.text:xdc_runtime_Core_deleteObject__I)
                  007f6460    00000140                              : Text.oe674 (.text:xdc_runtime_Text_putLab__E)
                  007f65a0    00000120     libadcbuf_xwr68xx.ae674 : adcbuf_mmwave.oe674 (.text:ADCBUF_MMWave_getChanBufAddr)
                  007f66c0    00000120     libedma_xwr68xx.ae674 : edma.oe674 (.text:EDMA_configParamSet)
                  007f67e0    00000120     libsoc_xwr68xx.ae674 : soc_xwr68xx.oe674 (.text:SOC_gateClock)
                  007f6900    00000120     boot.ae674 : autoinit.oe674 (.text:_auto_init_elf)
                  007f6a20    00000120     rts6740_elf.lib : _printfi.c.obj (.text:_pconv_f)
                  007f6b40    00000120                     : getdevice.c.obj (.text:getdevice)
                  007f6c60    00000120     libmmwavelink_xwr68xx.ae674 : rl_driver.oe674 (.text:rlDriverAsyncEventHandler)
                  007f6d80    00000120                                 : rl_driver.oe674 (.text:rlDriverProcRdMsg)
                  007f6ea0    00000120     sysbios.ae674 : BIOS.obj (.text:ti_sysbios_knl_Task_unblockI__E)
                  007f6fc0    00000100     libmmwave_xwr68xx.ae674 : mmwave_fullcfg.oe674 (.text:MMWave_addBpmChirp)
                  007f70c0    00000100                             : mmwave_fullcfg.oe674 (.text:MMWave_addProfile)
                  007f71c0    00000100                             : mmwave_fullcfg.oe674 (.text:MMWave_getChirpCfg)
                  007f72c0    00000100                             : mmwave_fullcfg.oe674 (.text:MMWave_getProfileHandle)
                  007f73c0    00000100     libmailbox_xwr68xx.ae674 : mailbox.oe674 (.text:Mailbox_readFlush)
                  007f74c0    00000100     libsoc_xwr68xx.ae674 : soc_xwr68xx_dss.oe674 (.text:SOC_deviceInit)
                  007f75c0    00000100                          : soc_xwr68xx.oe674 (.text:SOC_translateAddress)
                  007f76c0    00000100     libuart_xwr68xx.ae674 : uartsci.oe674 (.text:UartSci_control)
                  007f77c0    00000100                           : uartsci.oe674 (.text:UartSci_readChar)
                  007f78c0    00000100     rts6740_elf.lib : fclose.c.obj (.text:__TI_closefile)
                  007f79c0    00000100                     : _printfi.c.obj (.text:_mcpy)
                  007f7ac0    00000100                     : atoi.c.obj (.text:atoi)
                  007f7bc0    00000100                     : fflush.c.obj (.text:fflush)
                  007f7cc0    00000100                     : fseek.c.obj (.text:fseek)
                  007f7dc0    00000100     radarOsal_malloc.oe674 (.text:radarOsal_memInit)
                  007f7ec0    00000100     libmmwavelink_xwr68xx.ae674 : rl_device.oe674 (.text:rlDeviceGetVersion)
                  007f7fc0    00000100                                 : rl_device.oe674 (.text:rlDevicePowerOff)
                  007f80c0    00000100                                 : rl_driver.oe674 (.text:rlDriverClientCbCheck)
                  007f81c0    00000100                                 : rl_driver.oe674 (.text:rlDriverOsiCbCheck)
                  007f82c0    00000100     ti.targets.rts6000.ae674 : Error.oe674 (.text:xdc_runtime_Error_print__E)
                  007f83c0    00000100                              : Memory.oe674 (.text:xdc_runtime_Memory_alloc__E)
                  007f84c0    00000100                              : Startup.oe674 (.text:xdc_runtime_Startup_exec__E)
                  007f85c0    000000e0     libcrc_xwr68xx.ae674 : crc.oe674 (.text:CRC_getTransactionId)
                  007f86a0    000000e0     libedma_xwr68xx.ae674 : edma.oe674 (.text:EDMA_isTransferComplete)
                  007f8780    000000e0     dss_config_edma_util.oe674 (.text:EDMA_setup_shadow_link)
                  007f8860    000000e0     libedma_xwr68xx.ae674 : edma.oe674 (.text:EDMA_transferController_error_isr)
                  007f8940    000000e0     rts6740_elf.lib : hostlseek.c.obj (.text:HOSTlseek)
                  007f8a20    000000e0                     : hostopen.c.obj (.text:HOSTopen)
                  007f8b00    000000e0                     : hostwrite.c.obj (.text:HOSTwrite)
                  007f8be0    000000e0     libmmwave_xwr68xx.ae674 : mmwave_dualcore.oe674 (.text:MMWave_deviceStartFxn)
                  007f8cc0    000000e0                             : mmwave_fullcfg.oe674 (.text:MMWave_getProfileCfg)
                  007f8da0    000000e0     libmailbox_xwr68xx.ae674 : mailbox.oe674 (.text:Mailbox_boxFullISRMssDss)
                  007f8e80    000000e0                              : mailbox.oe674 (.text:Mailbox_init)
                  007f8f60    000000e0     dss_data_path.oe674 (.text:MmwDemo_printHeapStats)
                  007f9040    000000e0     libuart_xwr68xx.ae674 : uartsci.oe674 (.text:UartSci_writeChar)
                  007f9120    000000e0     rts6740_elf.lib : _ltoa.c.obj (.text:__TI_ltoa)
                  007f9200    000000e0                     : _io_perm.c.obj (.text:__TI_wrt_ok)
                  007f92e0    000000e0                     : close.c.obj (.text:close)
                  007f93c0    000000e0                     : exit.c.obj (.text:exit)
                  007f94a0    000000e0                     : memset.c.obj (.text:memset)
                  007f9580    000000e0                     : printf.c.obj (.text:printf)
                  007f9660    000000e0     libmmwavelink_xwr68xx.ae674 : rl_driver.oe674 (.text:rlDriverHostIrqHandler)
                  007f9740    000000e0                                 : rl_driver.oe674 (.text:rlDriverValidateHdr)
                  007f9820    000000e0     sysbios.ae674 : BIOS.obj (.text:ti_sysbios_heaps_HeapMem_alloc__E)
                  007f9900    000000c0     libcrc_xwr68xx.ae674 : crc.oe674 (.text:CRC_getSignature)
                  007f99c0    000000c0     libedma_xwr68xx.ae674 : edma.oe674 (.text:EDMA_error_isr)
                  007f9a80    000000c0                           : edma.oe674 (.text:EDMA_startDmaTransfer)
                  007f9b40    000000c0     rts6740_elf.lib : hostread.c.obj (.text:HOSTread)
                  007f9c00    000000c0                     : hostunlink.c.obj (.text:HOSTunlink)
                  007f9cc0    000000c0     libmmwave_xwr68xx.ae674 : mmwave_dualcore.oe674 (.text:MMWave_deviceEventFxn)
                  007f9d80    000000c0                             : mmwave_fullcfg.oe674 (.text:MMWave_getNumChirps)
                  007f9e40    000000c0                             : mmwave_link.oe674 (.text:MMWave_initCRC)
                  007f9f00    000000c0                             : mmwave_link.oe674 (.text:MMWave_initLink)
                  007f9fc0    000000c0                             : mmwave_link.oe674 (.text:MMWave_spawn)
                  007fa080    000000c0     libmailbox_xwr68xx.ae674 : mailbox.oe674 (.text:Mailbox_boxFullISRProcessing)
                  007fa140    000000c0     dss_main.oe674 (.text:MmwDemo_dssMmwaveEventCallbackFxn)
                  007fa200    000000c0     libuart_xwr68xx.ae674 : uartsci.oe674 (.text:UartSci_readCancel)
                  007fa2c0    000000c0                           : uartsci.oe674 (.text:UartSci_writeCancel)
                  007fa380    000000c0     rts6740_elf.lib : fflush.c.obj (.text:__TI_doflush)
                  007fa440    000000c0                     : divu.asm.obj (.text:__divu)
                  007fa500    000000c0                     : remi.asm.obj (.text:__remi)
                  007fa5c0    000000c0                     : modf.c.obj (.text:modf)
                  007fa680    000000c0     libmmwavelink_xwr68xx.ae674 : rl_driver.oe674 (.text:rlDriverCalChkSum)
                  007fa740    000000c0                                 : rl_driver.oe674 (.text:rlDriverExecuteGetApi)
                  007fa800    000000c0                                 : rl_driver.oe674 (.text:rlDriverExecuteSetApi)
                  007fa8c0    000000c0                                 : rl_controller.oe674 (.text:rlGetSubBlock)
                  007fa980    000000c0     sysbios.ae674 : BIOS.obj (.text:ti_sysbios_heaps_HeapMem_getStats__E)
                  007faa40    000000c0                   : BIOS.obj (.text:ti_sysbios_knl_Clock_logTick__E)
                  007fab00    000000c0                   : BIOS.obj (.text:ti_sysbios_knl_Task_allBlockedFunction__I)
                  007fabc0    000000c0     dss_mmw_pe674.oe674 (.text:ti_sysbios_knl_Task_create)
                  007fac80    000000c0     rts6740_elf.lib : tls.c.obj (.text:tls:init:__TI_tls_init)
                  007fad40    000000c0     ti.targets.rts6000.ae674 : Assert.oe674 (.text:xdc_runtime_Assert_raise__I)
                  007fae00    000000c0                              : Error.oe674 (.text:xdc_runtime_Error_setX__E)
                  007faec0    000000a0     libedma_xwr68xx.ae674 : edma_low_level.oe674 (.text:EDMA3EnableChInShadowReg)
                  007faf60    000000a0                           : edma.oe674 (.text:EDMA_disableChannel)
                  007fb000    000000a0                           : edma.oe674 (.text:EDMA_enableChannel)
                  007fb0a0    000000a0     rts6740_elf.lib : hostclose.c.obj (.text:HOSTclose)
                  007fb140    000000a0     libmmwave_xwr68xx.ae674 : mmwave.oe674 (.text:MMWave_execute)
                  007fb1e0    000000a0                             : mmwave_link.oe674 (.text:MMWave_executeLink)
                  007fb280    000000a0                             : mmwave_link.oe674 (.text:MMWave_mboxOpen)
                  007fb320    000000a0                             : mmwave.oe674 (.text:MMWave_sync)
                  007fb3c0    000000a0     libmailbox_xwr68xx.ae674 : mailbox.oe674 (.text:Mailbox_boxEmptyISRProcessing)
                  007fb460    000000a0     dss_data_path.oe674 (.text:MmwDemo_dataPathConfigEdma)
                  007fb500    000000a0     dss_data_path.oe674 (.text:MmwDemo_dataPathWait1DInputData)
                  007fb5a0    000000a0     dss_main.oe674 (.text:MmwDemo_dssDataPathOutputLogging)
                  007fb640    000000a0     libsoc_xwr68xx.ae674 : soc.oe674 (.text:SOC_SystemISR)
                  007fb6e0    000000a0     libuart_xwr68xx.ae674 : UART.oe674 (.text:UART_init)
                  007fb780    000000a0                           : uartsci.oe674 (.text:UartSci_close)
                  007fb820    000000a0     rts6740_elf.lib : fopen.c.obj (.text:__TI_cleanup)
                  007fb8c0    000000a0                     : fixfu.c.obj (.text:__c6xabi_fixfu)
                  007fb960    000000a0                     : round.c.obj (.text:__c6xabi_nround)
                  007fba00    000000a0                     : remu.asm.obj (.text:__remu)
                  007fbaa0    000000a0     boot.ae674 : boot.oe674 (.text:_c_int00)
                  007fbb40    000000a0     rts6740_elf.lib : _printfi.c.obj (.text:_ecpy)
                  007fbbe0    000000a0                     : getdevice.c.obj (.text:finddevice)
                  007fbc80    000000a0                     : memcpy64.asm.obj (.text:memcpy)
                  007fbd20    000000a0     libmmwavelink_xwr68xx.ae674 : rl_controller.oe674 (.text:rlAppendSubBlock)
                  007fbdc0    000000a0                                 : rl_driver.oe674 (.text:rlDriverVerifyCRC)
                  007fbe60    000000a0     sysbios.ae674 : BIOS.obj (.text:ti_sysbios_family_c64p_Exception_Module_startup__E)
                  007fbf00    000000a0                   : BIOS.obj (.text:ti_sysbios_family_c64p_Hwi_getStackInfo__E)
                  007fbfa0    000000a0     ti.targets.rts6000.ae674 : Core-params.oe674 (.text:xdc_runtime_Core_assignParams__I)
                  007fc040    000000a0                              : System.oe674 (.text:xdc_runtime_System_formatNum__I)
                  007fc0e0    000000a0                              : System.oe674 (.text:xdc_runtime_System_putchar__I)
                  007fc180    000000a0                              : Text.oe674 (.text:xdc_runtime_Text_printVisFxn__I)
                  007fc220    000000a0                              : Text.oe674 (.text:xdc_runtime_Text_xprintf__I)
                  007fc2c0    00000080     libadcbuf_xwr68xx.ae674 : adcbuf_mmwave.oe674 (.text:ADCBUF_MMWave_close)
                  007fc340    00000080                             : ADCBuf.oe674 (.text:ADCBuf_init)
                  007fc3c0    00000080     libedma_xwr68xx.ae674 : edma_low_level.oe674 (.text:EDMA3MapChToEvtQ)
                  007fc440    00000080                           : edma.oe674 (.text:EDMA_getTransferControllerErrorStatusInfo)
                  007fc4c0    00000080                           : edma.oe674 (.text:EDMA_linkParamSets)
                  007fc540    00000080     libmmwave_xwr68xx.ae674 : mmwave_link.oe674 (.text:MMWave_mboxWrite)
                  007fc5c0    00000080     libmailbox_xwr68xx.ae674 : mailbox.oe674 (.text:Mailbox_writeReset)
                  007fc640    00000080     dss_main.oe674 (.text:MmwDemo_dssChirpIntHandler)
                  007fc6c0    00000080     dss_main.oe674 (.text:MmwDemo_dssFrameStartIntHandler)
                  007fc740    00000080     libosal_xwr68xx.ae674 : SemaphoreP_tirtos.oe674 (.text:SemaphoreP_create)
                  007fc7c0    00000080     rts6740_elf.lib : trgmsg.c.obj (.text:__TI_readmsg)
                  007fc840    00000080                     : fixdu.c.obj (.text:__c6xabi_fixdu)
                  007fc8c0    00000080                     : llshift.c.obj (.text:__c6xabi_llshl)
                  007fc940    00000080     sysbios.ae674 : c62_TaskSupport_asm.obj (.text:_ti_sysbios_family_c62_TaskSupport_swap__E)
                  007fc9c0    00000080     libmmwavelink_xwr68xx.ae674 : rl_driver.oe674 (.text:rlDeviceIdentifyCmdDir)
                  007fca40    00000080                                 : rl_driver.oe674 (.text:rlDriverOsiInit)
                  007fcac0    00000080     dss_mmw_pe674.oe674 (.text:ti_sysbios_BIOS_atExitFunc__I)
                  007fcb40    00000080     dss_mmw_pe674.oe674 (.text:ti_sysbios_BIOS_registerRTSLock__I)
                  007fcbc0    00000080     sysbios.ae674 : BIOS.obj (.text:ti_sysbios_family_c64p_Hwi_dispatchC__I)
                  007fcc40    00000080     dss_mmw_pe674.oe674 (.text:ti_sysbios_gates_GateHwi_Object__create__S)
                  007fccc0    00000080     dss_mmw_pe674.oe674 (.text:ti_sysbios_gates_GateMutex_Object__create__S)
                  007fcd40    00000080     sysbios.ae674 : BIOS.obj (.text:ti_sysbios_hal_Hwi_checkStack)
                  007fcdc0    00000080     dss_mmw_pe674.oe674 (.text:ti_sysbios_heaps_HeapMem_Object__create__S)
                  007fce40    00000080     sysbios.ae674 : BIOS.obj (.text:ti_sysbios_heaps_HeapMem_init__I)
                  007fcec0    00000080     dss_mmw_pe674.oe674 (.text:ti_sysbios_knl_Clock_doTick__I)
                  007fcf40    00000080     dss_mmw_pe674.oe674 (.text:ti_sysbios_knl_Event_create)
                  007fcfc0    00000080     sysbios.ae674 : BIOS.obj (.text:ti_sysbios_knl_Event_pendTimeout__I)
                  007fd040    00000080                   : BIOS.obj (.text:ti_sysbios_knl_Idle_run__E)
                  007fd0c0    00000080     dss_mmw_pe674.oe674 (.text:ti_sysbios_knl_Semaphore_create)
                  007fd140    00000080     sysbios.ae674 : BIOS.obj (.text:ti_sysbios_knl_Semaphore_pendTimeout__I)
                  007fd1c0    00000080     dss_mmw_pe674.oe674 (.text:ti_sysbios_rts_MemAlloc_alloc)
                  007fd240    00000080     sysbios.ae674 : BIOS.obj (.text:ti_sysbios_timers_rti_Timer_stop__E)
                  007fd2c0    00000080     rts6740_elf.lib : unlink.c.obj (.text:unlink)
                  007fd340    00000080     ti.targets.rts6000.ae674 : Core-label.oe674 (.text:xdc_runtime_Core_assignLabel__I)
                  007fd3c0    00000080                              : SysStd.oe674 (.text:xdc_runtime_SysStd_abort__E)
                  007fd440    00000080                              : System.oe674 (.text:xdc_runtime_System_atexit__E)
                  007fd4c0    00000080                              : System.oe674 (.text:xdc_runtime_System_avprintf__E)
                  007fd540    00000080                              : System.oe674 (.text:xdc_runtime_System_processAtExit__E)
                  007fd5c0    00000080                              : System.oe674 (.text:xdc_runtime_System_vprintf__E)
                  007fd640    00000060     libadcbuf_xwr68xx.ae674 : ADCBuf.oe674 (.text:ADCBuf_open)
                  007fd6a0    00000060     libcrc_xwr68xx.ae674 : crc.oe674 (.text:CRC_getCRCDataSelectBitValue)
                  007fd700    00000060                          : crc.oe674 (.text:CRC_getCRCTypeBitValue)
                  007fd760    00000060                          : crc.oe674 (.text:CRC_isTransactionIdValid)
                  007fd7c0    00000060                          : crc.oe674 (.text:CRC_resetSignature)
                  007fd820    00000060     libedma_xwr68xx.ae674 : edma_low_level.oe674 (.text:EDMA3ClrEvt)
                  007fd880    00000060                           : edma_low_level.oe674 (.text:EDMA3ClrIntr)
                  007fd8e0    00000060                           : edma_low_level.oe674 (.text:EDMA3ClrMissEvt)
                  007fd940    00000060                           : edma_low_level.oe674 (.text:EDMA3DisableDmaEvt)
                  007fd9a0    00000060                           : edma_low_level.oe674 (.text:EDMA3DisableEvtIntr)
                  007fda00    00000060                           : edma_low_level.oe674 (.text:EDMA3EnableDmaEvt)
                  007fda60    00000060                           : edma_low_level.oe674 (.text:EDMA3EnableEvtIntr)
                  007fdac0    00000060                           : edma_low_level.oe674 (.text:EDMA3SetEvt)
                  007fdb20    00000060                           : edma.oe674 (.text:EDMA_configTransferControllerError)
                  007fdb80    00000060                           : edma.oe674 (.text:EDMA_isError)
                  007fdbe0    00000060                           : edma.oe674 (.text:EDMA_validate_channelIdchannelType)
                  007fdc40    00000060     libmmwave_xwr68xx.ae674 : mmwave_listlib.oe674 (.text:MMWave_listCat)
                  007fdca0    00000060                             : mmwave_listlib.oe674 (.text:MMWave_listRemoveNode)
                  007fdd00    00000060                             : mmwave_osal.oe674 (.text:MMWave_osalMutexCreate)
                  007fdd60    00000060                             : mmwave_osal.oe674 (.text:MMWave_osalSemCreate)
                  007fddc0    00000060     libmailbox_xwr68xx.ae674 : mailbox.oe674 (.text:Mailbox_Config_init)
                  007fde20    00000060     dss_main.oe674 (.text:MmwDemo_dssMMWaveCtrlTask)
                  007fde80    00000060     dss_main.oe674 (.text:MmwDemo_dssMmwaveOpenCallbackFxn)
                  007fdee0    00000060     libsoc_xwr68xx.ae674 : soc_xwr68xx.oe674 (.text:SOC_setMMWaveDSSLinkState)
                  007fdf40    00000060                          : soc_xwr68xx.oe674 (.text:SOC_setMMWaveMSSLinkState)
                  007fdfa0    00000060                          : soc.oe674 (.text:SOC_unhaltBSS)
                  007fe000    00000060                          : soc_xwr68xx_dss.oe674 (.text:SOC_waitBSSPowerUp)
                  007fe060    00000060     libuart_xwr68xx.ae674 : UART.oe674 (.text:UART_open)
                  007fe0c0    00000060                           : uartsci_edma.oe674 (.text:UartSci_TxEDMACallbackFxn)
                  007fe120    00000060                           : uartsci_edma.oe674 (.text:UartSci_closeEDMA)
                  007fe180    00000060     rts6740_elf.lib : trgmsg.c.obj (.text:__TI_writemsg)
                  007fe1e0    00000060                     : llshift.c.obj (.text:__c6xabi_llshru)
                  007fe240    00000060                     : imath64.c.obj (.text:_subcull)
                  007fe2a0    00000060     sysbios.ae674 : c64p_Hwi_asm_switch.obj (.text:_ti_sysbios_family_c64p_Hwi_switchAndDispatch__I)
                  007fe300    00000060     cycle_measure.oe674 (.text:cache_setMar)
                  007fe360    00000060     rts6740_elf.lib : lseek.c.obj (.text:lseek)
                  007fe3c0    00000060                     : memccpy.c.obj (.text:memccpy)
                  007fe420    00000060     libmmwavelink_xwr68xx.ae674 : rl_device.oe674 (.text:rlDeviceGetMssVersion)
                  007fe480    00000060                                 : rl_sensor.oe674 (.text:rlEnableContMode)
                  007fe4e0    00000060                                 : rl_sensor.oe674 (.text:rlRfRunTimeCalibConfig)
                  007fe540    00000060                                 : rl_sensor.oe674 (.text:rlSensorStart)
                  007fe5a0    00000060     dss_mmw_pe674.oe674 (.text:ti_sysbios_BIOS_errorRaiseHook__I)
                  007fe600    00000060     dss_mmw_pe674.oe674 (.text:ti_sysbios_BIOS_removeRTSLock__I)
                  007fe660    00000060     dss_mmw_pe674.oe674 (.text:ti_sysbios_BIOS_startFunc__I)
                  007fe6c0    00000060     sysbios.ae674 : BIOS.obj (.text:ti_sysbios_family_c62_TaskSupport_start__E)
                  007fe720    00000060                   : BIOS.obj (.text:ti_sysbios_family_c64p_Cache_setMar__E)
                  007fe780    00000060                   : BIOS.obj (.text:ti_sysbios_family_c64p_EventCombiner_Module_startup__E)
                  007fe7e0    00000060                   : BIOS.obj (.text:ti_sysbios_family_c64p_EventCombiner_unused__E)
                  007fe840    00000060     dss_mmw_pe674.oe674 (.text:ti_sysbios_gates_GateMutex_Object__delete__S)
                  007fe8a0    00000060     sysbios.ae674 : BIOS.obj (.text:ti_sysbios_hal_Hwi_initStack)
                  007fe900    00000060                   : BIOS.obj (.text:ti_sysbios_heaps_HeapMem_free__E)
                  007fe960    00000060                   : BIOS.obj (.text:ti_sysbios_knl_Clock_Module_startup__E)
                  007fe9c0    00000060     dss_mmw_pe674.oe674 (.text:ti_sysbios_knl_Queue_construct)
                  007fea20    00000060     dss_mmw_pe674.oe674 (.text:ti_sysbios_knl_Semaphore_Object__delete__S)
                  007fea80    00000060     dss_mmw_pe674.oe674 (.text:ti_sysbios_knl_Semaphore_construct)
                  007feae0    00000060     sysbios.ae674 : BIOS.obj (.text:ti_sysbios_knl_Task_enter__I)
                  007feb40    00000060     rts6740_elf.lib : write.c.obj (.text:write)
                  007feba0    00000060     ti.targets.rts6000.ae674 : Memory.oe674 (.text:xdc_runtime_Memory_valloc__E)
                  007fec00    00000060                              : Text.oe674 (.text:xdc_runtime_Text_cordText__E)
                  007fec60    00000040     libadcbuf_xwr68xx.ae674 : adcbuf_mmwave.oe674 (.text:ADCBUFContinuousModeCtrl)
                  007feca0    00000040                             : adcbuf_mmwave.oe674 (.text:ADCBUFSetPingNumChirpThreshhold)
                  007fece0    00000040                             : adcbuf_mmwave.oe674 (.text:ADCBUFSetPongNumChirpThreshhold)
                  007fed20    00000040                             : adcbuf_mmwave.oe674 (.text:ADCBUFSrcSelect)
                  007fed60    00000040     libcrc_xwr68xx.ae674 : crc.oe674 (.text:CRC_getSignatureRegister)
                  007feda0    00000040                          : crc.oe674 (.text:CRC_releaseTransactionId)
                  007fede0    00000040     libadcbuf_xwr68xx.ae674 : adcbuf_mmwave.oe674 (.text:CSL_FEXTR)
                  007fee20    00000040     libmmwave_xwr68xx.ae674 : mmwave.oe674 (.text:CSL_FEXTR)
                  007fee60    00000040     libsoc_xwr68xx.ae674 : soc.oe674 (.text:CSL_FEXTR)
                  007feea0    00000040                          : soc_xwr68xx.oe674 (.text:CSL_FEXTR)
                  007feee0    00000040     libuart_xwr68xx.ae674 : uartsci.oe674 (.text:CSL_FEXTR)
                  007fef20    00000040     libadcbuf_xwr68xx.ae674 : adcbuf_mmwave.oe674 (.text:CSL_FINSR)
                  007fef60    00000040     libcrc_xwr68xx.ae674 : crc.oe674 (.text:CSL_FINSR)
                  007fefa0    00000040     libmailbox_xwr68xx.ae674 : mailbox.oe674 (.text:CSL_FINSR)
                  007fefe0    00000040     libsoc_xwr68xx.ae674 : soc.oe674 (.text:CSL_FINSR)
                  007ff020    00000040                          : soc_xwr68xx.oe674 (.text:CSL_FINSR)
                  007ff060    00000040                          : soc_xwr68xx_dss.oe674 (.text:CSL_FINSR)
                  007ff0a0    00000040     libuart_xwr68xx.ae674 : uartsci.oe674 (.text:CSL_FINSR)
                  007ff0e0    00000040     libedma_xwr68xx.ae674 : edma_low_level.oe674 (.text:EDMA3MapQdmaChToPaRAM)
                  007ff120    00000040                           : edma_low_level.oe674 (.text:EDMA3SetPaRAM)
                  007ff160    00000040                           : edma_low_level.oe674 (.text:EDMA3SetQdmaTrigWord)
                  007ff1a0    00000040     libosal_xwr68xx.ae674 : HwiP_tirtos.oe674 (.text:HwiP_create)
                  007ff1e0    00000040                           : HwiP_tirtos.oe674 (.text:HwiP_delete)
                  007ff220    00000040     libmmwave_xwr68xx.ae674 : mmwave_dualcore.oe674 (.text:MMWave_deviceSyncFxn)
                  007ff260    00000040                             : mmwave.oe674 (.text:MMWave_encodeError)
                  007ff2a0    00000040                             : mmwave_listlib.oe674 (.text:MMWave_listAdd)
                  007ff2e0    00000040                             : mmwave_listlib.oe674 (.text:MMWave_listRemove)
                  007ff320    00000040                             : mmwave_osal.oe674 (.text:MMWave_osalMutexLock)
                  007ff360    00000040                             : mmwave_osal.oe674 (.text:MMWave_osalSemWait)
                  007ff3a0    00000040     libmailbox_xwr68xx.ae674 : mailbox.oe674 (.text:Mailbox_boxEmptyISRBss)
                  007ff3e0    00000040                              : mailbox.oe674 (.text:Mailbox_boxEmptyISRMssDss)
                  007ff420    00000040                              : mailbox.oe674 (.text:Mailbox_boxFullISRBss)
                  007ff460    00000040     dss_main.oe674 (.text:MmwDemo_dssMmwaveConfigCallbackFxn)
                  007ff4a0    00000040     dss_main.oe674 (.text:MmwDemo_dssMmwaveStartCallbackFxn)
                  007ff4e0    00000040     dss_main.oe674 (.text:MmwDemo_dssMmwaveStopCallbackFxn)
                  007ff520    00000040     libsoc_xwr68xx.ae674 : soc_xwr68xx_dss.oe674 (.text:SOC_getInAddr_LUTType)
                  007ff560    00000040                          : soc_xwr68xx_dss.oe674 (.text:SOC_getOutAddr_LUTType)
                  007ff5a0    00000040                          : soc_xwr68xx.oe674 (.text:SOC_isMMWaveDSSOperational)
                  007ff5e0    00000040                          : soc_xwr68xx.oe674 (.text:SOC_isMMWaveMSSOperational)
                  007ff620    00000040     rts6740_elf.lib : frcmpyd_div.c.obj (.text:__TI_frcmpyd_div)
                  007ff660    00000040                     : isinf.c.obj (.text:__c6xabi_isinf)
                  007ff6a0    00000040                     : _printfi.c.obj (.text:__c6xabi_isnan)
                  007ff6e0    00000040                     : strasg.asm.obj (.text:__strasgi_64plus)
                  007ff720    00000040                     : args_main.c.obj (.text:_args_main)
                  007ff760    00000040     sysbios.ae674 : c62_TaskSupport_asm.obj (.text:_ti_sysbios_family_c62_TaskSupport_buildTaskStack)
                  007ff7a0    00000040     dss_mmw_pe674.oe674 (.text:free)
                  007ff7e0    00000040     libmmwavelink_xwr68xx.ae674 : rl_controller.oe674 (.text:rlAppendDummy)
                  007ff820    00000040                                 : rl_device.oe674 (.text:rlDeviceGetRfVersion)
                  007ff860    00000040     dss_mmw_pe674.oe674 (.text:ti_sysbios_BIOS_exitFunc__I)
                  007ff8a0    00000040     dss_mmw_pe674.oe674 (.text:ti_sysbios_BIOS_rtsLock__I)
                  007ff8e0    00000040     dss_mmw_pe674.oe674 (.text:ti_sysbios_BIOS_rtsUnlock__I)
                  007ff920    00000040     sysbios.ae674 : BIOS.obj (.text:ti_sysbios_family_c64p_Hwi_disableInterrupt__E)
                  007ff960    00000040                   : BIOS.obj (.text:ti_sysbios_family_c64p_Hwi_enableInterrupt__E)
                  007ff9a0    00000040     dss_mmw_pe674.oe674 (.text:ti_sysbios_gates_GateHwi_Handle__label__S)
                  007ff9e0    00000040     dss_mmw_pe674.oe674 (.text:ti_sysbios_gates_GateHwi_Object__delete__S)
                  007ffa20    00000040     dss_mmw_pe674.oe674 (.text:ti_sysbios_gates_GateMutex_Handle__label__S)
                  007ffa60    00000040     sysbios.ae674 : BIOS.obj (.text:ti_sysbios_gates_GateMutex_Instance_init__E)
                  007ffaa0    00000040                   : BIOS.obj (.text:ti_sysbios_gates_GateMutex_leave__E)
                  007ffae0    00000040     dss_mmw_pe674.oe674 (.text:ti_sysbios_heaps_HeapMem_Handle__label__S)
                  007ffb20    00000040     dss_mmw_pe674.oe674 (.text:ti_sysbios_heaps_HeapMem_Object__delete__S)
                  007ffb60    00000040     dss_mmw_pe674.oe674 (.text:ti_sysbios_heaps_HeapMem_Object__get__S)
                  007ffba0    00000040     dss_mmw_pe674.oe674 (.text:ti_sysbios_knl_Semaphore_destruct)
                  007ffbe0    00000040     dss_mmw_pe674.oe674 (.text:ti_sysbios_knl_Task_Object__get__S)
                  007ffc20    00000040     sysbios.ae674 : BIOS.obj (.text:ti_sysbios_knl_Task_sleepTimeout__I)
                  007ffc60    00000040                   : BIOS.obj (.text:ti_sysbios_timers_rti_Timer_periodicStub__E)
                  007ffca0    00000040     rts6740_elf.lib : wcslen.c.obj (.text:wcslen)
                  007ffce0    00000040     ti.targets.rts6000.ae674 : Error.oe674 (.text:xdc_runtime_Error_check__E)
                  007ffd20    00000040                              : Error.oe674 (.text:xdc_runtime_Error_init__E)
                  007ffd60    00000040                              : Registry.oe674 (.text:xdc_runtime_Registry_findById__E)
                  007ffda0    00000040                              : System.oe674 (.text:xdc_runtime_System_abort__E)
                  007ffde0    00000040     dss_mmw_pe674.oe674 (.text:xdc_runtime_System_aprintf__E)
                  007ffe20    00000040     ti.targets.rts6000.ae674 : System.oe674 (.text:xdc_runtime_System_exit__E)
                  007ffe60    00000040     dss_mmw_pe674.oe674 (.text:xdc_runtime_System_printf__E)
                  007ffea0    00000020     libadcbuf_xwr68xx.ae674 : adcbuf_mmwave.oe674 (.text:ADCBUF_MMWave_init)
                  007ffec0    00000020                             : ADCBuf.oe674 (.text:ADCBuf_Params_init)
                  007ffee0    00000020                             : ADCBuf.oe674 (.text:ADCBuf_control)
                  007fff00    00000020     libcrc_xwr68xx.ae674 : crc.oe674 (.text:CRC_initConfigParams)
                  007fff20    00000020     libsoc_xwr68xx.ae674 : soc_xwr68xx_dss.oe674 (.text:CSL_FEXTR)
                  007fff40    00000020     libedma_xwr68xx.ae674 : edma_low_level.oe674 (.text:EDMA3ChannelToParamMap)
                  007fff60    00000020                           : edma_low_level.oe674 (.text:EDMA3ClrCCErr)
                  007fff80    00000020                           : edma_low_level.oe674 (.text:EDMA3DisableQdmaEvt)
                  007fffa0    00000020                           : edma_low_level.oe674 (.text:EDMA3EnableQdmaEvt)
                  007fffc0    00000010     RADARDEMO_highAccuRangeProc.oe674 ($Tramp$S$$RADARDEMO_highAccuRangeProc_create)
                  007fffd0    00000010     dss_data_path.oe674 ($Tramp$S$$MmwDemo_dataPathInitEdma)
                  007fffe0    00000010     dss_data_path.oe674 ($Tramp$S$$MmwDemo_interFrameProcessing)
                  007ffff0    00000010     dss_data_path.oe674 ($Tramp$S$$MmwDemo_processChirp)

.text.2    0    00800000    00001060     
                  00800000    00000020     libedma_xwr68xx.ae674 : edma_low_level.oe674 (.text:EDMA3ErrIntrHighStatusGet)
                  00800020    00000020                           : edma_low_level.oe674 (.text:EDMA3GetCCErrStatus)
                  00800040    00000020                           : edma_low_level.oe674 (.text:EDMA3GetErrIntrStatus)
                  00800060    00000020                           : edma_low_level.oe674 (.text:EDMA3GetIntrStatus)
                  00800080    00000020                           : edma_low_level.oe674 (.text:EDMA3IntrStatusHighGet)
                  008000a0    00000020                           : edma_low_level.oe674 (.text:EDMA3QdmaClrMissEvt)
                  008000c0    00000020                           : edma_low_level.oe674 (.text:EDMA3QdmaGetErrIntrStatus)
                  008000e0    00000020                           : edma.oe674 (.text:EDMA_getNumInstances)
                  00800100    00000020                           : edma_low_level.oe674 (.text:EDMAsetRegion)
                  00800120    00000020     libosal_xwr68xx.ae674 : HwiP_tirtos.oe674 (.text:HwiP_Params_init)
                  00800140    00000020                           : HwiP_tirtos.oe674 (.text:HwiP_disable)
                  00800160    00000020                           : HwiP_tirtos.oe674 (.text:HwiP_disableInterrupt)
                  00800180    00000020                           : HwiP_tirtos.oe674 (.text:HwiP_enableInterrupt)
                  008001a0    00000020                           : HwiP_tirtos.oe674 (.text:HwiP_restore)
                  008001c0    00000020     libmmwave_xwr68xx.ae674 : mmwave.oe674 (.text:MMWave_decodeErrorLevel)
                  008001e0    00000020                             : mmwave_dualcore.oe674 (.text:MMWave_deviceGetDeviceInfo)
                  00800200    00000020                             : mmwave_dualcore.oe674 (.text:MMWave_deviceMailboxCallbackFxn)
                  00800220    00000020                             : mmwave_link.oe674 (.text:MMWave_disableDevice)
                  00800240    00000020                             : mmwave_link.oe674 (.text:MMWave_enableDevice)
                  00800260    00000020                             : mmwave_listlib.oe674 (.text:MMWave_listGetHead)
                  00800280    00000020                             : mmwave_listlib.oe674 (.text:MMWave_listGetNext)
                  008002a0    00000020                             : mmwave_link.oe674 (.text:MMWave_maskHostIRQ)
                  008002c0    00000020                             : mmwave_link.oe674 (.text:MMWave_mboxCallbackFxn)
                  008002e0    00000020                             : mmwave_link.oe674 (.text:MMWave_mboxClose)
                  00800300    00000020                             : mmwave_link.oe674 (.text:MMWave_mboxRead)
                  00800320    00000020                             : mmwave_osal.oe674 (.text:MMWave_osalMutexDelete)
                  00800340    00000020                             : mmwave_osal.oe674 (.text:MMWave_osalMutexUnlock)
                  00800360    00000020                             : mmwave_osal.oe674 (.text:MMWave_osalSemDelete)
                  00800380    00000020                             : mmwave_osal.oe674 (.text:MMWave_osalSemSignal)
                  008003a0    00000020                             : mmwave_link.oe674 (.text:MMWave_registerInterruptHandler)
                  008003c0    00000020                             : mmwave_link.oe674 (.text:MMWave_unmaskHostIRQ)
                  008003e0    00000020                             : mmwave_link.oe674 (.text:MMWave_waitIRQStatus)
                  00800400    00000020     libosal_xwr68xx.ae674 : MemoryP_tirtos.oe674 (.text:MemoryP_ctrlAlloc)
                  00800420    00000020                           : MemoryP_tirtos.oe674 (.text:MemoryP_ctrlFree)
                  00800440    00000020     dss_data_path.oe674 (.text:MmwDemo_dataPathInit1Dstate)
                  00800460    00000020     dss_main.oe674 (.text:MmwDemo_dssMmwaveCloseCallbackFxn)
                  00800480    00000020     dss_data_path.oe674 (.text:MmwDemo_edmaErrorCallbackFxn)
                  008004a0    00000020     dss_data_path.oe674 (.text:MmwDemo_edmaTransferControllerErrorCallbackFxn)
                  008004c0    00000020     dss_main.oe674 (.text:MmwDemo_mboxCallback)
                  008004e0    00000020     libosal_xwr68xx.ae674 : SemaphoreP_tirtos.oe674 (.text:SemaphoreP_Params_init)
                  00800500    00000020                           : SemaphoreP_tirtos.oe674 (.text:SemaphoreP_delete)
                  00800520    00000020                           : SemaphoreP_tirtos.oe674 (.text:SemaphoreP_pend)
                  00800540    00000020                           : SemaphoreP_tirtos.oe674 (.text:SemaphoreP_post)
                  00800560    00000020     libuart_xwr68xx.ae674 : UART.oe674 (.text:UART_Params_init)
                  00800580    00000020                           : uartsci.oe674 (.text:UartSci_disableTxDMA)
                  008005a0    00000020                           : uartsci.oe674 (.text:UartSci_enableTxDMA)
                  008005c0    00000020                           : uartsci.oe674 (.text:UartSci_init)
                  008005e0    00000020                           : uartsci_edma.oe674 (.text:UartSci_initiateRxEDMA)
                  00800600    00000020                           : uartsci_edma.oe674 (.text:UartSci_isEDMAEnabled)
                  00800620    00000020     libosal_xwr68xx.ae674 : DebugP_tirtos.oe674 (.text:_DebugP_assert)
                  00800640    00000020     rts6740_elf.lib : errno.c.obj (.text:__c6xabi_errno_addr)
                  00800660    00000020                     : trunc.c.obj (.text:__c6xabi_trunc)
                  00800680    00000020                     : push.asm.obj (.text:__pop_rts)
                  008006a0    00000020                     : push.asm.obj (.text:__push_rts)
                  008006c0    00000020                     : _lock.c.obj (.text:_nop)
                  008006e0    00000020                     : printf.c.obj (.text:_outc)
                  00800700    00000020                     : printf.c.obj (.text:_outs)
                  00800720    00000020                     : _lock.c.obj (.text:_register_lock)
                  00800740    00000020                     : _lock.c.obj (.text:_register_unlock)
                  00800760    00000020                     : signbit.c.obj (.text:_signbit)
                  00800780    00000020     sysbios.ae674 : c62_TaskSupport_asm.obj (.text:_ti_sysbios_family_c62_TaskSupport_glue)
                  008007a0    00000020     rts6740_elf.lib : exit.c.obj (.text:abort)
                  008007c0    00000020     cycle_measure.oe674 (.text:cache_setL2Size)
                  008007e0    00000020     cycle_measure.oe674 (.text:cache_wbInvAllL2Wait)
                  00800800    00000020     rts6740_elf.lib : fputc.c.obj (.text:putchar)
                  00800820    00000020     radarOsal_malloc.oe674 (.text:radarOsal_memDeInit)
                  00800840    00000020     libmmwavelink_xwr68xx.ae674 : rl_driver.oe674 (.text:rlDriverGetHandle)
                  00800860    00000020                                 : rl_driver.oe674 (.text:rlDriverGetPlatformId)
                  00800880    00000020                                 : rl_driver.oe674 (.text:rlDriverIsDeviceMapValid)
                  008008a0    00000020                                 : rl_controller.oe674 (.text:rlGetSubBlockId)
                  008008c0    00000020                                 : rl_controller.oe674 (.text:rlGetSubBlockLen)
                  008008e0    00000020     cycle_measure.oe674 (.text:startClock)
                  00800900    00000020     dss_mmw_pe674.oe674 (.text:ti_sysbios_BIOS_RtsGateProxy_enter__E)
                  00800920    00000020     dss_mmw_pe674.oe674 (.text:ti_sysbios_BIOS_RtsGateProxy_leave__E)
                  00800940    00000020     sysbios.ae674 : BIOS.obj (.text:ti_sysbios_BIOS_linkedWithIncorrectBootLibrary__E)
                  00800960    00000020     dss_mmw_pe674.oe674 (.text:ti_sysbios_BIOS_nullFunc__I)
                  00800980    00000020     sysbios.ae674 : BIOS.obj (.text:ti_sysbios_BIOS_setThreadType__E)
                  008009a0    00000020                   : BIOS.obj (.text:ti_sysbios_BIOS_start__E)
                  008009c0    00000020     dss_mmw_pe674.oe674 (.text:ti_sysbios_family_c62_TaskSupport_Module__startupDone__S)
                  008009e0    00000020     sysbios.ae674 : BIOS.obj (.text:ti_sysbios_family_c62_TaskSupport_checkStack__E)
                  00800a00    00000020                   : BIOS.obj (.text:ti_sysbios_family_c62_TaskSupport_getStackAlignment__E)
                  00800a20    00000020     dss_mmw_pe674.oe674 (.text:ti_sysbios_family_c64p_Hwi_Module__startupDone__F)
                  00800a40    00000020     sysbios.ae674 : BIOS.obj (.text:ti_sysbios_family_c64p_Hwi_clearInterrupt__E)
                  00800a60    00000020                   : BIOS.obj (.text:ti_sysbios_family_c64p_Hwi_startup__E)
                  00800a80    00000020                   : BIOS.obj (.text:ti_sysbios_family_c64p_Hwi_switchFromBootStack__E)
                  00800aa0    00000020                   : BIOS.obj (.text:ti_sysbios_gates_GateHwi_Instance_init__E)
                  00800ac0    00000020                   : BIOS.obj (.text:ti_sysbios_gates_GateHwi_enter__E)
                  00800ae0    00000020                   : BIOS.obj (.text:ti_sysbios_gates_GateHwi_leave__E)
                  00800b00    00000020                   : BIOS.obj (.text:ti_sysbios_gates_GateHwi_query__E)
                  00800b20    00000020                   : BIOS.obj (.text:ti_sysbios_gates_GateMutex_Instance_finalize__E)
                  00800b40    00000020                   : BIOS.obj (.text:ti_sysbios_gates_GateMutex_query__E)
                  00800b60    00000020                   : BIOS.obj (.text:ti_sysbios_hal_Hwi_Module_startup__E)
                  00800b80    00000020     dss_mmw_pe674.oe674 (.text:ti_sysbios_heaps_HeapMem_Module_GateProxy_enter__E)
                  00800ba0    00000020     dss_mmw_pe674.oe674 (.text:ti_sysbios_heaps_HeapMem_Module_GateProxy_leave__E)
                  00800bc0    00000020     sysbios.ae674 : BIOS.obj (.text:ti_sysbios_heaps_HeapMem_isBlocking__E)
                  00800be0    00000020     dss_mmw_pe674.oe674 (.text:ti_sysbios_knl_Clock_TimerProxy_getMaxTicks__E)
                  00800c00    00000020     sysbios.ae674 : BIOS.obj (.text:ti_sysbios_knl_Event_Instance_init__E)
                  00800c20    00000020                   : BIOS.obj (.text:ti_sysbios_knl_Idle_loop__E)
                  00800c40    00000020                   : BIOS.obj (.text:ti_sysbios_knl_Queue_Instance_init__E)
                  00800c60    00000020     dss_mmw_pe674.oe674 (.text:ti_sysbios_knl_Queue_Object__get__S)
                  00800c80    00000020     dss_mmw_pe674.oe674 (.text:ti_sysbios_knl_Queue_destruct)
                  00800ca0    00000020     sysbios.ae674 : BIOS.obj (.text:ti_sysbios_knl_Queue_empty__E)
                  00800cc0    00000020                   : BIOS.obj (.text:ti_sysbios_knl_Semaphore_Instance_finalize__E)
                  00800ce0    00000020     dss_mmw_pe674.oe674 (.text:ti_sysbios_knl_Semaphore_Params__init__S)
                  00800d00    00000020     dss_mmw_pe674.oe674 (.text:ti_sysbios_knl_Semaphore_delete)
                  00800d20    00000020     dss_mmw_pe674.oe674 (.text:ti_sysbios_knl_Task_Params__init__S)
                  00800d40    00000020     sysbios.ae674 : BIOS.obj (.text:ti_sysbios_knl_Task_disable__E)
                  00800d60    00000020                   : BIOS.obj (.text:ti_sysbios_knl_Task_startup__E)
                  00800d80    00000020     dss_mmw_pe674.oe674 (.text:ti_sysbios_timers_rti_Timer_Module__startupDone__F)
                  00800da0    00000020     sysbios.ae674 : BIOS.obj (.text:ti_sysbios_timers_rti_Timer_getMaxTicks__E)
                  00800dc0    00000020     ti.targets.rts6000.ae674 : Error.oe674 (.text:xdc_runtime_Error_getSite__E)
                  00800de0    00000020                              : Error.oe674 (.text:xdc_runtime_Error_raiseX__E)
                  00800e00    00000020                              : Gate.oe674 (.text:xdc_runtime_Gate_enterSystem__E)
                  00800e20    00000020                              : Gate.oe674 (.text:xdc_runtime_Gate_leaveSystem__E)
                  00800e40    00000020     dss_mmw_pe674.oe674 (.text:xdc_runtime_IHeap_alloc)
                  00800e60    00000020     dss_mmw_pe674.oe674 (.text:xdc_runtime_IHeap_free)
                  00800e80    00000020     ti.targets.rts6000.ae674 : Memory.oe674 (.text:xdc_runtime_Memory_calloc__E)
                  00800ea0    00000020                              : Memory.oe674 (.text:xdc_runtime_Memory_free__E)
                  00800ec0    00000020                              : Memory.oe674 (.text:xdc_runtime_Memory_getMaxDefaultTypeAlign__E)
                  00800ee0    00000020     dss_mmw_pe674.oe674 (.text:xdc_runtime_Startup_exec__I)
                  00800f00    00000020     dss_mmw_pe674.oe674 (.text:xdc_runtime_Startup_reset__I)
                  00800f20    00000020     ti.targets.rts6000.ae674 : Startup.oe674 (.text:xdc_runtime_Startup_rtsDone__E)
                  00800f40    00000020                              : SysStd.oe674 (.text:xdc_runtime_SysStd_exit__E)
                  00800f60    00000020                              : SysStd.oe674 (.text:xdc_runtime_SysStd_putch__E)
                  00800f80    00000020                              : SysStd.oe674 (.text:xdc_runtime_SysStd_ready__E)
                  00800fa0    00000020     dss_mmw_pe674.oe674 (.text:xdc_runtime_System_Module_GateProxy_enter__E)
                  00800fc0    00000020     dss_mmw_pe674.oe674 (.text:xdc_runtime_System_Module_GateProxy_leave__E)
                  00800fe0    00000020     ti.targets.rts6000.ae674 : System.oe674 (.text:xdc_runtime_System_Module_startup__E)
                  00801000    00000020                              : System.oe674 (.text:xdc_runtime_System_vsnprintf__E)
                  00801020    00000020                              : Text.oe674 (.text:xdc_runtime_Text_ropeText__E)
                  00801040    00000020     dss_mmw_pe674.oe674 (.text:xdc_runtime_Text_visitRope__I)

.l2data    0    00801060    00005000     UNINITIALIZED
                  00801060    00005000     dss_data_path.oe674 (.l2data)

systemHeap 
*          0    00806060    00004000     UNINITIALIZED
                  00806060    00004000     dss_mmw_pe674.oe674 (systemHeap)

.stack     0    0080fc58    00000418     UNINITIALIZED
                  0080fc58    00000008     boot.ae674 : boot.oe674 (.stack)
                  0080fc60    00000410     --HOLE--

.neardata 
*          0    00810368    00000010     
                  00810368    00000004     libadcbuf_xwr68xx.ae674 : ADCBuf.oe674 (.neardata)
                  0081036c    00000004     libcrc_xwr68xx.ae674 : crc_xwr68xx.oe674 (.neardata)
                  00810370    00000004     libedma_xwr68xx.ae674 : edma_low_level.oe674 (.neardata)
                  00810374    00000004     libuart_xwr68xx.ae674 : UART.oe674 (.neardata)

.cinit     0    00800000    00000000     UNINITIALIZED

.far       0    0080a060    00002e00     UNINITIALIZED
                  0080a060    00002000     (.common:gMmwL2Scratch)
                  0080c060    000004d8     libedma_xwr68xx.ae674 : edma.oe674 (.far:EDMA_object)
                  0080c538    00000338     (.common:gMmwDssMCB)
                  0080c870    00000320     dss_mmw_pe674.oe674 (.far:taskStackSection)
                  0080cb90    00000140     (.common:__TI_tmpnams)
                  0080ccd0    00000100     (.common:gMMWave_MCB)
                  0080cdd0    00000070     (.common:gRadarOsal_heapObj)
                  0080ce40    00000010     (.common:edmaDbg)
                  0080ce50    00000008     (.common:gMMWave_DualcoreMCB)
                  0080ce58    00000008     (.common:parmbuf)

.const     0    0080ce60    00001d29     
                  0080ce60    00000740     dss_main.oe674 (.const:.string)
                  0080d5a0    00000518     sysbios.ae674 : BIOS.obj (.const:.string)
                  0080dab8    000002c8     dss_data_path.oe674 (.const:.string)
                  0080dd80    00000164     dss_config_edma_util.oe674 (.const:.string)
                  0080dee4    00000004     ti.targets.rts6000.ae674 : Assert.oe674 (.const:.string)
                  0080dee8    00000101     rts6740_elf.lib : ctype.c.obj (.const:.string:_ctypes_)
                  0080dfe9    00000001     --HOLE-- [fill = 0]
                  0080dfea    00000002     dss_mmw_pe674.oe674 (.const:ti_sysbios_family_c64p_Cache_Module__id__C)
                  0080dfec    000000dc     radarOsal_malloc.oe674 (.const:.string)
                  0080e0c8    0000007c     RADARDEMO_highAccuRangeProc.oe674 (.const:.string)
                  0080e144    00000074     dss_mmw_pe674.oe674 (.const:.string)
                  0080e1b8    0000006c     libmmwavelink_xwr68xx.ae674 : rl_driver.oe674 (.const:.string)
                  0080e224    00000058     libedma_xwr68xx.ae674 : edma.oe674 (.const:.string)
                  0080e27c    00000058     ti.targets.rts6000.ae674 : Error.oe674 (.const:.string)
                  0080e2d4    0000004c     libmailbox_xwr68xx.ae674 : mailbox.oe674 (.const:.string)
                  0080e320    00000044     dss_mmw_pe674.oe674 (.const:ti_sysbios_knl_Task_Object__PARAMS__C)
                  0080e364    00000040     ti.targets.rts6000.ae674 : Text.oe674 (.const:.string)
                  0080e3a4    0000003c     libsoc_xwr68xx.ae674 : soc_xwr68xx_dss.oe674 (.const:.string)
                  0080e3e0    00000038     libuart_xwr68xx.ae674 : UART.oe674 (.const:UART_defaultParams)
                  0080e418    00000038     libedma_xwr68xx.ae674 : edma_xwr1xxx.oe674 (.const:gEdmaHwAttrs)
                  0080e450    00000034     libmmwave_xwr68xx.ae674 : mmwave_dualcore.oe674 (.const:.string)
                  0080e484    0000002c     ti.targets.rts6000.ae674 : Startup.oe674 (.const:.string)
                  0080e4b0    00000028     libmmwave_xwr68xx.ae674 : mmwave.oe674 (.const:.string)
                  0080e4d8    00000028     dss_mmw_pe674.oe674 (.const:ti_sysbios_heaps_HeapMem_Module__FXNS__C)
                  0080e500    00000024     rts6740_elf.lib : _printfi.c.obj (.const:.string)
                  0080e524    00000024     libmailbox_xwr68xx.ae674 : mailbox.oe674 (.const:Mailbox_defaultCfg)
                  0080e548    00000024     dss_mmw_pe674.oe674 (.const:ti_sysbios_gates_GateHwi_Module__FXNS__C)
                  0080e56c    00000024     dss_mmw_pe674.oe674 (.const:ti_sysbios_gates_GateMutex_Module__FXNS__C)
                  0080e590    00000024     dss_mmw_pe674.oe674 (.const:ti_sysbios_heaps_HeapMem_Object__PARAMS__C)
                  0080e5b4    00000024     dss_mmw_pe674.oe674 (.const:ti_sysbios_knl_Semaphore_Object__PARAMS__C)
                  0080e5d8    00000024     dss_mmw_pe674.oe674 (.const:xdc_runtime_Startup_sfxnTab__A)
                  0080e5fc    00000020     libosal_xwr68xx.ae674 : SemaphoreP_tirtos.oe674 (.const:.string)
                  0080e61c    00000020     dss_mmw_pe674.oe674 (.const:ti_sysbios_gates_GateHwi_Object__DESC__C)
                  0080e63c    00000020     dss_mmw_pe674.oe674 (.const:ti_sysbios_gates_GateMutex_Object__DESC__C)
                  0080e65c    00000020     dss_mmw_pe674.oe674 (.const:ti_sysbios_heaps_HeapMem_Object__DESC__C)
                  0080e67c    00000020     dss_mmw_pe674.oe674 (.const:ti_sysbios_knl_Event_Object__DESC__C)
                  0080e69c    00000020     dss_mmw_pe674.oe674 (.const:ti_sysbios_knl_Queue_Object__DESC__C)
                  0080e6bc    00000020     dss_mmw_pe674.oe674 (.const:ti_sysbios_knl_Semaphore_Object__DESC__C)
                  0080e6dc    00000020     dss_mmw_pe674.oe674 (.const:ti_sysbios_knl_Task_Object__DESC__C)
                  0080e6fc    0000001c     libosal_xwr68xx.ae674 : HwiP_tirtos.oe674 (.const:.string)
                  0080e718    00000018     libmmwave_xwr68xx.ae674 : mmwave_fullcfg.oe674 (.const:.string)
                  0080e730    00000018     ti.targets.rts6000.ae674 : System.oe674 (.const:.string)
                  0080e748    00000018     dss_mmw_pe674.oe674 (.const:ti_sysbios_gates_GateHwi_Object__PARAMS__C)
                  0080e760    00000018     dss_mmw_pe674.oe674 (.const:ti_sysbios_gates_GateMutex_Object__PARAMS__C)
                  0080e778    00000018     dss_mmw_pe674.oe674 (.const:ti_sysbios_knl_Event_Object__PARAMS__C)
                  0080e790    00000018     dss_mmw_pe674.oe674 (.const:ti_sysbios_knl_Queue_Object__PARAMS__C)
                  0080e7a8    00000014     libadcbuf_xwr68xx.ae674 : adcbuf_mmwave.oe674 (.const:.string)
                  0080e7bc    00000014     libmmwave_xwr68xx.ae674 : mmwave_link.oe674 (.const:.string)
                  0080e7d0    00000014     libuart_xwr68xx.ae674 : uartsci.oe674 (.const:.string)
                  0080e7e4    00000014                           : uartsci_edma.oe674 (.const:.string)
                  0080e7f8    00000014     libadcbuf_xwr68xx.ae674 : adcbuf_mmwave.oe674 (.const:gADCBufFxnTable)
                  0080e80c    00000004     dss_mmw_pe674.oe674 (.const:ti_sysbios_family_c62_TaskSupport_stackAlignment__C)
                  0080e810    00000012     dss_mmw_pe674.oe674 (.const:xdc_runtime_Startup_sfxnRts__A)
                  0080e822    00000010     libmmwavelink_xwr68xx.ae674 : rl_driver.oe674 (.const:$P$T0$1)
                  0080e832    00000002     dss_mmw_pe674.oe674 (.const:ti_sysbios_family_c64p_EventCombiner_Module__id__C)
                  0080e834    00000004     dss_mmw_pe674.oe674 (.const:ti_sysbios_family_c64p_Cache_E_invalidL1CacheSize__C)
                  0080e838    00000010     libmmwavelink_xwr68xx.ae674 : rl_driver.oe674 (.const:$P$T1$2)
                  0080e848    00000010                                 : rl_driver.oe674 (.const:$P$T10$11)
                  0080e858    00000010                                 : rl_driver.oe674 (.const:$P$T3$4)
                  0080e868    00000010                                 : rl_driver.oe674 (.const:$P$T5$6)
                  0080e878    00000010                                 : rl_driver.oe674 (.const:$P$T6$7)
                  0080e888    00000010                                 : rl_driver.oe674 (.const:$P$T9$10)
                  0080e898    00000010     libadcbuf_xwr68xx.ae674 : ADCBuf.oe674 (.const:ADCBuf_defaultParams)
                  0080e8a8    00000010     libedma_xwr68xx.ae674 : edma.oe674 (.const:EDMA_config$1)
                  0080e8b8    00000010     libadcbuf_xwr68xx.ae674 : adcbuf_xwr1xxx.oe674 (.const:gADCBufHwCfg)
                  0080e8c8    00000010     dss_mmw_pe674.oe674 (.const:ti_sysbios_family_c64p_EventCombiner_EVTMASK__C)
                  0080e8d8    0000000c     libcrc_xwr68xx.ae674 : crc.oe674 (.const:.string)
                  0080e8e4    00000008     dss_mmw_pe674.oe674 (.const:ti_sysbios_knl_Idle_funcList__C)
                  0080e8ec    00000004     dss_mmw_pe674.oe674 (.const:ti_sysbios_family_c64p_Cache_E_invalidL2CacheSize__C)
                  0080e8f0    00000008     dss_mmw_pe674.oe674 (.const:xdc_runtime_Startup_firstFxns__A)
                  0080e8f8    00000008     dss_mmw_pe674.oe674 (.const:xdc_runtime_Startup_firstFxns__C)
                  0080e900    00000008     dss_mmw_pe674.oe674 (.const:xdc_runtime_Startup_lastFxns__C)
                  0080e908    00000004     dss_mmw_pe674.oe674 (.const:ti_sysbios_family_c64p_Cache_MAR0_31__C)
                  0080e90c    00000004     dss_mmw_pe674.oe674 (.const:ti_sysbios_family_c64p_Cache_MAR128_159__C)
                  0080e910    00000004     dss_mmw_pe674.oe674 (.const:ti_sysbios_family_c64p_Cache_MAR160_191__C)
                  0080e914    00000004     dss_mmw_pe674.oe674 (.const:ti_sysbios_family_c64p_Cache_MAR192_223__C)
                  0080e918    00000004     dss_mmw_pe674.oe674 (.const:ti_sysbios_family_c64p_Cache_MAR224_255__C)
                  0080e91c    00000004     dss_mmw_pe674.oe674 (.const:ti_sysbios_family_c64p_Cache_MAR32_63__C)
                  0080e920    00000004     dss_mmw_pe674.oe674 (.const:ti_sysbios_family_c64p_Cache_MAR64_95__C)
                  0080e924    00000004     dss_mmw_pe674.oe674 (.const:ti_sysbios_family_c64p_Cache_MAR96_127__C)
                  0080e928    00000004     dss_mmw_pe674.oe674 (.const:ti_sysbios_family_c64p_EventCombiner_A_invalidEventId__C)
                  0080e92c    00000004     dss_mmw_pe674.oe674 (.const:ti_sysbios_family_c64p_EventCombiner_EVTRegs__C)
                  0080e930    00000004     dss_mmw_pe674.oe674 (.const:ti_sysbios_family_c64p_EventCombiner_E_unpluggedEvent__C)
                  0080e934    00000004     dss_mmw_pe674.oe674 (.const:ti_sysbios_family_c64p_EventCombiner_Module__diagsEnabled__C)
                  0080e938    00000004     dss_mmw_pe674.oe674 (.const:ti_sysbios_family_c64p_EventCombiner_Module__diagsIncluded__C)
                  0080e93c    00000004     dss_mmw_pe674.oe674 (.const:ti_sysbios_family_c64p_EventCombiner_Module__diagsMask__C)
                  0080e940    00000004     dss_mmw_pe674.oe674 (.const:ti_sysbios_family_c64p_Exception_E_exceptionMax__C)
                  0080e944    00000004     dss_mmw_pe674.oe674 (.const:ti_sysbios_family_c64p_Exception_exceptionHook__C)
                  0080e948    00000004     dss_mmw_pe674.oe674 (.const:ti_sysbios_family_c64p_Exception_externalHook__C)
                  0080e94c    00000004     dss_mmw_pe674.oe674 (.const:ti_sysbios_family_c64p_Exception_internalHook__C)
                  0080e950    00000004     dss_mmw_pe674.oe674 (.const:ti_sysbios_family_c64p_Exception_nmiHook__C)
                  0080e954    00000004     dss_mmw_pe674.oe674 (.const:ti_sysbios_family_c64p_Hwi_INTRMUX1Address__C)
                  0080e958    00000004     dss_mmw_pe674.oe674 (.const:ti_sysbios_family_c64p_Hwi_LD_end__C)
                  0080e95c    00000004     dss_mmw_pe674.oe674 (.const:ti_sysbios_family_c64p_Hwi_LM_begin__C)
                  0080e960    00000004     dss_mmw_pe674.oe674 (.const:ti_sysbios_family_c64p_Hwi_Module__diagsEnabled__C)
                  0080e964    00000004     dss_mmw_pe674.oe674 (.const:ti_sysbios_family_c64p_Hwi_Module__diagsIncluded__C)
                  0080e968    00000004     dss_mmw_pe674.oe674 (.const:ti_sysbios_family_c64p_Hwi_Module__diagsMask__C)
                  0080e96c    00000004     dss_mmw_pe674.oe674 (.const:ti_sysbios_family_c64p_Hwi_Module__loggerFxn1__C)
                  0080e970    00000004     dss_mmw_pe674.oe674 (.const:ti_sysbios_family_c64p_Hwi_Module__loggerFxn8__C)
                  0080e974    00000004     dss_mmw_pe674.oe674 (.const:ti_sysbios_family_c64p_Hwi_Module__loggerObj__C)
                  0080e978    00000004     dss_mmw_pe674.oe674 (.const:ti_sysbios_gates_GateMutex_A_badContext__C)
                  0080e97c    00000004     dss_mmw_pe674.oe674 (.const:ti_sysbios_gates_GateMutex_Instance_State_sem__O)
                  0080e980    00000004     dss_mmw_pe674.oe674 (.const:ti_sysbios_gates_GateMutex_Module__diagsEnabled__C)
                  0080e984    00000004     dss_mmw_pe674.oe674 (.const:ti_sysbios_gates_GateMutex_Module__diagsIncluded__C)
                  0080e988    00000004     dss_mmw_pe674.oe674 (.const:ti_sysbios_gates_GateMutex_Module__diagsMask__C)
                  0080e98c    00000004     dss_mmw_pe674.oe674 (.const:ti_sysbios_hal_Hwi_E_stackOverflow__C)
                  0080e990    00000004     dss_mmw_pe674.oe674 (.const:ti_sysbios_heaps_HeapMem_A_align__C)
                  0080e994    00000004     dss_mmw_pe674.oe674 (.const:ti_sysbios_heaps_HeapMem_A_heapSize__C)
                  0080e998    00000004     dss_mmw_pe674.oe674 (.const:ti_sysbios_heaps_HeapMem_A_invalidFree__C)
                  0080e99c    00000004     dss_mmw_pe674.oe674 (.const:ti_sysbios_heaps_HeapMem_A_zeroBlock__C)
                  0080e9a0    00000004     dss_mmw_pe674.oe674 (.const:ti_sysbios_heaps_HeapMem_E_memory__C)
                  0080e9a4    00000004     dss_mmw_pe674.oe674 (.const:ti_sysbios_heaps_HeapMem_Module__diagsEnabled__C)
                  0080e9a8    00000004     dss_mmw_pe674.oe674 (.const:ti_sysbios_heaps_HeapMem_Module__diagsIncluded__C)
                  0080e9ac    00000004     dss_mmw_pe674.oe674 (.const:ti_sysbios_heaps_HeapMem_Module__diagsMask__C)
                  0080e9b0    00000004     dss_mmw_pe674.oe674 (.const:ti_sysbios_heaps_HeapMem_Module__gateObj__C)
                  0080e9b4    00000004     dss_mmw_pe674.oe674 (.const:ti_sysbios_heaps_HeapMem_Object__count__C)
                  0080e9b8    00000004     dss_mmw_pe674.oe674 (.const:ti_sysbios_heaps_HeapMem_reqAlign__C)
                  0080e9bc    00000004     dss_mmw_pe674.oe674 (.const:ti_sysbios_knl_Clock_LM_begin__C)
                  0080e9c0    00000004     dss_mmw_pe674.oe674 (.const:ti_sysbios_knl_Clock_LM_tick__C)
                  0080e9c4    00000004     dss_mmw_pe674.oe674 (.const:ti_sysbios_knl_Clock_LW_delayed__C)
                  0080e9c8    00000004     dss_mmw_pe674.oe674 (.const:ti_sysbios_knl_Clock_Module_State_clockQ__O)
                  0080e9cc    00000004     dss_mmw_pe674.oe674 (.const:ti_sysbios_knl_Clock_Module__diagsEnabled__C)
                  0080e9d0    00000004     dss_mmw_pe674.oe674 (.const:ti_sysbios_knl_Clock_Module__diagsIncluded__C)
                  0080e9d4    00000004     dss_mmw_pe674.oe674 (.const:ti_sysbios_knl_Clock_Module__diagsMask__C)
                  0080e9d8    00000004     dss_mmw_pe674.oe674 (.const:ti_sysbios_knl_Clock_Module__loggerFxn1__C)
                  0080e9dc    00000004     dss_mmw_pe674.oe674 (.const:ti_sysbios_knl_Clock_Module__loggerFxn2__C)
                  0080e9e0    00000004     dss_mmw_pe674.oe674 (.const:ti_sysbios_knl_Clock_Module__loggerObj__C)
                  0080e9e4    00000004     dss_mmw_pe674.oe674 (.const:ti_sysbios_knl_Event_A_badContext__C)
                  0080e9e8    00000004     dss_mmw_pe674.oe674 (.const:ti_sysbios_knl_Event_A_eventInUse__C)
                  0080e9ec    00000004     dss_mmw_pe674.oe674 (.const:ti_sysbios_knl_Event_A_nullEventId__C)
                  0080e9f0    00000004     dss_mmw_pe674.oe674 (.const:ti_sysbios_knl_Event_A_nullEventMasks__C)
                  0080e9f4    00000004     dss_mmw_pe674.oe674 (.const:ti_sysbios_knl_Event_A_pendTaskDisabled__C)
                  0080e9f8    00000004     dss_mmw_pe674.oe674 (.const:ti_sysbios_knl_Event_Instance_State_pendQ__O)
                  0080e9fc    00000004     dss_mmw_pe674.oe674 (.const:ti_sysbios_knl_Event_LM_pend__C)
                  0080ea00    00000004     dss_mmw_pe674.oe674 (.const:ti_sysbios_knl_Event_LM_post__C)
                  0080ea04    00000004     dss_mmw_pe674.oe674 (.const:ti_sysbios_knl_Event_Module__diagsEnabled__C)
                  0080ea08    00000004     dss_mmw_pe674.oe674 (.const:ti_sysbios_knl_Event_Module__diagsIncluded__C)
                  0080ea0c    00000004     dss_mmw_pe674.oe674 (.const:ti_sysbios_knl_Event_Module__diagsMask__C)
                  0080ea10    00000004     dss_mmw_pe674.oe674 (.const:ti_sysbios_knl_Event_Module__loggerFxn4__C)
                  0080ea14    00000004     dss_mmw_pe674.oe674 (.const:ti_sysbios_knl_Event_Module__loggerFxn8__C)
                  0080ea18    00000004     dss_mmw_pe674.oe674 (.const:ti_sysbios_knl_Event_Module__loggerObj__C)
                  0080ea1c    00000004     dss_mmw_pe674.oe674 (.const:ti_sysbios_knl_Semaphore_A_badContext__C)
                  0080ea20    00000004     dss_mmw_pe674.oe674 (.const:ti_sysbios_knl_Idle_funcList__A)
                  0080ea24    00000004     dss_mmw_pe674.oe674 (.const:ti_sysbios_knl_Semaphore_A_noEvents__C)
                  0080ea28    00000004     dss_mmw_pe674.oe674 (.const:ti_sysbios_knl_Semaphore_A_overflow__C)
                  0080ea2c    00000004     dss_mmw_pe674.oe674 (.const:ti_sysbios_knl_Semaphore_A_pendTaskDisabled__C)
                  0080ea30    00000004     dss_mmw_pe674.oe674 (.const:ti_sysbios_knl_Semaphore_Instance_State_pendQ__O)
                  0080ea34    00000004     dss_mmw_pe674.oe674 (.const:ti_sysbios_knl_Semaphore_LM_pend__C)
                  0080ea38    00000004     dss_mmw_pe674.oe674 (.const:ti_sysbios_knl_Semaphore_LM_post__C)
                  0080ea3c    00000004     dss_mmw_pe674.oe674 (.const:ti_sysbios_knl_Semaphore_Module__diagsEnabled__C)
                  0080ea40    00000004     dss_mmw_pe674.oe674 (.const:ti_sysbios_knl_Semaphore_Module__diagsIncluded__C)
                  0080ea44    00000004     dss_mmw_pe674.oe674 (.const:ti_sysbios_knl_Semaphore_Module__diagsMask__C)
                  0080ea48    00000004     dss_mmw_pe674.oe674 (.const:ti_sysbios_knl_Semaphore_Module__loggerFxn2__C)
                  0080ea4c    00000004     dss_mmw_pe674.oe674 (.const:ti_sysbios_knl_Semaphore_Module__loggerFxn4__C)
                  0080ea50    00000004     dss_mmw_pe674.oe674 (.const:ti_sysbios_knl_Semaphore_Module__loggerObj__C)
                  0080ea54    00000004     dss_mmw_pe674.oe674 (.const:ti_sysbios_knl_Task_A_badPriority__C)
                  0080ea58    00000004     dss_mmw_pe674.oe674 (.const:ti_sysbios_knl_Task_A_badTaskState__C)
                  0080ea5c    00000004     dss_mmw_pe674.oe674 (.const:ti_sysbios_knl_Task_A_badThreadType__C)
                  0080ea60    00000004     dss_mmw_pe674.oe674 (.const:ti_sysbios_knl_Task_A_badTimeout__C)
                  0080ea64    00000004     dss_mmw_pe674.oe674 (.const:ti_sysbios_knl_Task_A_noPendElem__C)
                  0080ea68    00000004     dss_mmw_pe674.oe674 (.const:ti_sysbios_knl_Task_A_sleepTaskDisabled__C)
                  0080ea6c    00000004     dss_mmw_pe674.oe674 (.const:ti_sysbios_knl_Task_E_spOutOfBounds__C)
                  0080ea70    00000004     dss_mmw_pe674.oe674 (.const:ti_sysbios_knl_Task_E_stackOverflow__C)
                  0080ea74    00000004     dss_mmw_pe674.oe674 (.const:ti_sysbios_knl_Task_LD_block__C)
                  0080ea78    00000004     dss_mmw_pe674.oe674 (.const:ti_sysbios_knl_Task_LD_exit__C)
                  0080ea7c    00000004     dss_mmw_pe674.oe674 (.const:ti_sysbios_knl_Task_LD_ready__C)
                  0080ea80    00000004     dss_mmw_pe674.oe674 (.const:ti_sysbios_knl_Task_LM_sleep__C)
                  0080ea84    00000004     dss_mmw_pe674.oe674 (.const:ti_sysbios_knl_Task_LM_switch__C)
                  0080ea88    00000004     dss_mmw_pe674.oe674 (.const:ti_sysbios_knl_Task_Module_State_inactiveQ__O)
                  0080ea8c    00000004     dss_mmw_pe674.oe674 (.const:ti_sysbios_knl_Task_Module__diagsEnabled__C)
                  0080ea90    00000004     dss_mmw_pe674.oe674 (.const:ti_sysbios_knl_Task_Module__diagsIncluded__C)
                  0080ea94    00000004     dss_mmw_pe674.oe674 (.const:ti_sysbios_knl_Task_Module__diagsMask__C)
                  0080ea98    00000004     dss_mmw_pe674.oe674 (.const:ti_sysbios_knl_Task_Module__loggerFxn2__C)
                  0080ea9c    00000004     dss_mmw_pe674.oe674 (.const:ti_sysbios_knl_Task_Module__loggerFxn4__C)
                  0080eaa0    00000004     dss_mmw_pe674.oe674 (.const:ti_sysbios_knl_Task_Module__loggerObj__C)
                  0080eaa4    00000004     dss_mmw_pe674.oe674 (.const:ti_sysbios_knl_Task_Object__count__C)
                  0080eaa8    00000004     dss_mmw_pe674.oe674 (.const:ti_sysbios_knl_Task_allBlockedFunc__C)
                  0080eaac    00000004     dss_mmw_pe674.oe674 (.const:ti_sysbios_knl_Task_defaultStackHeap__C)
                  0080eab0    00000004     dss_mmw_pe674.oe674 (.const:ti_sysbios_knl_Task_defaultStackSize__C)
                  0080eab4    00000004     dss_mmw_pe674.oe674 (.const:ti_sysbios_knl_Task_numConstructedTasks__C)
                  0080eab8    00000004     dss_mmw_pe674.oe674 (.const:ti_sysbios_timers_rti_Timer_E_cannotSupport__C)
                  0080eabc    00000004     dss_mmw_pe674.oe674 (.const:ti_sysbios_timers_rti_Timer_Module__diagsEnabled__C)
                  0080eac0    00000004     dss_mmw_pe674.oe674 (.const:ti_sysbios_timers_rti_Timer_Module__diagsIncluded__C)
                  0080eac4    00000004     dss_mmw_pe674.oe674 (.const:ti_sysbios_timers_rti_Timer_Module__diagsMask__C)
                  0080eac8    00000004     dss_mmw_pe674.oe674 (.const:ti_sysbios_timers_rti_Timer_numTimerDevices__C)
                  0080eacc    00000004     dss_mmw_pe674.oe674 (.const:ti_sysbios_timers_rti_Timer_startupNeeded__C)
                  0080ead0    00000004     dss_mmw_pe674.oe674 (.const:xdc_runtime_Assert_E_assertFailed__C)
                  0080ead4    00000004     dss_mmw_pe674.oe674 (.const:xdc_runtime_Core_A_initializedParams__C)
                  0080ead8    00000004     dss_mmw_pe674.oe674 (.const:xdc_runtime_Core_Module__diagsEnabled__C)
                  0080eadc    00000004     dss_mmw_pe674.oe674 (.const:xdc_runtime_Core_Module__diagsIncluded__C)
                  0080eae0    00000004     dss_mmw_pe674.oe674 (.const:xdc_runtime_Core_Module__diagsMask__C)
                  0080eae4    00000004     dss_mmw_pe674.oe674 (.const:xdc_runtime_Error_E_memory__C)
                  0080eae8    00000004     dss_mmw_pe674.oe674 (.const:xdc_runtime_Error_Module__diagsEnabled__C)
                  0080eaec    00000004     dss_mmw_pe674.oe674 (.const:xdc_runtime_Error_Module__diagsIncluded__C)
                  0080eaf0    00000004     dss_mmw_pe674.oe674 (.const:xdc_runtime_Error_Module__diagsMask__C)
                  0080eaf4    00000004     dss_mmw_pe674.oe674 (.const:xdc_runtime_Error_Module__loggerFxn8__C)
                  0080eaf8    00000004     dss_mmw_pe674.oe674 (.const:xdc_runtime_Error_Module__loggerObj__C)
                  0080eafc    00000004     dss_mmw_pe674.oe674 (.const:xdc_runtime_Error_policyFxn__C)
                  0080eb00    00000004     dss_mmw_pe674.oe674 (.const:xdc_runtime_Error_policy__C)
                  0080eb04    00000004     dss_mmw_pe674.oe674 (.const:xdc_runtime_Error_raiseHook__C)
                  0080eb08    00000004     dss_mmw_pe674.oe674 (.const:xdc_runtime_IGateProvider_Interface__BASE__C)
                  0080eb0c    00000004     dss_mmw_pe674.oe674 (.const:xdc_runtime_IHeap_Interface__BASE__C)
                  0080eb10    00000004     dss_mmw_pe674.oe674 (.const:xdc_runtime_IModule_Interface__BASE__C)
                  0080eb14    00000004     dss_mmw_pe674.oe674 (.const:xdc_runtime_Log_L_error__C)
                  0080eb18    00000004     dss_mmw_pe674.oe674 (.const:xdc_runtime_Memory_defaultHeapInstance__C)
                  0080eb1c    00000004     dss_mmw_pe674.oe674 (.const:xdc_runtime_Startup_execImpl__C)
                  0080eb20    00000004     dss_mmw_pe674.oe674 (.const:xdc_runtime_Startup_maxPasses__C)
                  0080eb24    00000004     dss_mmw_pe674.oe674 (.const:xdc_runtime_Startup_sfxnRts__C)
                  0080eb28    00000004     dss_mmw_pe674.oe674 (.const:xdc_runtime_Startup_sfxnTab__C)
                  0080eb2c    00000004     dss_mmw_pe674.oe674 (.const:xdc_runtime_System_Module__gateObj__C)
                  0080eb30    00000004     dss_mmw_pe674.oe674 (.const:xdc_runtime_System_abortFxn__C)
                  0080eb34    00000004     dss_mmw_pe674.oe674 (.const:xdc_runtime_System_exitFxn__C)
                  0080eb38    00000004     dss_mmw_pe674.oe674 (.const:xdc_runtime_System_extendFxn__C)
                  0080eb3c    00000004     dss_mmw_pe674.oe674 (.const:xdc_runtime_System_maxAtexitHandlers__C)
                  0080eb40    00000004     dss_mmw_pe674.oe674 (.const:xdc_runtime_Text_charTab__C)
                  0080eb44    00000004     dss_mmw_pe674.oe674 (.const:xdc_runtime_Text_nameEmpty__C)
                  0080eb48    00000004     dss_mmw_pe674.oe674 (.const:xdc_runtime_Text_nameStatic__C)
                  0080eb4c    00000004     dss_mmw_pe674.oe674 (.const:xdc_runtime_Text_nameUnknown__C)
                  0080eb50    00000004     dss_mmw_pe674.oe674 (.const:xdc_runtime_Text_visitRopeFxn__C)
                  0080eb54    00000002     dss_mmw_pe674.oe674 (.const:ti_sysbios_family_c64p_Exception_Module__id__C)
                  0080eb56    00000002     dss_mmw_pe674.oe674 (.const:ti_sysbios_family_c64p_Exception_useInternalBuffer__C)
                  0080eb58    00000002     dss_mmw_pe674.oe674 (.const:ti_sysbios_family_c64p_Hwi_Module__id__C)
                  0080eb5a    00000002     dss_mmw_pe674.oe674 (.const:ti_sysbios_family_c64p_Hwi_Module__loggerDefined__C)
                  0080eb5c    00000002     dss_mmw_pe674.oe674 (.const:ti_sysbios_gates_GateMutex_Module__id__C)
                  0080eb5e    00000002     dss_mmw_pe674.oe674 (.const:ti_sysbios_hal_Hwi_Module__id__C)
                  0080eb60    00000002     dss_mmw_pe674.oe674 (.const:ti_sysbios_heaps_HeapMem_Module__id__C)
                  0080eb62    00000002     dss_mmw_pe674.oe674 (.const:ti_sysbios_knl_Clock_Module__id__C)
                  0080eb64    00000002     dss_mmw_pe674.oe674 (.const:ti_sysbios_knl_Clock_Module__loggerDefined__C)
                  0080eb66    00000002     dss_mmw_pe674.oe674 (.const:ti_sysbios_knl_Event_Module__id__C)
                  0080eb68    00000002     dss_mmw_pe674.oe674 (.const:ti_sysbios_knl_Event_Module__loggerDefined__C)
                  0080eb6a    00000002     dss_mmw_pe674.oe674 (.const:ti_sysbios_knl_Semaphore_Module__id__C)
                  0080eb6c    00000002     dss_mmw_pe674.oe674 (.const:ti_sysbios_knl_Semaphore_Module__loggerDefined__C)
                  0080eb6e    00000002     dss_mmw_pe674.oe674 (.const:ti_sysbios_knl_Task_Module__id__C)
                  0080eb70    00000002     dss_mmw_pe674.oe674 (.const:ti_sysbios_knl_Task_Module__loggerDefined__C)
                  0080eb72    00000002     dss_mmw_pe674.oe674 (.const:ti_sysbios_timers_rti_Timer_Module__id__C)
                  0080eb74    00000002     dss_mmw_pe674.oe674 (.const:ti_sysbios_timers_rti_Timer_continueOnSuspend__C)
                  0080eb76    00000002     dss_mmw_pe674.oe674 (.const:xdc_runtime_Core_Module__id__C)
                  0080eb78    00000002     dss_mmw_pe674.oe674 (.const:xdc_runtime_Error_Module__loggerDefined__C)
                  0080eb7a    00000002     dss_mmw_pe674.oe674 (.const:xdc_runtime_Error_maxDepth__C)
                  0080eb7c    00000002     dss_mmw_pe674.oe674 (.const:xdc_runtime_Main_Module__id__C)
                  0080eb7e    00000002     dss_mmw_pe674.oe674 (.const:xdc_runtime_Memory_Module__id__C)
                  0080eb80    00000002     dss_mmw_pe674.oe674 (.const:xdc_runtime_Text_charCnt__C)
                  0080eb82    00000002     dss_mmw_pe674.oe674 (.const:xdc_runtime_Text_isLoaded__C)
                  0080eb84    00000002     dss_mmw_pe674.oe674 (.const:xdc_runtime_Text_registryModsLastId__C)
                  0080eb86    00000002     dss_mmw_pe674.oe674 (.const:xdc_runtime_Text_unnamedModsLastId__C)
                  0080eb88    00000001     dss_mmw_pe674.oe674 (.const:xdc_runtime_Text_charTab__A)

.ovly      0    00810378    00000010     
                  00810378    00000010     (.ovly:_MmwDemo_fastCode_L1PSRAM_copy_table)

.l1data    0    00f00000    00004000     UNINITIALIZED
                  00f00000    00004000     dss_data_path.oe674 (.l1data)

.fastCode 
*          0    20000000    000022c0     RUN ADDR = 00e00000
                  20000000    00001800     RADARDEMO_highAccuRangeProc_priv.oe674 (.text:RADARDEMO_highAccuRangeProc_rangeEst)
                  20001800    000005a0     RADARDEMO_highAccuRangeProc.oe674 (.text:RADARDEMO_highAccuRangeProc_create)
                  20001da0    00000220     RADARDEMO_highAccuRangeProc_priv.oe674 (.text:RADARDEMO_highAccuRangeProc_accumulateInput)
                  20001fc0    000000a0     RADARDEMO_highAccuRangeProc.oe674 (.text:RADARDEMO_highAccuRangeProc_run)
                  20002060    000000c0     dss_data_path.oe674 (.text:MmwDemo_interFrameProcessing)
                  20002120    000000c0     dss_data_path.oe674 (.text:MmwDemo_processChirp)
                  200021e0    00000010     dss_data_path.oe674 ($Tramp$S$$MmwDemo_dataPathWait1DInputData)
                  200021f0    00000010     libedma_xwr68xx.ae674 : edma.oe674 ($Tramp$S$$EDMA_startDmaTransfer)
                  20002200    00000010     rts6740_elf.lib : memcpy64.asm.obj ($Tramp$S$$memcpy)
                  20002210    00000010                     : sin.c.obj ($Tramp$S$$sin)
                  20002220    00000010                     : cos.c.obj ($Tramp$S$$cos)
                  20002230    00000010     RADARDEMO_highAccuRangeProc_utils.oe674 ($Tramp$S$$tw_gen_float)
                  20002240    00000010     rts6740_elf.lib : printf.c.obj ($Tramp$S$$printf)
                  20002250    00000010                     : divf.c.obj ($Tramp$S$$__c6xabi_divf)
                  20002260    00000010                     : divd.c.obj ($Tramp$S$$__c6xabi_divd)
                  20002270    00000010     radarOsal_malloc.oe674 ($Tramp$S$$radarOsal_memAlloc)
                  20002280    00000010     rts6740_elf.lib : push.asm.obj ($Tramp$S$$__c6xabi_pop_rts)
                  20002290    00000010     dsplib.ae674 : DSPF_sp_fftSPxSP.oe674 ($Tramp$S$$DSPF_sp_fftSPxSP)
                  200022a0    00000010     rts6740_elf.lib : push.asm.obj ($Tramp$S$$__c6xabi_push_rts)
                  200022b0    00000010     --HOLE-- [fill = 00000000]

.overlay   0    200022c0    00000860     
                  200022c0    000003e0     dss_main.oe674 (.text:MmwDemo_dssInitTask)
                  200026a0    00000120     dss_main.oe674 (.text:main)
                  200027c0    00000180     dss_data_path.oe674 (.text:MmwDemo_dataPathInitEdma)
                  20002940    00000010     libedma_xwr68xx.ae674 : edma.oe674 ($Tramp$S$$EDMA_configErrorMonitoring)
                  20002950    00000010                           : edma.oe674 ($Tramp$S$$EDMA_open)
                  20002960    00000010                           : edma.oe674 ($Tramp$S$$EDMA_init)
                  20002970    00000010                           : edma.oe674 ($Tramp$S$$EDMA_getNumInstances)
                  20002980    00000010     sysbios.ae674 : BIOS.obj ($Tramp$S$$ti_sysbios_BIOS_start__E)
                  20002990    00000010     cycle_measure.oe674 ($Tramp$S$$startClock)
                  200029a0    00000010     cycle_measure.oe674 ($Tramp$S$$cache_setMar)
                  200029b0    00000010     cycle_measure.oe674 ($Tramp$S$$cache_setL2Size)
                  200029c0    00000010     libsoc_xwr68xx.ae674 : soc.oe674 ($Tramp$S$$SOC_init)
                  200029d0    00000010     rts6740_elf.lib : memset.c.obj ($Tramp$S$$memset)
                  200029e0    00000010                     : push.asm.obj ($Tramp$S$$__c6xabi_pop_rts)
                  200029f0    00000010     dss_main.oe674 ($Tramp$S$$MmwDemo_dssDataPathInit)
                  20002a00    00000010     sysbios.ae674 : BIOS.obj ($Tramp$S$$ti_sysbios_knl_Task_sleep__E)
                  20002a10    00000010     libmmwave_xwr68xx.ae674 : mmwave.oe674 ($Tramp$S$$MMWave_sync)
                  20002a20    00000010                             : mmwave.oe674 ($Tramp$S$$MMWave_init)
                  20002a30    00000010     dss_mmw_pe674.oe674 ($Tramp$S$$ti_sysbios_knl_Event_create)
                  20002a40    00000010     ti.targets.rts6000.ae674 : Error.oe674 ($Tramp$S$$xdc_runtime_Error_init__E)
                  20002a50    00000010     dss_mmw_pe674.oe674 ($Tramp$S$$ti_sysbios_knl_Task_create)
                  20002a60    00000010     dss_mmw_pe674.oe674 ($Tramp$S$$ti_sysbios_knl_Task_Params__init__S)
                  20002a70    00000010     libmailbox_xwr68xx.ae674 : mailbox.oe674 ($Tramp$S$$Mailbox_open)
                  20002a80    00000010                              : mailbox.oe674 ($Tramp$S$$Mailbox_Config_init)
                  20002a90    00000010     dss_mmw_pe674.oe674 ($Tramp$S$$ti_sysbios_knl_Semaphore_create)
                  20002aa0    00000010     dss_mmw_pe674.oe674 ($Tramp$S$$ti_sysbios_knl_Semaphore_Params__init__S)
                  20002ab0    00000010     dss_mmw_pe674.oe674 ($Tramp$S$$xdc_runtime_System_printf__E)
                  20002ac0    00000010     libuart_xwr68xx.ae674 : UART.oe674 ($Tramp$S$$UART_open)
                  20002ad0    00000010                           : UART.oe674 ($Tramp$S$$UART_Params_init)
                  20002ae0    00000010     libmailbox_xwr68xx.ae674 : mailbox.oe674 ($Tramp$S$$Mailbox_init)
                  20002af0    00000010     libuart_xwr68xx.ae674 : UART.oe674 ($Tramp$S$$UART_init)
                  20002b00    00000010     rts6740_elf.lib : push.asm.obj ($Tramp$S$$__c6xabi_push_rts)
                  20002b10    00000010     --HOLE-- [fill = 00000000]

.hsramdata 
*          0    21080000    00002020     UNINITIALIZED
                  21080000    00002020     dss_data_path.oe674 (.hsramdata)

.l3data    1    20000000    00010000     UNINITIALIZED
                  20000000    00010000     dss_data_path.oe674 (.l3data)

xdc.meta   0    00000000    000000f8     COPY SECTION
                  00000000    000000f8     dss_mmw_pe674.oe674 (xdc.meta)

xdc.noload 
*          0    00000000    00000000     COPY SECTION

.fardata   0    0080eb90    000010c6     
                  0080eb90    00000400     dss_mmw_pe674.oe674 (.fardata:ti_sysbios_family_c64p_EventCombiner_Module__state__V)
                  0080ef90    000001e8     libmmwavelink_xwr68xx.ae674 : rl_driver.oe674 (.fardata:rl_driverData)
                  0080f178    000001e0     rts6740_elf.lib : defs.c.obj (.fardata:_ftable)
                  0080f358    00000100     libmmwavelink_xwr68xx.ae674 : rl_driver.oe674 (.fardata:rl_rxMsg)
                  0080f458    00000100                                 : rl_driver.oe674 (.fardata:rl_txMsg)
                  0080f558    000000a0     rts6740_elf.lib : write.c.obj (.fardata:_stream)
                  0080f5f8    00000080     dss_mmw_pe674.oe674 (.fardata:ti_sysbios_knl_Task_Module_State_0_readyQ__A)
                  0080f678    00000078     rts6740_elf.lib : write.c.obj (.fardata:_device)
                  0080f6f0    00000078     dss_mmw_pe674.oe674 (.fardata:ti_sysbios_family_c64p_Hwi_Object__table__V)
                  0080f768    0000006c     dss_mmw_pe674.oe674 (.fardata:ti_sysbios_family_c64p_Hwi_Module__state__V)
                  0080f7d4    00000004     rts6740_elf.lib : _lock.c.obj (.fardata:_lock)
                  0080f7d8    0000005c     dss_mmw_pe674.oe674 (.fardata:ti_sysbios_knl_Task_Object__table__V)
                  0080f834    00000050     libmailbox_xwr68xx.ae674 : mailbox.oe674 (.fardata:gMailboxMCB)
                  0080f884    00000048     dss_mmw_pe674.oe674 (.fardata:ti_sysbios_knl_Task_Module__state__V)
                  0080f8cc    00000004     rts6740_elf.lib : _lock.c.obj (.fardata:_unlock)
                  0080f8d0    00000040                     : cos.c.obj (.fardata:R$1)
                  0080f910    00000040                     : sin.c.obj (.fardata:R$1)
                  0080f950    00000040     libsoc_xwr68xx.ae674 : soc_xwr68xx.oe674 (.fardata:SOC_TranslateAddr_LUT)
                  0080f990    00000040     dss_mmw_pe674.oe674 (.fardata:ti_sysbios_gates_GateMutex_Object__table__V)
                  0080f9d0    0000003c     dss_mmw_pe674.oe674 (.fardata:ti_sysbios_timers_rti_Timer_Object__table__V)
                  0080fa0c    00000030     dss_mmw_pe674.oe674 (.fardata:ti_sysbios_family_c64p_Exception_Module__state__V)
                  0080fa3c    00000004     rts6740_elf.lib : defs.c.obj (.fardata)
                  0080fa40    0000002c     libuart_xwr68xx.ae674 : uart_xwr68xx.oe674 (.fardata:gUartSciHwCfg)
                  0080fa6c    0000002c     dss_mmw_pe674.oe674 (.fardata:ti_sysbios_knl_Clock_Module__state__V)
                  0080fa98    00000028     libuart_xwr68xx.ae674 : uartsci.oe674 (.fardata:gUartSciFxnTable)
                  0080fac0    00000024     dss_mmw_pe674.oe674 (.fardata:ti_sysbios_BIOS_Module__state__V)
                  0080fae4    00000004     rts6740_elf.lib : errno.c.obj (.fardata)
                  0080fae8    00000020     libsoc_xwr68xx.ae674 : soc_xwr68xx_dss.oe674 (.fardata:gSOCHwAttrib)
                  0080fb08    00000020     dss_mmw_pe674.oe674 (.fardata:xdc_runtime_Error_IgnoreBlock)
                  0080fb28    00000018     libadcbuf_xwr68xx.ae674 : adcbuf_xwr1xxx.oe674 (.fardata:ADCBuf_config)
                  0080fb40    00000018     libuart_xwr68xx.ae674 : uart_xwr68xx.oe674 (.fardata:UART_config)
                  0080fb58    00000018     libmailbox_xwr68xx.ae674 : mailbox_xwr68xx.oe674 (.fardata:gMailboxDssBssHwCfg)
                  0080fb70    00000018                              : mailbox_xwr68xx.oe674 (.fardata:gMailboxDssMssHwCfg)
                  0080fb88    00000018     dss_mmw_pe674.oe674 (.fardata:ti_sysbios_heaps_HeapMem_Object__table__V)
                  0080fba0    00000018     dss_mmw_pe674.oe674 (.fardata:ti_sysbios_timers_rti_Timer_Module_State_0_device__A)
                  0080fbb8    00000010     dss_mmw_pe674.oe674 (.fardata:ti_sysbios_timers_rti_Timer_Module_State_0_intFreqs__A)
                  0080fbc8    00000010     dss_mmw_pe674.oe674 (.fardata:ti_sysbios_timers_rti_Timer_Module__state__V)
                  0080fbd8    0000000c     rts6740_elf.lib : exit.c.obj (.fardata)
                  0080fbe4    00000008     dss_mmw_pe674.oe674 (.fardata:ti_sysbios_gates_GateHwi_Module__root__V)
                  0080fbec    00000008     dss_mmw_pe674.oe674 (.fardata:ti_sysbios_gates_GateMutex_Module__root__V)
                  0080fbf4    00000004     dss_mmw_pe674.oe674 (.fardata:ti_sysbios_family_c64p_Cache_Module__state__V)
                  0080fbf8    00000008     dss_mmw_pe674.oe674 (.fardata:ti_sysbios_hal_Hwi_Object__table__V)
                  0080fc00    00000008     dss_mmw_pe674.oe674 (.fardata:ti_sysbios_heaps_HeapMem_Module__root__V)
                  0080fc08    00000008     dss_mmw_pe674.oe674 (.fardata:ti_sysbios_knl_Event_Module__root__V)
                  0080fc10    00000008     dss_mmw_pe674.oe674 (.fardata:ti_sysbios_knl_Queue_Module__root__V)
                  0080fc18    00000008     dss_mmw_pe674.oe674 (.fardata:ti_sysbios_knl_Semaphore_Module__root__V)
                  0080fc20    00000008     dss_mmw_pe674.oe674 (.fardata:ti_sysbios_knl_Task_Module__root__V)
                  0080fc28    00000008     dss_mmw_pe674.oe674 (.fardata:ti_sysbios_timers_rti_Timer_Module_State_0_handles__A)
                  0080fc30    00000008     dss_mmw_pe674.oe674 (.fardata:xdc_runtime_Registry_Module__state__V)
                  0080fc38    00000008     dss_mmw_pe674.oe674 (.fardata:xdc_runtime_Startup_Module__state__V)
                  0080fc40    00000008     dss_mmw_pe674.oe674 (.fardata:xdc_runtime_System_Module__state__V)
                  0080fc48    00000004     dss_mmw_pe674.oe674 (.fardata:ti_sysbios_gates_GateHwi_Object__table__V)
                  0080fc4c    00000004     dss_mmw_pe674.oe674 (.fardata:xdc_runtime_Memory_Module__state__V)
                  0080fc50    00000004     dss_mmw_pe674.oe674 (.fardata:ti_sysbios_knl_Task_Module_State_0_idleTask__A)
                  0080fc54    00000002     dss_mmw_pe674.oe674 (.fardata:xdc_runtime_Error_Module__state__V)

.switch    0    00810070    000001d4     
                  00810070    00000048     libadcbuf_xwr68xx.ae674 : adcbuf_mmwave.oe674 (.switch:ADCBUF_MMWave_control)
                  008100b8    00000044     libmmwave_xwr68xx.ae674 : mmwave_link.oe674 (.switch:MMWave_asyncEventHandler)
                  008100fc    00000044     dss_main.oe674 (.switch:MmwDemo_dssMmwaveEventCallbackFxn)
                  00810140    00000038     rts6740_elf.lib : _printfi.c.obj (.switch:__TI_printfi)
                  00810178    00000028     libadcbuf_xwr68xx.ae674 : adcbuf_mmwave.oe674 (.switch:ADCBUFCmdParamCheck)
                  008101a0    0000001c     libsoc_xwr68xx.ae674 : soc_xwr68xx.oe674 (.switch:SOC_gateClock)
                  008101bc    0000001c                          : soc_xwr68xx.oe674 (.switch:SOC_ungateClock)
                  008101d8    00000018     libmmwave_xwr68xx.ae674 : mmwave_dualcore.oe674 (.switch:MMWave_deviceExecuteFxn)
                  008101f0    00000014     dss_main.oe674 (.switch:MmwDemo_mboxReadTask)
                  00810204    00000010     libadcbuf_xwr68xx.ae674 : adcbuf_mmwave.oe674 (.switch:ADCBUF_MMWave_getChanBufAddr)
                  00810214    00000010     libsoc_xwr68xx.ae674 : soc_xwr68xx_dss.oe674 (.switch:SOC_getInAddr_LUTType)
                  00810224    00000010                          : soc_xwr68xx_dss.oe674 (.switch:SOC_getOutAddr_LUTType)
                  00810234    00000010     libuart_xwr68xx.ae674 : uartsci.oe674 (.switch:UartSci_open)

.cio       0    00810248    00000120     UNINITIALIZED
                  00810248    00000120     rts6740_elf.lib : trgmsg.c.obj (.cio)

MODULE SUMMARY

       Module                                    code     ro data   rw data
       ------                                    ----     -------   -------
    .\dss\
       dss_data_path.oe674                       4048     712       118816 
       RADARDEMO_highAccuRangeProc_priv.oe674    13376    0         0      
       dss_main.oe674                            6256     1944      824    
       RADARDEMO_highAccuRangeProc.oe674         3216     124       0      
       dss_config_edma_util.oe674                608      356       0      
       RADARDEMO_highAccuRangeProc_utils.oe674   544      0         0      
    +--+-----------------------------------------+--------+---------+---------+
       Total:                                    28048    3136      119640 
                                                                           
    .\utils\
       radarOsal_malloc.oe674                    736      220       112    
       cycle_measure.oe674                       240      0         0      
    +--+-----------------------------------------+--------+---------+---------+
       Total:                                    976      220       112    
                                                                           
    C:\Users\a0227075\newVerify\high_accuracy_68xx_dss\Debug\configPkg\package\cfg\
       dss_mmw_pe674.oe674                       4768     1447      19206  
    +--+-----------------------------------------+--------+---------+---------+
       Total:                                    4768     1447      19206  
                                                                           
    C:/ti/ccsv8NEW/ccsv8/tools/compiler/ti-cgt-c6000_8.3.3/lib/rts6740_elf.lib
       _printfi.c.obj                            13536    92        0      
       divd.c.obj                                1536     0         0      
       cos.c.obj                                 832      0         64     
       sin.c.obj                                 768      0         64     
       defs.c.obj                                0        0         804    
       fputs.c.obj                               800      0         0      
       imath64.c.obj                             704      0         0      
       divf.c.obj                                672      0         0      
       trgmsg.c.obj                              224      0         288    
       fputc.c.obj                               480      0         0      
       fflush.c.obj                              448      0         0      
       frexp.c.obj                               448      0         0      
       getdevice.c.obj                           448      0         0      
       imath40.c.obj                             448      0         0      
       setvbuf.c.obj                             448      0         0      
       hostrename.c.obj                          416      0         0      
       ldexp.c.obj                               384      0         0      
       write.c.obj                               96       0         280    
       printf.c.obj                              320      0         0      
       exit.c.obj                                256      0         12     
       ctype.c.obj                               0        257       0      
       atoi.c.obj                                256      0         0      
       fclose.c.obj                              256      0         0      
       fseek.c.obj                               256      0         0      
       memset.c.obj                              240      0         0      
       hostopen.c.obj                            224      0         8      
       _io_perm.c.obj                            224      0         0      
       _ltoa.c.obj                               224      0         0      
       close.c.obj                               224      0         0      
       hostlseek.c.obj                           224      0         0      
       hostwrite.c.obj                           224      0         0      
       llshift.c.obj                             224      0         0      
       divu.asm.obj                              192      0         0      
       hostread.c.obj                            192      0         0      
       hostunlink.c.obj                          192      0         0      
       memcpy64.asm.obj                          192      0         0      
       modf.c.obj                                192      0         0      
       remi.asm.obj                              192      0         0      
       tls.c.obj                                 192      0         0      
       fixfu.c.obj                               160      0         0      
       fopen.c.obj                               160      0         0      
       hostclose.c.obj                           160      0         0      
       push.asm.obj                              160      0         0      
       remu.asm.obj                              160      0         0      
       round.c.obj                               160      0         0      
       fixdu.c.obj                               128      0         0      
       unlink.c.obj                              128      0         0      
       _lock.c.obj                               96       0         8      
       lseek.c.obj                               96       0         0      
       memccpy.c.obj                             96       0         0      
       args_main.c.obj                           64       0         0      
       frcmpyd_div.c.obj                         64       0         0      
       isinf.c.obj                               64       0         0      
       strasg.asm.obj                            64       0         0      
       wcslen.c.obj                              64       0         0      
       errno.c.obj                               32       0         4      
       signbit.c.obj                             32       0         0      
       trunc.c.obj                               32       0         0      
    +--+-----------------------------------------+--------+---------+---------+
       Total:                                    29104    349       1532   
                                                                           
    C:/ti/mmwave_sdk_03_05_00_04/packages/ti/control/mmwave/lib/libmmwave_xwr68xx.ae674
       mmwave_link.oe674                         3200     88        0      
       mmwave_fullcfg.oe674                      2528     24        0      
       mmwave_dualcore.oe674                     2272     76        8      
       mmwave.oe674                              1216     40        256    
       mmwave_osal.oe674                         448      0         0      
       mmwave_listlib.oe674                      384      0         0      
    +--+-----------------------------------------+--------+---------+---------+
       Total:                                    10048    228       264    
                                                                           
    C:/ti/mmwave_sdk_03_05_00_04/packages/ti/control/mmwavelink/lib/libmmwavelink_xwr68xx.ae674
       rl_driver.oe674                           9344     220       1000   
       rl_device.oe674                           992      0         0      
       rl_controller.oe674                       480      0         0      
       rl_sensor.oe674                           288      0         0      
    +--+-----------------------------------------+--------+---------+---------+
       Total:                                    11104    220       1000   
                                                                           
    C:/ti/mmwave_sdk_03_05_00_04/packages/ti/drivers/adcbuf/lib/libadcbuf_xwr68xx.ae674
       adcbuf_mmwave.oe674                       3296     168       0      
       ADCBuf.oe674                              288      16        4      
       adcbuf_xwr1xxx.oe674                      0        16        24     
    +--+-----------------------------------------+--------+---------+---------+
       Total:                                    3584     200       28     
                                                                           
    C:/ti/mmwave_sdk_03_05_00_04/packages/ti/drivers/crc/lib/libcrc_xwr68xx.ae674
       crc.oe674                                 2560     12        0      
       crc_xwr68xx.oe674                         0        0         4      
    +--+-----------------------------------------+--------+---------+---------+
       Total:                                    2560     12        4      
                                                                           
    C:/ti/mmwave_sdk_03_05_00_04/packages/ti/drivers/edma/lib/libedma_xwr68xx.ae674
       edma.oe674                                6304     104       1256   
       edma_low_level.oe674                      1952     0         4      
       edma_xwr1xxx.oe674                        0        56        0      
    +--+-----------------------------------------+--------+---------+---------+
       Total:                                    8256     160       1260   
                                                                           
    C:/ti/mmwave_sdk_03_05_00_04/packages/ti/drivers/mailbox/lib/libmailbox_xwr68xx.ae674
       mailbox.oe674                             3984     112       80     
       mailbox_xwr68xx.oe674                     0        0         48     
    +--+-----------------------------------------+--------+---------+---------+
       Total:                                    3984     112       128    
                                                                           
    C:/ti/mmwave_sdk_03_05_00_04/packages/ti/drivers/osal/lib/libosal_xwr68xx.ae674
       HwiP_tirtos.oe674                         288      28        0      
       SemaphoreP_tirtos.oe674                   256      32        0      
       MemoryP_tirtos.oe674                      64       0         0      
       DebugP_tirtos.oe674                       32       0         0      
    +--+-----------------------------------------+--------+---------+---------+
       Total:                                    640      60        0      
                                                                           
    C:/ti/mmwave_sdk_03_05_00_04/packages/ti/drivers/soc/lib/libsoc_xwr68xx.ae674
       soc_xwr68xx.oe674                         1344     56        64     
       soc.oe674                                 1072     0         0      
       soc_xwr68xx_dss.oe674                     576      92        32     
    +--+-----------------------------------------+--------+---------+---------+
       Total:                                    2992     148       96     
                                                                           
    C:/ti/mmwave_sdk_03_05_00_04/packages/ti/drivers/uart/lib/libuart_xwr68xx.ae674
       uartsci.oe674                             4224     36        40     
       uartsci_edma.oe674                        1216     20        0      
       UART.oe674                                336      56        4      
       uart_xwr68xx.oe674                        0        0         68     
    +--+-----------------------------------------+--------+---------+---------+
       Total:                                    5776     112       112    
                                                                           
    C:\Users\a0227075\newVerify\high_accuracy_68xx_dss\dss\src\sysbios\sysbios.ae674
       BIOS.obj                                  31200    1304      0      
       c64p_Hwi_disp_always.obj                  512      0         0      
       c64p_Exception_asm.obj                    384      0         0      
       c62_TaskSupport_asm.obj                   224      0         0      
       c64p_Hwi_asm_switch.obj                   96       0         0      
    +--+-----------------------------------------+--------+---------+---------+
       Total:                                    32416    1304      0      
                                                                           
    C:\ti\bios_6_73_01_01\packages\ti\targets\rts6000\lib\boot.ae674
       autoinit.oe674                            288      0         0      
       boot.oe674                                160      0         0      
    +--+-----------------------------------------+--------+---------+---------+
       Total:                                    448      0         0      
                                                                           
    C:\ti\bios_6_73_01_01\packages\ti\targets\rts6000\lib\ti.targets.rts6000.ae674
       System.oe674                              3232     24        0      
       Text.oe674                                1600     64        0      
       Error.oe674                               1168     88        0      
       Startup.oe674                             896      44        0      
       Core-mem.oe674                            896      0         0      
       Memory.oe674                              448      0         0      
       Core-smem.oe674                           416      0         0      
       SysStd.oe674                              224      0         0      
       Assert.oe674                              192      4         0      
       Core-params.oe674                         160      0         0      
       Core-label.oe674                          128      0         0      
       Gate.oe674                                64       0         0      
       Registry.oe674                            64       0         0      
    +--+-----------------------------------------+--------+---------+---------+
       Total:                                    9488     224       0      
                                                                           
    C:\ti\dsplib_c674x_3_4_0_0\packages\ti\dsplib\lib\dsplib.ae674
       DSPF_sp_fftSPxSP.oe674                    960      0         0      
    +--+-----------------------------------------+--------+---------+---------+
       Total:                                    960      0         0      
                                                                           
       Stack:                                    0        0         1048   
       Linker Generated:                         0        16        0      
    +--+-----------------------------------------+--------+---------+---------+
       Grand Total:                              155152   7948      144430 


LINKER GENERATED COPY TABLES

_MmwDemo_fastCode_L1PSRAM_copy_table @ 00810378 records: 1, size/record: 12, table size: 16
	.fastCode: load addr=20000000, load size=000022c0, run addr=00e00000, run size=000022c0, compression=none


FAR CALL TRAMPOLINES

callee name               trampoline name
   callee addr  tramp addr   call addr  call info
--------------  -----------  ---------  ----------------
$.text:RADARDEMO_highAccuRangeProc_create:RADARDEMO_highAccuRangeProc.oe674$0x0  $Tramp$S$$RADARDEMO_highAccuRangeProc_create
   00e01800     007fffc0     007ef600   dss_data_path.oe674 (.text:MmwDemo_dataPathConfigBuffers)
$.text:MmwDemo_dataPathInitEdma:dss_data_path.oe674$0x0  $Tramp$S$$MmwDemo_dataPathInitEdma
   200027c0     007fffd0     007edd0c   dss_main.oe674 (.text:MmwDemo_dssDataPathInit)
$.text:MmwDemo_interFrameProcessing:dss_data_path.oe674$0x0  $Tramp$S$$MmwDemo_interFrameProcessing
   00e02060     007fffe0     007e6a34   dss_main.oe674 (.text:MmwDemo_dssDataPathTask)
$.text:MmwDemo_processChirp:dss_data_path.oe674$0x0  $Tramp$S$$MmwDemo_processChirp
   00e02120     007ffff0     007e6934   dss_main.oe674 (.text:MmwDemo_dssDataPathTask)
$.text:MmwDemo_dataPathWait1DInputData:dss_data_path.oe674$0x0  $Tramp$S$$MmwDemo_dataPathWait1DInputData
   007fb500     00e021e0     00e02144   dss_data_path.oe674 (.text:MmwDemo_processChirp)
$.text:EDMA_startDmaTransfer:libedma_xwr68xx.ae674<edma.oe674>$0x0  $Tramp$S$$EDMA_startDmaTransfer
   007f9a80     00e021f0     00e02130   dss_data_path.oe674 (.text:MmwDemo_processChirp)
$.text:memcpy:rts6740_elf.lib<memcpy64.asm.obj>$0x0  $Tramp$S$$memcpy
   007fbc80     00e02200     00e02108   dss_data_path.oe674 (.text:MmwDemo_interFrameProcessing)
$.text:sin:rts6740_elf.lib<sin.c.obj>$0x0  $Tramp$S$$sin
   007eb380     00e02210     00e01c2c   RADARDEMO_highAccuRangeProc.oe674 (.text:RADARDEMO_highAccuRangeProc_create)
                             00e01d2c   RADARDEMO_highAccuRangeProc.oe674 (.text:RADARDEMO_highAccuRangeProc_create)
$.text:cos:rts6740_elf.lib<cos.c.obj>$0x0  $Tramp$S$$cos
   007ea740     00e02220     00e01c24   RADARDEMO_highAccuRangeProc.oe674 (.text:RADARDEMO_highAccuRangeProc_create)
                             00e01d24   RADARDEMO_highAccuRangeProc.oe674 (.text:RADARDEMO_highAccuRangeProc_create)
$.text:tw_gen_float:RADARDEMO_highAccuRangeProc_utils.oe674$0x0  $Tramp$S$$tw_gen_float
   007efb20     00e02230     00e01b28   RADARDEMO_highAccuRangeProc.oe674 (.text:RADARDEMO_highAccuRangeProc_create)
$.text:printf:rts6740_elf.lib<printf.c.obj>$0x0  $Tramp$S$$printf
   007f9580     00e02240     00e01a28   RADARDEMO_highAccuRangeProc.oe674 (.text:RADARDEMO_highAccuRangeProc_create)
                             00e01a30   RADARDEMO_highAccuRangeProc.oe674 (.text:RADARDEMO_highAccuRangeProc_create)
$.text:__c6xabi_divf:rts6740_elf.lib<divf.c.obj>$0x0  $Tramp$S$$__c6xabi_divf
   007ecec0     00e02250     00e0199c   RADARDEMO_highAccuRangeProc.oe674 (.text:RADARDEMO_highAccuRangeProc_create)
                             00e019a0   RADARDEMO_highAccuRangeProc.oe674 (.text:RADARDEMO_highAccuRangeProc_create)
$.text:__c6xabi_divd:rts6740_elf.lib<divd.c.obj>$0x0  $Tramp$S$$__c6xabi_divd
   007e5b20     00e02260     00e01960   RADARDEMO_highAccuRangeProc.oe674 (.text:RADARDEMO_highAccuRangeProc_create)
                             00e01bd4   RADARDEMO_highAccuRangeProc.oe674 (.text:RADARDEMO_highAccuRangeProc_create)
                             00e01cd0   RADARDEMO_highAccuRangeProc.oe674 (.text:RADARDEMO_highAccuRangeProc_create)
$.text:radarOsal_memAlloc:radarOsal_malloc.oe674$0x0  $Tramp$S$$radarOsal_memAlloc
   007f27c0     00e02270     00e01810   RADARDEMO_highAccuRangeProc.oe674 (.text:RADARDEMO_highAccuRangeProc_create)
                             00e01a88   RADARDEMO_highAccuRangeProc.oe674 (.text:RADARDEMO_highAccuRangeProc_create)
                             00e01b04   RADARDEMO_highAccuRangeProc.oe674 (.text:RADARDEMO_highAccuRangeProc_create)
                             00e01b40   RADARDEMO_highAccuRangeProc.oe674 (.text:RADARDEMO_highAccuRangeProc_create)
                             00e01b64   RADARDEMO_highAccuRangeProc.oe674 (.text:RADARDEMO_highAccuRangeProc_create)
                             00e01ba4   RADARDEMO_highAccuRangeProc.oe674 (.text:RADARDEMO_highAccuRangeProc_create)
                             00e01c8c   RADARDEMO_highAccuRangeProc.oe674 (.text:RADARDEMO_highAccuRangeProc_create)
$.text:__pop_rts:rts6740_elf.lib<push.asm.obj>$0x0  $Tramp$S$$__c6xabi_pop_rts
   00800680     00e02280     00e017e0   RADARDEMO_highAccuRangeProc_priv.oe674 (.text:RADARDEMO_highAccuRangeProc_rangeEst)
                             00e01d80   RADARDEMO_highAccuRangeProc.oe674 (.text:RADARDEMO_highAccuRangeProc_create)
$.text:optimized:dsplib.ae674<DSPF_sp_fftSPxSP.oe674>$0x0  $Tramp$S$$DSPF_sp_fftSPxSP
   007e8f40     00e02290     00e00094   RADARDEMO_highAccuRangeProc_priv.oe674 (.text:RADARDEMO_highAccuRangeProc_rangeEst)
$.text:__push_rts:rts6740_elf.lib<push.asm.obj>$0x0  $Tramp$S$$__c6xabi_push_rts
   008006a0     00e022a0     00e00000   RADARDEMO_highAccuRangeProc_priv.oe674 (.text:RADARDEMO_highAccuRangeProc_rangeEst)
                             00e01800   RADARDEMO_highAccuRangeProc.oe674 (.text:RADARDEMO_highAccuRangeProc_create)
$.text:EDMA_configErrorMonitoring:libedma_xwr68xx.ae674<edma.oe674>$0x0  $Tramp$S$$EDMA_configErrorMonitoring
   007ebc00     20002940     200028cc   dss_data_path.oe674 (.text:MmwDemo_dataPathInitEdma)
$.text:EDMA_open:libedma_xwr68xx.ae674<edma.oe674>$0x0  $Tramp$S$$EDMA_open
   007ec6e0     20002950     2000284c   dss_data_path.oe674 (.text:MmwDemo_dataPathInitEdma)
$.text:EDMA_init:libedma_xwr68xx.ae674<edma.oe674>$0x0  $Tramp$S$$EDMA_init
   007eff20     20002960     20002834   dss_data_path.oe674 (.text:MmwDemo_dataPathInitEdma)
$.text:EDMA_getNumInstances:libedma_xwr68xx.ae674<edma.oe674>$0x0  $Tramp$S$$EDMA_getNumInstances
   008000e0     20002970     20002814   dss_data_path.oe674 (.text:MmwDemo_dataPathInitEdma)
$.text:ti_sysbios_BIOS_start__E:sysbios.ae674<BIOS.obj>$0x0  $Tramp$S$$ti_sysbios_BIOS_start__E
   008009a0     20002980     2000278c   dss_main.oe674 (.text:main)
$.text:startClock:cycle_measure.oe674$0x0  $Tramp$S$$startClock
   008008e0     20002990     20002758   dss_main.oe674 (.text:main)
$.text:cache_setMar:cycle_measure.oe674$0x0  $Tramp$S$$cache_setMar
   007fe300     200029a0     20002740   dss_main.oe674 (.text:main)
                             20002750   dss_main.oe674 (.text:main)
$.text:cache_setL2Size:cycle_measure.oe674$0x0  $Tramp$S$$cache_setL2Size
   008007c0     200029b0     20002730   dss_main.oe674 (.text:main)
$.text:SOC_init:libsoc_xwr68xx.ae674<soc.oe674>$0x0  $Tramp$S$$SOC_init
   007f57e0     200029c0     200026d8   dss_main.oe674 (.text:main)
$.text:memset:rts6740_elf.lib<memset.c.obj>$0x0  $Tramp$S$$memset
   007f94a0     200029d0     200026c0   dss_main.oe674 (.text:main)
                             200026cc   dss_main.oe674 (.text:main)
$.text:__pop_rts:rts6740_elf.lib<push.asm.obj>$0x0  $Tramp$S$$__c6xabi_pop_rts
   00800680     200029e0     20002694   dss_main.oe674 (.text:MmwDemo_dssInitTask)
$.text:MmwDemo_dssDataPathInit:dss_main.oe674$0x0  $Tramp$S$$MmwDemo_dssDataPathInit
   007edce0     200029f0     200025d8   dss_main.oe674 (.text:MmwDemo_dssInitTask)
$.text:ti_sysbios_knl_Task_sleep__E:sysbios.ae674<BIOS.obj>$0x0  $Tramp$S$$ti_sysbios_knl_Task_sleep__E
   007e76a0     20002a00     20002554   dss_main.oe674 (.text:MmwDemo_dssInitTask)
$.text:MMWave_sync:libmmwave_xwr68xx.ae674<mmwave.oe674>$0x0  $Tramp$S$$MMWave_sync
   007fb320     20002a10     20002538   dss_main.oe674 (.text:MmwDemo_dssInitTask)
                             20002560   dss_main.oe674 (.text:MmwDemo_dssInitTask)
$.text:MMWave_init:libmmwave_xwr68xx.ae674<mmwave.oe674>$0x0  $Tramp$S$$MMWave_init
   007f56a0     20002a20     200024fc   dss_main.oe674 (.text:MmwDemo_dssInitTask)
$.text:ti_sysbios_knl_Event_create:dss_mmw_pe674.oe674$0x0  $Tramp$S$$ti_sysbios_knl_Event_create
   007fcf40     20002a30     20002440   dss_main.oe674 (.text:MmwDemo_dssInitTask)
$.text:xdc_runtime_Error_init__E:ti.targets.rts6000.ae674<Error.oe674>$0x0  $Tramp$S$$xdc_runtime_Error_init__E
   007ffd20     20002a40     20002434   dss_main.oe674 (.text:MmwDemo_dssInitTask)
$.text:ti_sysbios_knl_Task_create:dss_mmw_pe674.oe674$0x0  $Tramp$S$$ti_sysbios_knl_Task_create
   007fabc0     20002a50     20002420   dss_main.oe674 (.text:MmwDemo_dssInitTask)
                             200025c8   dss_main.oe674 (.text:MmwDemo_dssInitTask)
                             2000264c   dss_main.oe674 (.text:MmwDemo_dssInitTask)
                             20002780   dss_main.oe674 (.text:main)
$.text:ti_sysbios_knl_Task_Params__init__S:dss_mmw_pe674.oe674$0x0  $Tramp$S$$ti_sysbios_knl_Task_Params__init__S
   00800d20     20002a60     2000241c   dss_main.oe674 (.text:MmwDemo_dssInitTask)
                             200025ac   dss_main.oe674 (.text:MmwDemo_dssInitTask)
                             20002638   dss_main.oe674 (.text:MmwDemo_dssInitTask)
                             20002760   dss_main.oe674 (.text:main)
$.text:Mailbox_open:libmailbox_xwr68xx.ae674<mailbox.oe674>$0x0  $Tramp$S$$Mailbox_open
   007e7f60     20002a70     200023ac   dss_main.oe674 (.text:MmwDemo_dssInitTask)
$.text:Mailbox_Config_init:libmailbox_xwr68xx.ae674<mailbox.oe674>$0x0  $Tramp$S$$Mailbox_Config_init
   007fddc0     20002a80     20002388   dss_main.oe674 (.text:MmwDemo_dssInitTask)
$.text:ti_sysbios_knl_Semaphore_create:dss_mmw_pe674.oe674$0x0  $Tramp$S$$ti_sysbios_knl_Semaphore_create
   007fd0c0     20002a90     20002380   dss_main.oe674 (.text:MmwDemo_dssInitTask)
                             200027e4   dss_data_path.oe674 (.text:MmwDemo_dataPathInitEdma)
                             20002800   dss_data_path.oe674 (.text:MmwDemo_dataPathInitEdma)
$.text:ti_sysbios_knl_Semaphore_Params__init__S:dss_mmw_pe674.oe674$0x0  $Tramp$S$$ti_sysbios_knl_Semaphore_Params__init__S
   00800ce0     20002aa0     20002364   dss_main.oe674 (.text:MmwDemo_dssInitTask)
                             200027d4   dss_data_path.oe674 (.text:MmwDemo_dataPathInitEdma)
$.text:xdc_runtime_System_printf__E:dss_mmw_pe674.oe674$0x0  $Tramp$S$$xdc_runtime_System_printf__E
   007ffe60     20002ab0     20002360   dss_main.oe674 (.text:MmwDemo_dssInitTask)
                             20002400   dss_main.oe674 (.text:MmwDemo_dssInitTask)
                             200024ac   dss_main.oe674 (.text:MmwDemo_dssInitTask)
                             20002530   dss_main.oe674 (.text:MmwDemo_dssInitTask)
                             20002630   dss_main.oe674 (.text:MmwDemo_dssInitTask)
                             20002678   dss_main.oe674 (.text:MmwDemo_dssInitTask)
                             2000268c   dss_main.oe674 (.text:MmwDemo_dssInitTask)
                             200027a8   dss_main.oe674 (.text:main)
                             20002914   dss_data_path.oe674 (.text:MmwDemo_dataPathInitEdma)
$.text:UART_open:libuart_xwr68xx.ae674<UART.oe674>$0x0  $Tramp$S$$UART_open
   007fe060     20002ac0     2000230c   dss_main.oe674 (.text:MmwDemo_dssInitTask)
$.text:UART_Params_init:libuart_xwr68xx.ae674<UART.oe674>$0x0  $Tramp$S$$UART_Params_init
   00800560     20002ad0     200022d8   dss_main.oe674 (.text:MmwDemo_dssInitTask)
$.text:Mailbox_init:libmailbox_xwr68xx.ae674<mailbox.oe674>$0x0  $Tramp$S$$Mailbox_init
   007f8e80     20002ae0     200022cc   dss_main.oe674 (.text:MmwDemo_dssInitTask)
$.text:UART_init:libuart_xwr68xx.ae674<UART.oe674>$0x0  $Tramp$S$$UART_init
   007fb6e0     20002af0     200022c8   dss_main.oe674 (.text:MmwDemo_dssInitTask)
$.text:__push_rts:rts6740_elf.lib<push.asm.obj>$0x0  $Tramp$S$$__c6xabi_push_rts
   008006a0     20002b00     200022c0   dss_main.oe674 (.text:MmwDemo_dssInitTask)

[46 trampolines]
[80 trampoline calls]


SEGMENT ATTRIBUTES

    id tag      seg value
    -- ---      --- -----
     0 PHA_PAGE 12  1    


GLOBAL SYMBOLS: SORTED ALPHABETICALLY BY Name 

address   name                                                         
-------   ----                                                         
007fc2c0  ADCBUF_MMWave_close                                          
007e41a0  ADCBUF_MMWave_control                                        
007f65a0  ADCBUF_MMWave_getChanBufAddr                                 
007ffea0  ADCBUF_MMWave_init                                           
007f2140  ADCBUF_MMWave_open                                           
007ffec0  ADCBuf_Params_init                                           
0080fb28  ADCBuf_config                                                
007ffee0  ADCBuf_control                                               
0080e898  ADCBuf_defaultParams                                         
007fc340  ADCBuf_init                                                  
007fd640  ADCBuf_open                                                  
008007a0  C$$EXIT                                                      
007fe1d8  C$$IO$$                                                      
007ec440  CRC_computeSignature                                         
007f9900  CRC_getSignature                                             
007f85c0  CRC_getTransactionId                                         
007fff00  CRC_initConfigParams                                         
007e9a00  CRC_open                                                     
007e8f40  DSPF_sp_fftSPxSP                                             
007fff40  EDMA3ChannelToParamMap                                       
007fff60  EDMA3ClrCCErr                                                
007fd820  EDMA3ClrEvt                                                  
007fd880  EDMA3ClrIntr                                                 
007fd8e0  EDMA3ClrMissEvt                                              
007fd940  EDMA3DisableDmaEvt                                           
007fd9a0  EDMA3DisableEvtIntr                                          
007fff80  EDMA3DisableQdmaEvt                                          
007faec0  EDMA3EnableChInShadowReg                                     
007fda00  EDMA3EnableDmaEvt                                            
007fda60  EDMA3EnableEvtIntr                                           
007fffa0  EDMA3EnableQdmaEvt                                           
00800000  EDMA3ErrIntrHighStatusGet                                    
00800020  EDMA3GetCCErrStatus                                          
00800040  EDMA3GetErrIntrStatus                                        
00800060  EDMA3GetIntrStatus                                           
007f52e0  EDMA3Init                                                    
00800080  EDMA3IntrStatusHighGet                                       
007fc3c0  EDMA3MapChToEvtQ                                             
007ff0e0  EDMA3MapQdmaChToPaRAM                                        
008000a0  EDMA3QdmaClrMissEvt                                          
008000c0  EDMA3QdmaGetErrIntrStatus                                    
007fdac0  EDMA3SetEvt                                                  
007ff120  EDMA3SetPaRAM                                                
007ff160  EDMA3SetQdmaTrigWord                                         
007eb940  EDMA_configChannel                                           
007ebc00  EDMA_configErrorMonitoring                                   
007f66c0  EDMA_configParamSet                                          
007faf60  EDMA_disableChannel                                          
007fb000  EDMA_enableChannel                                           
008000e0  EDMA_getNumInstances                                         
007eff20  EDMA_init                                                    
007f86a0  EDMA_isTransferComplete                                      
007fc4c0  EDMA_linkParamSets                                           
007ec6e0  EDMA_open                                                    
007f9a80  EDMA_startDmaTransfer                                        
00800100  EDMAsetRegion                                                
007f37e0  EDMAutil_configType1                                         
007fb0a0  HOSTclose                                                    
007f8940  HOSTlseek                                                    
007f8a20  HOSTopen                                                     
007f9b40  HOSTread                                                     
007f2480  HOSTrename                                                   
007f9c00  HOSTunlink                                                   
007f8b00  HOSTwrite                                                    
00800120  HwiP_Params_init                                             
007ff1a0  HwiP_create                                                  
007ff1e0  HwiP_delete                                                  
00800140  HwiP_disable                                                 
00800160  HwiP_disableInterrupt                                        
00800180  HwiP_enableInterrupt                                         
008001a0  HwiP_restore                                                 
007f6fc0  MMWave_addBpmChirp                                           
007f5560  MMWave_addChirp                                              
007f70c0  MMWave_addProfile                                            
008001c0  MMWave_decodeErrorLevel                                      
007f9cc0  MMWave_deviceEventFxn                                        
007e71a0  MMWave_deviceExecuteFxn                                      
008001e0  MMWave_deviceGetDeviceInfo                                   
007f0e00  MMWave_deviceInitFxn                                         
007f8be0  MMWave_deviceStartFxn                                        
007ff220  MMWave_deviceSyncFxn                                         
007ff260  MMWave_encodeError                                           
007fb140  MMWave_execute                                               
007fb1e0  MMWave_executeLink                                           
007f3960  MMWave_flushCfg                                              
007f71c0  MMWave_getChirpCfg                                           
007f3ae0  MMWave_getChirpHandle                                        
007f9d80  MMWave_getNumChirps                                          
007f8cc0  MMWave_getProfileCfg                                         
007f72c0  MMWave_getProfileHandle                                      
007f56a0  MMWave_init                                                  
007f9f00  MMWave_initLink                                              
007ff2a0  MMWave_listAdd                                               
007fdc40  MMWave_listCat                                               
00800260  MMWave_listGetHead                                           
00800280  MMWave_listGetNext                                           
007ff2e0  MMWave_listRemove                                            
007fdca0  MMWave_listRemoveNode                                        
007fdd00  MMWave_osalMutexCreate                                       
00800320  MMWave_osalMutexDelete                                       
007ff320  MMWave_osalMutexLock                                         
00800340  MMWave_osalMutexUnlock                                       
007fdd60  MMWave_osalSemCreate                                         
00800360  MMWave_osalSemDelete                                         
00800380  MMWave_osalSemSignal                                         
007ff360  MMWave_osalSemWait                                           
007f3c60  MMWave_start                                                 
007ed860  MMWave_startLink                                             
007fb320  MMWave_sync                                                  
007fddc0  Mailbox_Config_init                                          
007f4520  Mailbox_close                                                
0080e524  Mailbox_defaultCfg                                           
007f8e80  Mailbox_init                                                 
007e7f60  Mailbox_open                                                 
007f0fc0  Mailbox_read                                                 
007f73c0  Mailbox_readFlush                                            
007ef100  Mailbox_write                                                
007fc5c0  Mailbox_writeReset                                           
00800400  MemoryP_ctrlAlloc                                            
00800420  MemoryP_ctrlFree                                             
007ef520  MmwDemo_dataPathConfigBuffers                                
007fb460  MmwDemo_dataPathConfigEdma                                   
00800440  MmwDemo_dataPathInit1Dstate                                  
200027c0  MmwDemo_dataPathInitEdma                                     
007fb500  MmwDemo_dataPathWait1DInputData                              
007edce0  MmwDemo_dssDataPathInit                                      
007fb5a0  MmwDemo_dssDataPathOutputLogging                             
00800480  MmwDemo_edmaErrorCallbackFxn                                 
008004a0  MmwDemo_edmaTransferControllerErrorCallbackFxn               
007e4820  MmwDemo_initConfigStruct                                     
00e02060  MmwDemo_interFrameProcessing                                 
008004c0  MmwDemo_mboxCallback                                         
007f8f60  MmwDemo_printHeapStats                                       
00e02120  MmwDemo_processChirp                                         
00e01da0  RADARDEMO_highAccuRangeProc_accumulateInput                  
00e01800  RADARDEMO_highAccuRangeProc_create                           
00e00000  RADARDEMO_highAccuRangeProc_rangeEst                         
00e01fc0  RADARDEMO_highAccuRangeProc_run                              
007fb640  SOC_SystemISR                                                
0080f950  SOC_TranslateAddr_LUT                                        
007f74c0  SOC_deviceInit                                               
007f67e0  SOC_gateClock                                                
007ff520  SOC_getInAddr_LUTType                                        
007ff560  SOC_getOutAddr_LUTType                                       
007f57e0  SOC_init                                                     
007ff5a0  SOC_isMMWaveDSSOperational                                   
007ff5e0  SOC_isMMWaveMSSOperational                                   
007f4680  SOC_registerSysIntListener                                   
007fdee0  SOC_setMMWaveDSSLinkState                                    
007fdf40  SOC_setMMWaveMSSLinkState                                    
007f75c0  SOC_translateAddress                                         
007f47e0  SOC_ungateClock                                              
007fdfa0  SOC_unhaltBSS                                                
007fe000  SOC_waitBSSPowerUp                                           
008004e0  SemaphoreP_Params_init                                       
007fc740  SemaphoreP_create                                            
00800500  SemaphoreP_delete                                            
00800520  SemaphoreP_pend                                              
00800540  SemaphoreP_post                                              
00800540  SemaphoreP_postFromClock                                     
00800540  SemaphoreP_postFromISR                                       
00800560  UART_Params_init                                             
0080fb40  UART_config                                                  
0080e3e0  UART_defaultParams                                           
007fb6e0  UART_init                                                    
007fe060  UART_open                                                    
007fe120  UartSci_closeEDMA                                            
00800580  UartSci_disableTxDMA                                         
008005a0  UartSci_enableTxDMA                                          
008005e0  UartSci_initiateRxEDMA                                       
007f0100  UartSci_initiateTxEDMA                                       
00800600  UartSci_isEDMAEnabled                                        
007f02e0  UartSci_openEDMA                                             
00800620  _DebugP_assert                                               
00010000  _L3data_size                                                 
20000000  _L3data_start                                                
00810378  _MmwDemo_fastCode_L1PSRAM_copy_table                         
00000000  __ASM__                                                      
00810248  __CIOBUF_                                                    
00000070  __ISA__                                                      
00000088  __PLAT__                                                     
000000a8  __TARG__                                                     
UNDEFED   __TI_CINIT_Base                                              
UNDEFED   __TI_CINIT_Limit                                             
UNDEFED   __TI_Handler_Table_Base                                      
UNDEFED   __TI_Handler_Table_Limit                                     
UNDEFED   __TI_INITARRAY_Base                                          
UNDEFED   __TI_INITARRAY_Limit                                         
00810070  __TI_STACK_END                                               
00000418  __TI_STACK_SIZE                                              
00810368  __TI_STATIC_BASE                                             
UNDEFED   __TI_TLS_INIT_Base                                           
UNDEFED   __TI_TLS_INIT_Limit                                          
007fb820  __TI_cleanup                                                 
0080fbd8  __TI_cleanup_ptr                                             
007f78c0  __TI_closefile                                               
007fa380  __TI_doflush                                                 
0080fbdc  __TI_dtors_ptr                                               
0080fbe0  __TI_enable_exit_profile_output                              
007ff620  __TI_frcmpyd_div                                             
0080fa3c  __TI_ft_end                                                  
007f9120  __TI_ltoa                                                    
ffffffff  __TI_pprof_out_hndl                                          
007e0200  __TI_printfi                                                 
ffffffff  __TI_prof_data_size                                          
ffffffff  __TI_prof_data_start                                         
007fc7c0  __TI_readmsg                                                 
00810378  __TI_table__MmwDemo_fastCode_L1PSRAM_copy_table              
007fac80  __TI_tls_init                                                
0080cb90  __TI_tmpnams                                                 
007fe180  __TI_writemsg                                                
007f9200  __TI_wrt_ok                                                  
000000d0  __TRDR__                                                     
ffffffff  __binit__                                                    
007e5b20  __c6xabi_divd                                                
007ecec0  __c6xabi_divf                                                
007fa440  __c6xabi_divu                                                
007f1500  __c6xabi_divul                                               
007ed140  __c6xabi_divull                                              
00800640  __c6xabi_errno_addr                                          
007fc840  __c6xabi_fixdu                                               
007fb8c0  __c6xabi_fixfu                                               
007ff660  __c6xabi_isinf                                               
007fc8c0  __c6xabi_llshl                                               
007fe1e0  __c6xabi_llshru                                              
007fb960  __c6xabi_nround                                              
00800680  __c6xabi_pop_rts                                             
008006a0  __c6xabi_push_rts                                            
007fa500  __c6xabi_remi                                                
007fba00  __c6xabi_remu                                                
007fb960  __c6xabi_roundl                                              
007ff6e0  __c6xabi_strasgi_64plus                                      
00800660  __c6xabi_trunc                                               
00800660  __c6xabi_truncl                                              
ffffffff  __c_args__                                                   
007fa440  __divu                                                       
0080fae4  __errno                                                      
00800680  __pop_rts                                                    
008006a0  __push_rts                                                   
007fa500  __remi                                                       
007fba00  __remu                                                       
007ff6e0  __strasgi_64plus                                             
007ff720  _args_main                                                   
007f6900  _auto_init_elf                                               
007fbaa0  _c_int00                                                     
0080dee8  _ctypes_                                                     
0080f678  _device                                                      
0080f178  _ftable                                                      
0080f7d4  _lock                                                        
008006c0  _nop                                                         
00800720  _register_lock                                               
00800740  _register_unlock                                             
00800760  _signbit                                                     
0080fc58  _stack                                                       
0080f558  _stream                                                      
007fe240  _subcull                                                     
0080f8cc  _unlock                                                      
008007a0  abort                                                        
007f7ac0  atoi                                                         
ffffffff  binit                                                        
008007c0  cache_setL2Size                                              
007fe300  cache_setMar                                                 
008007e0  cache_wbInvAllL2Wait                                         
007f92e0  close                                                        
007ea740  cos                                                          
007ea740  cosl                                                         
21080000  detOutputHdr                                                 
0080ce40  edmaDbg                                                      
0080fae4  errno                                                        
007f93c0  exit                                                         
007f7bc0  fflush                                                       
007fbbe0  finddevice                                                   
007f16c0  fputc                                                        
007eaa60  fputs                                                        
007ff7a0  free                                                         
007f1880  frexp                                                        
007f1880  frexpl                                                       
007f7cc0  fseek                                                        
0080e7f8  gADCBufFxnTable                                              
0080e8b8  gADCBufHwCfg                                                 
0081036c  gCRCRegister                                                 
0080e418  gEdmaHwAttrs                                                 
0080ce50  gMMWave_DualcoreMCB                                          
0080ccd0  gMMWave_MCB                                                  
0080fb58  gMailboxDssBssHwCfg                                          
0080fb70  gMailboxDssMssHwCfg                                          
0080f834  gMailboxMCB                                                  
0080c538  gMmwDssMCB                                                   
21080020  gMmwHSRAM                                                    
00f00000  gMmwL1                                                       
00801060  gMmwL2                                                       
0080a060  gMmwL2Scratch                                                
20000000  gMmwL3                                                       
0080cdd0  gRadarOsal_heapObj                                           
0080fae8  gSOCHwAttrib                                                 
0080fa98  gUartSciFxnTable                                             
0080fa40  gUartSciHwCfg                                                
007f6b40  getdevice                                                    
007f3de0  ldexp                                                        
007f3de0  ldexpl                                                       
007fe360  lseek                                                        
200026a0  main                                                         
007fd1c0  malloc                                                       
007fe3c0  memccpy                                                      
007fbc80  memcpy                                                       
007f94a0  memset                                                       
007fa5c0  modf                                                         
007fa5c0  modfl                                                        
0080ce58  parmbuf                                                      
007f9580  printf                                                       
007f16c0  putc                                                         
00800800  putchar                                                      
007f27c0  radarOsal_memAlloc                                           
00800820  radarOsal_memDeInit                                          
007f7dc0  radarOsal_memInit                                            
00810370  regionId                                                     
007fd2c0  remove                                                       
007ff7e0  rlAppendDummy                                                
007fbd20  rlAppendSubBlock                                             
007fe420  rlDeviceGetMssVersion                                        
007ff820  rlDeviceGetRfVersion                                         
007f7ec0  rlDeviceGetVersion                                           
007fc9c0  rlDeviceIdentifyCmdDir                                       
007f7fc0  rlDevicePowerOff                                             
007f5ba0  rlDevicePowerOn                                              
007f6c60  rlDriverAsyncEventHandler                                    
007fa680  rlDriverCalChkSum                                            
007ebec0  rlDriverCmdInvoke                                            
007eb0a0  rlDriverCmdSendRetry                                         
007f2960  rlDriverDeInit                                               
007fa740  rlDriverExecuteGetApi                                        
007fa800  rlDriverExecuteSetApi                                        
00800840  rlDriverGetHandle                                            
00800860  rlDriverGetPlatformId                                        
007f9660  rlDriverHostIrqHandler                                       
007ed3a0  rlDriverInit                                                 
00800880  rlDriverIsDeviceMapValid                                     
007f1a40  rlDriverMsgCmdReply                                          
007e9d60  rlDriverMsgRead                                              
007f4c00  rlDriverMsgReadCmdCtx                                        
007f5ce0  rlDriverMsgReadSpawnCtx                                      
007f2b00  rlDriverMsgWrite                                             
007fca40  rlDriverOsiInit                                              
007f6d80  rlDriverProcRdMsg                                            
007f04c0  rlDriverRdVerifyMsg                                          
007e8780  rlDriverRxHdrRead                                            
007f9740  rlDriverValidateHdr                                          
007fbdc0  rlDriverVerifyCRC                                            
007f4d60  rlDriverWaitForResponse                                      
007fe480  rlEnableContMode                                             
007fa8c0  rlGetSubBlock                                                
008008a0  rlGetSubBlockId                                              
008008c0  rlGetSubBlockLen                                             
007fe4e0  rlRfRunTimeCalibConfig                                       
007fe540  rlSensorStart                                                
0080f358  rl_rxMsg                                                     
0080f458  rl_txMsg                                                     
007f3de0  scalbn                                                       
007f3de0  scalbnl                                                      
007f1c00  setvbuf                                                      
007eb380  sin                                                          
007eb380  sinl                                                         
008008e0  startClock                                                   
0080fac0  ti_sysbios_BIOS_Module__state__V                             
007ffa20  ti_sysbios_BIOS_RtsGateProxy_Handle__label__S                
00800900  ti_sysbios_BIOS_RtsGateProxy_enter__E                        
00800920  ti_sysbios_BIOS_RtsGateProxy_leave__E                        
00800b40  ti_sysbios_BIOS_RtsGateProxy_query__E                        
007fcac0  ti_sysbios_BIOS_atExitFunc__I                                
007fe5a0  ti_sysbios_BIOS_errorRaiseHook__I                            
007ff860  ti_sysbios_BIOS_exitFunc__I                                  
00800940  ti_sysbios_BIOS_linkedWithIncorrectBootLibrary__E            
00800960  ti_sysbios_BIOS_nullFunc__I                                  
007fcb40  ti_sysbios_BIOS_registerRTSLock__I                           
007fe600  ti_sysbios_BIOS_removeRTSLock__I                             
007ff8a0  ti_sysbios_BIOS_rtsLock__I                                   
007ff8e0  ti_sysbios_BIOS_rtsUnlock__I                                 
00800980  ti_sysbios_BIOS_setThreadType__E                             
007fe660  ti_sysbios_BIOS_startFunc__I                                 
008009a0  ti_sysbios_BIOS_start__E                                     
008009c0  ti_sysbios_family_c62_TaskSupport_Module__startupDone__S     
007ff760  ti_sysbios_family_c62_TaskSupport_buildTaskStack             
008009e0  ti_sysbios_family_c62_TaskSupport_checkStack__E              
00800a00  ti_sysbios_family_c62_TaskSupport_getStackAlignment__E       
00800780  ti_sysbios_family_c62_TaskSupport_glue                       
0080e80c  ti_sysbios_family_c62_TaskSupport_stackAlignment__C          
007fe6c0  ti_sysbios_family_c62_TaskSupport_start__E                   
007fc940  ti_sysbios_family_c62_TaskSupport_swap__E                    
0080e834  ti_sysbios_family_c64p_Cache_E_invalidL1CacheSize__C         
0080e8ec  ti_sysbios_family_c64p_Cache_E_invalidL2CacheSize__C         
0080e908  ti_sysbios_family_c64p_Cache_MAR0_31__C                      
0080e90c  ti_sysbios_family_c64p_Cache_MAR128_159__C                   
0080e910  ti_sysbios_family_c64p_Cache_MAR160_191__C                   
0080e914  ti_sysbios_family_c64p_Cache_MAR192_223__C                   
0080e918  ti_sysbios_family_c64p_Cache_MAR224_255__C                   
0080e91c  ti_sysbios_family_c64p_Cache_MAR32_63__C                     
0080e920  ti_sysbios_family_c64p_Cache_MAR64_95__C                     
0080e924  ti_sysbios_family_c64p_Cache_MAR96_127__C                    
0080dfea  ti_sysbios_family_c64p_Cache_Module__id__C                   
0080fbf4  ti_sysbios_family_c64p_Cache_Module__state__V                
007e92e0  ti_sysbios_family_c64p_Cache_Module_startup__E               
007f5e20  ti_sysbios_family_c64p_Cache_getL1DInitSize__I               
007f2ca0  ti_sysbios_family_c64p_Cache_getL2InitSize__I                
00004000  ti_sysbios_family_c64p_Cache_l1dSize                         
00001000  ti_sysbios_family_c64p_Cache_l1pSize                         
00000000  ti_sysbios_family_c64p_Cache_l2Size                          
007fe720  ti_sysbios_family_c64p_Cache_setMar__E                       
0080e928  ti_sysbios_family_c64p_EventCombiner_A_invalidEventId__C     
0080e8c8  ti_sysbios_family_c64p_EventCombiner_EVTMASK__C              
0080e92c  ti_sysbios_family_c64p_EventCombiner_EVTRegs__C              
0080e930  ti_sysbios_family_c64p_EventCombiner_E_unpluggedEvent__C     
0080e934  ti_sysbios_family_c64p_EventCombiner_Module__diagsEnabled__C 
0080e938  ti_sysbios_family_c64p_EventCombiner_Module__diagsIncluded__C
0080e93c  ti_sysbios_family_c64p_EventCombiner_Module__diagsMask__C    
0080e832  ti_sysbios_family_c64p_EventCombiner_Module__id__C           
0080eb90  ti_sysbios_family_c64p_EventCombiner_Module__state__V        
007fe780  ti_sysbios_family_c64p_EventCombiner_Module_startup__E       
007f2e40  ti_sysbios_family_c64p_EventCombiner_disableEvent__E         
007f06a0  ti_sysbios_family_c64p_EventCombiner_dispatchPlug__E         
007ee160  ti_sysbios_family_c64p_EventCombiner_dispatch__E             
007f2fe0  ti_sysbios_family_c64p_EventCombiner_enableEvent__E          
007fe7e0  ti_sysbios_family_c64p_EventCombiner_unused__E               
0080e940  ti_sysbios_family_c64p_Exception_E_exceptionMax__C           
0080eb54  ti_sysbios_family_c64p_Exception_Module__id__C               
0080fa0c  ti_sysbios_family_c64p_Exception_Module__state__V            
007fbe60  ti_sysbios_family_c64p_Exception_Module_startup__E           
007f3f60  ti_sysbios_family_c64p_Exception_dispatch__E                 
0080e944  ti_sysbios_family_c64p_Exception_exceptionHook__C            
0080e948  ti_sysbios_family_c64p_Exception_externalHook__C             
007e32c0  ti_sysbios_family_c64p_Exception_handler__I                  
007ee3a0  ti_sysbios_family_c64p_Exception_internalHandler__I          
0080e94c  ti_sysbios_family_c64p_Exception_internalHook__C             
0080e950  ti_sysbios_family_c64p_Exception_nmiHook__C                  
0080eb56  ti_sysbios_family_c64p_Exception_useInternalBuffer__C        
007e0000  ti_sysbios_family_c64p_Hwi0                                  
0080e954  ti_sysbios_family_c64p_Hwi_INTRMUX1Address__C                
0080e958  ti_sysbios_family_c64p_Hwi_LD_end__C                         
0080e95c  ti_sysbios_family_c64p_Hwi_LM_begin__C                       
0080e960  ti_sysbios_family_c64p_Hwi_Module__diagsEnabled__C           
0080e964  ti_sysbios_family_c64p_Hwi_Module__diagsIncluded__C          
0080e968  ti_sysbios_family_c64p_Hwi_Module__diagsMask__C              
0080eb58  ti_sysbios_family_c64p_Hwi_Module__id__C                     
0080eb5a  ti_sysbios_family_c64p_Hwi_Module__loggerDefined__C          
0080e96c  ti_sysbios_family_c64p_Hwi_Module__loggerFxn1__C             
0080e970  ti_sysbios_family_c64p_Hwi_Module__loggerFxn8__C             
0080e974  ti_sysbios_family_c64p_Hwi_Module__loggerObj__C              
00800a20  ti_sysbios_family_c64p_Hwi_Module__startupDone__F            
00800a20  ti_sysbios_family_c64p_Hwi_Module__startupDone__S            
0080f768  ti_sysbios_family_c64p_Hwi_Module__state__V                  
007f4ec0  ti_sysbios_family_c64p_Hwi_Module_startup__E                 
0080f6f0  ti_sysbios_family_c64p_Hwi_Object__table__V                  
00800a40  ti_sysbios_family_c64p_Hwi_clearInterrupt__E                 
007ff920  ti_sysbios_family_c64p_Hwi_disableInterrupt__E               
007ef920  ti_sysbios_family_c64p_Hwi_dispatchAlways                    
007fcbc0  ti_sysbios_family_c64p_Hwi_dispatchC__I                      
007ee5e0  ti_sysbios_family_c64p_Hwi_dispatchCore__I                   
007ff960  ti_sysbios_family_c64p_Hwi_enableInterrupt__E                
007fbf00  ti_sysbios_family_c64p_Hwi_getStackInfo__E                   
007e0000  ti_sysbios_family_c64p_Hwi_int0                              
007e0020  ti_sysbios_family_c64p_Hwi_int1                              
007e0140  ti_sysbios_family_c64p_Hwi_int10                             
007e0160  ti_sysbios_family_c64p_Hwi_int11                             
007e0180  ti_sysbios_family_c64p_Hwi_int12                             
007e01a0  ti_sysbios_family_c64p_Hwi_int13                             
007e01c0  ti_sysbios_family_c64p_Hwi_int14                             
007e01e0  ti_sysbios_family_c64p_Hwi_int15                             
007e0040  ti_sysbios_family_c64p_Hwi_int2                              
007e0060  ti_sysbios_family_c64p_Hwi_int3                              
007e0080  ti_sysbios_family_c64p_Hwi_int4                              
007e00a0  ti_sysbios_family_c64p_Hwi_int5                              
007e00c0  ti_sysbios_family_c64p_Hwi_int6                              
007e00e0  ti_sysbios_family_c64p_Hwi_int7                              
007e0100  ti_sysbios_family_c64p_Hwi_int8                              
007e0120  ti_sysbios_family_c64p_Hwi_int9                              
00800a60  ti_sysbios_family_c64p_Hwi_startup__E                        
007fe2a0  ti_sysbios_family_c64p_Hwi_switchAndDispatch__I              
00800a80  ti_sysbios_family_c64p_Hwi_switchFromBootStack__E            
007ff9a0  ti_sysbios_gates_GateHwi_Handle__label__S                    
00800aa0  ti_sysbios_gates_GateHwi_Instance_init__E                    
0080e548  ti_sysbios_gates_GateHwi_Module__FXNS__C                     
0080fbe4  ti_sysbios_gates_GateHwi_Module__root__V                     
0080e61c  ti_sysbios_gates_GateHwi_Object__DESC__C                     
0080e748  ti_sysbios_gates_GateHwi_Object__PARAMS__C                   
007fcc40  ti_sysbios_gates_GateHwi_Object__create__S                   
007ff9e0  ti_sysbios_gates_GateHwi_Object__delete__S                   
0080fc48  ti_sysbios_gates_GateHwi_Object__table__V                    
00800ac0  ti_sysbios_gates_GateHwi_enter__E                            
00800ae0  ti_sysbios_gates_GateHwi_leave__E                            
00800b00  ti_sysbios_gates_GateHwi_query__E                            
0080e978  ti_sysbios_gates_GateMutex_A_badContext__C                   
007ffa20  ti_sysbios_gates_GateMutex_Handle__label__S                  
0080e97c  ti_sysbios_gates_GateMutex_Instance_State_sem__O             
00800b20  ti_sysbios_gates_GateMutex_Instance_finalize__E              
007ffa60  ti_sysbios_gates_GateMutex_Instance_init__E                  
0080e56c  ti_sysbios_gates_GateMutex_Module__FXNS__C                   
0080e980  ti_sysbios_gates_GateMutex_Module__diagsEnabled__C           
0080e984  ti_sysbios_gates_GateMutex_Module__diagsIncluded__C          
0080e988  ti_sysbios_gates_GateMutex_Module__diagsMask__C              
0080eb5c  ti_sysbios_gates_GateMutex_Module__id__C                     
0080fbec  ti_sysbios_gates_GateMutex_Module__root__V                   
0080e63c  ti_sysbios_gates_GateMutex_Object__DESC__C                   
0080e760  ti_sysbios_gates_GateMutex_Object__PARAMS__C                 
007fccc0  ti_sysbios_gates_GateMutex_Object__create__S                 
007fe840  ti_sysbios_gates_GateMutex_Object__delete__S                 
0080f990  ti_sysbios_gates_GateMutex_Object__table__V                  
007f0880  ti_sysbios_gates_GateMutex_enter__E                          
007ffaa0  ti_sysbios_gates_GateMutex_leave__E                          
00800b40  ti_sysbios_gates_GateMutex_query__E                          
0080e98c  ti_sysbios_hal_Hwi_E_stackOverflow__C                        
00800a20  ti_sysbios_hal_Hwi_HwiProxy_Module__startupDone__S           
00800a40  ti_sysbios_hal_Hwi_HwiProxy_clearInterrupt__E                
007ff920  ti_sysbios_hal_Hwi_HwiProxy_disableInterrupt__E              
007ff960  ti_sysbios_hal_Hwi_HwiProxy_enableInterrupt__E               
007fbf00  ti_sysbios_hal_Hwi_HwiProxy_getStackInfo__E                  
00800a60  ti_sysbios_hal_Hwi_HwiProxy_startup__E                       
00800a80  ti_sysbios_hal_Hwi_HwiProxy_switchFromBootStack__E           
0080eb5e  ti_sysbios_hal_Hwi_Module__id__C                             
00800b60  ti_sysbios_hal_Hwi_Module_startup__E                         
0080fbf8  ti_sysbios_hal_Hwi_Object__table__V                          
007fcd40  ti_sysbios_hal_Hwi_checkStack                                
00800a40  ti_sysbios_hal_Hwi_clearInterrupt__E                         
007ff920  ti_sysbios_hal_Hwi_disableInterrupt__E                       
007ff960  ti_sysbios_hal_Hwi_enableInterrupt__E                        
007fbf00  ti_sysbios_hal_Hwi_getStackInfo__E                           
007fe8a0  ti_sysbios_hal_Hwi_initStack                                 
00800a60  ti_sysbios_hal_Hwi_startup__E                                
00800a80  ti_sysbios_hal_Hwi_switchFromBootStack__E                    
0080e990  ti_sysbios_heaps_HeapMem_A_align__C                          
0080e994  ti_sysbios_heaps_HeapMem_A_heapSize__C                       
0080e998  ti_sysbios_heaps_HeapMem_A_invalidFree__C                    
0080e99c  ti_sysbios_heaps_HeapMem_A_zeroBlock__C                      
0080e9a0  ti_sysbios_heaps_HeapMem_E_memory__C                         
007ffae0  ti_sysbios_heaps_HeapMem_Handle__label__S                    
00806060  ti_sysbios_heaps_HeapMem_Instance_State_0_buf__A             
007eb660  ti_sysbios_heaps_HeapMem_Instance_init__E                    
007ffa20  ti_sysbios_heaps_HeapMem_Module_GateProxy_Handle__label__S   
00800b80  ti_sysbios_heaps_HeapMem_Module_GateProxy_enter__E           
00800ba0  ti_sysbios_heaps_HeapMem_Module_GateProxy_leave__E           
00800b40  ti_sysbios_heaps_HeapMem_Module_GateProxy_query__E           
0080e4d8  ti_sysbios_heaps_HeapMem_Module__FXNS__C                     
0080e9a4  ti_sysbios_heaps_HeapMem_Module__diagsEnabled__C             
0080e9a8  ti_sysbios_heaps_HeapMem_Module__diagsIncluded__C            
0080e9ac  ti_sysbios_heaps_HeapMem_Module__diagsMask__C                
0080e9b0  ti_sysbios_heaps_HeapMem_Module__gateObj__C                  
0080eb60  ti_sysbios_heaps_HeapMem_Module__id__C                       
0080fc00  ti_sysbios_heaps_HeapMem_Module__root__V                     
0080e65c  ti_sysbios_heaps_HeapMem_Object__DESC__C                     
0080e590  ti_sysbios_heaps_HeapMem_Object__PARAMS__C                   
0080e9b4  ti_sysbios_heaps_HeapMem_Object__count__C                    
007fcdc0  ti_sysbios_heaps_HeapMem_Object__create__S                   
007ffb20  ti_sysbios_heaps_HeapMem_Object__delete__S                   
007ffb60  ti_sysbios_heaps_HeapMem_Object__get__S                      
0080fb88  ti_sysbios_heaps_HeapMem_Object__table__V                    
007e5500  ti_sysbios_heaps_HeapMem_allocUnprotected__E                 
007f9820  ti_sysbios_heaps_HeapMem_alloc__E                            
007e6100  ti_sysbios_heaps_HeapMem_freeUnprotected__E                  
007fe900  ti_sysbios_heaps_HeapMem_free__E                             
007fa980  ti_sysbios_heaps_HeapMem_getStats__E                         
007fce40  ti_sysbios_heaps_HeapMem_init__I                             
00800bc0  ti_sysbios_heaps_HeapMem_isBlocking__E                       
0080e9b8  ti_sysbios_heaps_HeapMem_reqAlign__C                         
0080e9bc  ti_sysbios_knl_Clock_LM_begin__C                             
0080e9c0  ti_sysbios_knl_Clock_LM_tick__C                              
0080e9c4  ti_sysbios_knl_Clock_LW_delayed__C                           
0080e9c8  ti_sysbios_knl_Clock_Module_State_clockQ__O                  
0080e9cc  ti_sysbios_knl_Clock_Module__diagsEnabled__C                 
0080e9d0  ti_sysbios_knl_Clock_Module__diagsIncluded__C                
0080e9d4  ti_sysbios_knl_Clock_Module__diagsMask__C                    
0080eb62  ti_sysbios_knl_Clock_Module__id__C                           
0080eb64  ti_sysbios_knl_Clock_Module__loggerDefined__C                
0080e9d8  ti_sysbios_knl_Clock_Module__loggerFxn1__C                   
0080e9dc  ti_sysbios_knl_Clock_Module__loggerFxn2__C                   
0080e9e0  ti_sysbios_knl_Clock_Module__loggerObj__C                    
0080fa6c  ti_sysbios_knl_Clock_Module__state__V                        
007fe960  ti_sysbios_knl_Clock_Module_startup__E                       
00800d80  ti_sysbios_knl_Clock_TimerProxy_Module__startupDone__S       
00800be0  ti_sysbios_knl_Clock_TimerProxy_getMaxTicks__E               
007f3320  ti_sysbios_knl_Clock_TimerProxy_startup__E                   
007fcec0  ti_sysbios_knl_Clock_doTick__I                               
007faa40  ti_sysbios_knl_Clock_logTick__E                              
007ec180  ti_sysbios_knl_Clock_workFunc__E                             
0080e9e4  ti_sysbios_knl_Event_A_badContext__C                         
0080e9e8  ti_sysbios_knl_Event_A_eventInUse__C                         
0080e9ec  ti_sysbios_knl_Event_A_nullEventId__C                        
0080e9f0  ti_sysbios_knl_Event_A_nullEventMasks__C                     
0080e9f4  ti_sysbios_knl_Event_A_pendTaskDisabled__C                   
0080e9f8  ti_sysbios_knl_Event_Instance_State_pendQ__O                 
00800c00  ti_sysbios_knl_Event_Instance_init__E                        
0080e9fc  ti_sysbios_knl_Event_LM_pend__C                              
0080ea00  ti_sysbios_knl_Event_LM_post__C                              
0080ea04  ti_sysbios_knl_Event_Module__diagsEnabled__C                 
0080ea08  ti_sysbios_knl_Event_Module__diagsIncluded__C                
0080ea0c  ti_sysbios_knl_Event_Module__diagsMask__C                    
0080eb66  ti_sysbios_knl_Event_Module__id__C                           
0080eb68  ti_sysbios_knl_Event_Module__loggerDefined__C                
0080ea10  ti_sysbios_knl_Event_Module__loggerFxn4__C                   
0080ea14  ti_sysbios_knl_Event_Module__loggerFxn8__C                   
0080ea18  ti_sysbios_knl_Event_Module__loggerObj__C                    
0080fc08  ti_sysbios_knl_Event_Module__root__V                         
0080e67c  ti_sysbios_knl_Event_Object__DESC__C                         
0080e778  ti_sysbios_knl_Event_Object__PARAMS__C                       
007fcf40  ti_sysbios_knl_Event_create                                  
007fcfc0  ti_sysbios_knl_Event_pendTimeout__I                          
007e2ae0  ti_sysbios_knl_Event_pend__E                                 
007ea0c0  ti_sysbios_knl_Event_post__E                                 
0080ea20  ti_sysbios_knl_Idle_funcList__A                              
0080e8e4  ti_sysbios_knl_Idle_funcList__C                              
00800c20  ti_sysbios_knl_Idle_loop__E                                  
007fd040  ti_sysbios_knl_Idle_run__E                                   
00800c40  ti_sysbios_knl_Queue_Instance_init__E                        
0080fc10  ti_sysbios_knl_Queue_Module__root__V                         
0080e69c  ti_sysbios_knl_Queue_Object__DESC__C                         
0080e790  ti_sysbios_knl_Queue_Object__PARAMS__C                       
00800c60  ti_sysbios_knl_Queue_Object__get__S                          
007fe9c0  ti_sysbios_knl_Queue_construct                               
00800c80  ti_sysbios_knl_Queue_destruct                                
00800ca0  ti_sysbios_knl_Queue_empty__E                                
0080ea1c  ti_sysbios_knl_Semaphore_A_badContext__C                     
0080ea24  ti_sysbios_knl_Semaphore_A_noEvents__C                       
0080ea28  ti_sysbios_knl_Semaphore_A_overflow__C                       
0080ea2c  ti_sysbios_knl_Semaphore_A_pendTaskDisabled__C               
0080ea30  ti_sysbios_knl_Semaphore_Instance_State_pendQ__O             
00800cc0  ti_sysbios_knl_Semaphore_Instance_finalize__E                
007f5f60  ti_sysbios_knl_Semaphore_Instance_init__E                    
0080ea34  ti_sysbios_knl_Semaphore_LM_pend__C                          
0080ea38  ti_sysbios_knl_Semaphore_LM_post__C                          
0080ea3c  ti_sysbios_knl_Semaphore_Module__diagsEnabled__C             
0080ea40  ti_sysbios_knl_Semaphore_Module__diagsIncluded__C            
0080ea44  ti_sysbios_knl_Semaphore_Module__diagsMask__C                
0080eb6a  ti_sysbios_knl_Semaphore_Module__id__C                       
0080eb6c  ti_sysbios_knl_Semaphore_Module__loggerDefined__C            
0080ea48  ti_sysbios_knl_Semaphore_Module__loggerFxn2__C               
0080ea4c  ti_sysbios_knl_Semaphore_Module__loggerFxn4__C               
0080ea50  ti_sysbios_knl_Semaphore_Module__loggerObj__C                
0080fc18  ti_sysbios_knl_Semaphore_Module__root__V                     
0080e6bc  ti_sysbios_knl_Semaphore_Object__DESC__C                     
0080e5b4  ti_sysbios_knl_Semaphore_Object__PARAMS__C                   
007fea20  ti_sysbios_knl_Semaphore_Object__delete__S                   
00800ce0  ti_sysbios_knl_Semaphore_Params__init__S                     
007fea80  ti_sysbios_knl_Semaphore_construct                           
007fd0c0  ti_sysbios_knl_Semaphore_create                              
00800d00  ti_sysbios_knl_Semaphore_delete                              
007ffba0  ti_sysbios_knl_Semaphore_destruct                            
007fd140  ti_sysbios_knl_Semaphore_pendTimeout__I                      
007e3a40  ti_sysbios_knl_Semaphore_pend__E                             
007ead80  ti_sysbios_knl_Semaphore_post__E                             
0080ea54  ti_sysbios_knl_Task_A_badPriority__C                         
0080ea58  ti_sysbios_knl_Task_A_badTaskState__C                        
0080ea5c  ti_sysbios_knl_Task_A_badThreadType__C                       
0080ea60  ti_sysbios_knl_Task_A_badTimeout__C                          
0080ea64  ti_sysbios_knl_Task_A_noPendElem__C                          
0080ea68  ti_sysbios_knl_Task_A_sleepTaskDisabled__C                   
0080ea6c  ti_sysbios_knl_Task_E_spOutOfBounds__C                       
0080ea70  ti_sysbios_knl_Task_E_stackOverflow__C                       
0080c870  ti_sysbios_knl_Task_Instance_State_0_stack__A                
007e6c60  ti_sysbios_knl_Task_Instance_finalize__E                     
007e8b80  ti_sysbios_knl_Task_Instance_init__E                         
0080ea74  ti_sysbios_knl_Task_LD_block__C                              
0080ea78  ti_sysbios_knl_Task_LD_exit__C                               
0080ea7c  ti_sysbios_knl_Task_LD_ready__C                              
0080ea80  ti_sysbios_knl_Task_LM_sleep__C                              
0080ea84  ti_sysbios_knl_Task_LM_switch__C                             
0080fc50  ti_sysbios_knl_Task_Module_State_0_idleTask__A               
0080f5f8  ti_sysbios_knl_Task_Module_State_0_readyQ__A                 
0080ea88  ti_sysbios_knl_Task_Module_State_inactiveQ__O                
0080ea8c  ti_sysbios_knl_Task_Module__diagsEnabled__C                  
0080ea90  ti_sysbios_knl_Task_Module__diagsIncluded__C                 
0080ea94  ti_sysbios_knl_Task_Module__diagsMask__C                     
0080eb6e  ti_sysbios_knl_Task_Module__id__C                            
0080eb70  ti_sysbios_knl_Task_Module__loggerDefined__C                 
0080ea98  ti_sysbios_knl_Task_Module__loggerFxn2__C                    
0080ea9c  ti_sysbios_knl_Task_Module__loggerFxn4__C                    
0080eaa0  ti_sysbios_knl_Task_Module__loggerObj__C                     
0080fc20  ti_sysbios_knl_Task_Module__root__V                          
0080f884  ti_sysbios_knl_Task_Module__state__V                         
007e9680  ti_sysbios_knl_Task_Module_startup__E                        
0080e6dc  ti_sysbios_knl_Task_Object__DESC__C                          
0080e320  ti_sysbios_knl_Task_Object__PARAMS__C                        
0080eaa4  ti_sysbios_knl_Task_Object__count__C                         
007ffbe0  ti_sysbios_knl_Task_Object__get__S                           
0080f7d8  ti_sysbios_knl_Task_Object__table__V                         
00800d20  ti_sysbios_knl_Task_Params__init__S                          
008009c0  ti_sysbios_knl_Task_SupportProxy_Module__startupDone__S      
008009e0  ti_sysbios_knl_Task_SupportProxy_checkStack__E               
00800a00  ti_sysbios_knl_Task_SupportProxy_getStackAlignment__E        
007fe6c0  ti_sysbios_knl_Task_SupportProxy_start__E                    
007fc940  ti_sysbios_knl_Task_SupportProxy_swap__E                     
0080eaa8  ti_sysbios_knl_Task_allBlockedFunc__C                        
007fab00  ti_sysbios_knl_Task_allBlockedFunction__I                    
007f60a0  ti_sysbios_knl_Task_blockI__E                                
007f1dc0  ti_sysbios_knl_Task_checkStacks__E                           
007fabc0  ti_sysbios_knl_Task_create                                   
0080eaac  ti_sysbios_knl_Task_defaultStackHeap__C                      
0080eab0  ti_sysbios_knl_Task_defaultStackSize__C                      
00800d40  ti_sysbios_knl_Task_disable__E                               
007feae0  ti_sysbios_knl_Task_enter__I                                 
007f1f80  ti_sysbios_knl_Task_exit__E                                  
0080eab4  ti_sysbios_knl_Task_numConstructedTasks__C                   
007f5020  ti_sysbios_knl_Task_postInit__I                              
007f3180  ti_sysbios_knl_Task_schedule__I                              
007ffc20  ti_sysbios_knl_Task_sleepTimeout__I                          
007e76a0  ti_sysbios_knl_Task_sleep__E                                 
007f40e0  ti_sysbios_knl_Task_startCore__E                             
00800d60  ti_sysbios_knl_Task_startup__E                               
007f6ea0  ti_sysbios_knl_Task_unblockI__E                              
0080eab8  ti_sysbios_timers_rti_Timer_E_cannotSupport__C               
0080fba0  ti_sysbios_timers_rti_Timer_Module_State_0_device__A         
0080fc28  ti_sysbios_timers_rti_Timer_Module_State_0_handles__A        
0080fbb8  ti_sysbios_timers_rti_Timer_Module_State_0_intFreqs__A       
0080eabc  ti_sysbios_timers_rti_Timer_Module__diagsEnabled__C          
0080eac0  ti_sysbios_timers_rti_Timer_Module__diagsIncluded__C         
0080eac4  ti_sysbios_timers_rti_Timer_Module__diagsMask__C             
0080eb72  ti_sysbios_timers_rti_Timer_Module__id__C                    
00800d80  ti_sysbios_timers_rti_Timer_Module__startupDone__F           
00800d80  ti_sysbios_timers_rti_Timer_Module__startupDone__S           
0080fbc8  ti_sysbios_timers_rti_Timer_Module__state__V                 
007e7b20  ti_sysbios_timers_rti_Timer_Module_startup__E                
0080f9d0  ti_sysbios_timers_rti_Timer_Object__table__V                 
0080eb74  ti_sysbios_timers_rti_Timer_continueOnSuspend__C             
007ee820  ti_sysbios_timers_rti_Timer_getFreq__E                       
00800da0  ti_sysbios_timers_rti_Timer_getMaxTicks__E                   
007f61e0  ti_sysbios_timers_rti_Timer_initDevice__I                    
0080eac8  ti_sysbios_timers_rti_Timer_numTimerDevices__C               
007ffc60  ti_sysbios_timers_rti_Timer_periodicStub__E                  
0080eacc  ti_sysbios_timers_rti_Timer_startupNeeded__C                 
007f3320  ti_sysbios_timers_rti_Timer_startup__E                       
007fd240  ti_sysbios_timers_rti_Timer_stop__E                          
007efb20  tw_gen_float                                                 
007fd2c0  unlink                                                       
007ffca0  wcslen                                                       
007feb40  write                                                        
0080ead0  xdc_runtime_Assert_E_assertFailed__C                         
007fad40  xdc_runtime_Assert_raise__I                                  
0080ead4  xdc_runtime_Core_A_initializedParams__C                      
0080ead8  xdc_runtime_Core_Module__diagsEnabled__C                     
0080eadc  xdc_runtime_Core_Module__diagsIncluded__C                    
0080eae0  xdc_runtime_Core_Module__diagsMask__C                        
0080eb76  xdc_runtime_Core_Module__id__C                               
007fd340  xdc_runtime_Core_assignLabel__I                              
007fbfa0  xdc_runtime_Core_assignParams__I                             
007f34c0  xdc_runtime_Core_constructObject__I                          
007eea60  xdc_runtime_Core_createObject__I                             
007f6320  xdc_runtime_Core_deleteObject__I                             
0080eae4  xdc_runtime_Error_E_memory__C                                
0080fb08  xdc_runtime_Error_IgnoreBlock                                
0080eae8  xdc_runtime_Error_Module__diagsEnabled__C                    
0080eaec  xdc_runtime_Error_Module__diagsIncluded__C                   
0080eaf0  xdc_runtime_Error_Module__diagsMask__C                       
0080eb78  xdc_runtime_Error_Module__loggerDefined__C                   
0080eaf4  xdc_runtime_Error_Module__loggerFxn8__C                      
0080eaf8  xdc_runtime_Error_Module__loggerObj__C                       
0080fc54  xdc_runtime_Error_Module__state__V                           
007ffce0  xdc_runtime_Error_check__E                                   
00800dc0  xdc_runtime_Error_getSite__E                                 
007ffd20  xdc_runtime_Error_init__E                                    
0080eb7a  xdc_runtime_Error_maxDepth__C                                
007efd20  xdc_runtime_Error_policyDefault__E                           
0080eafc  xdc_runtime_Error_policyFxn__C                               
0080eb00  xdc_runtime_Error_policy__C                                  
007f82c0  xdc_runtime_Error_print__E                                   
0080eb04  xdc_runtime_Error_raiseHook__C                               
00800de0  xdc_runtime_Error_raiseX__E                                  
007fae00  xdc_runtime_Error_setX__E                                    
00800e00  xdc_runtime_Gate_enterSystem__E                              
00800e20  xdc_runtime_Gate_leaveSystem__E                              
0080eb08  xdc_runtime_IGateProvider_Interface__BASE__C                 
0080eb0c  xdc_runtime_IHeap_Interface__BASE__C                         
0080eb10  xdc_runtime_IModule_Interface__BASE__C                       
0080eb14  xdc_runtime_Log_L_error__C                                   
007ff9a0  xdc_runtime_Main_Module_GateProxy_Handle__label__S           
00800b00  xdc_runtime_Main_Module_GateProxy_query__E                   
0080eb7c  xdc_runtime_Main_Module__id__C                               
007ffae0  xdc_runtime_Memory_HeapProxy_Handle__label__S                
00800e40  xdc_runtime_Memory_HeapProxy_alloc__E                        
00800e60  xdc_runtime_Memory_HeapProxy_free__E                         
0080eb7e  xdc_runtime_Memory_Module__id__C                             
0080fc4c  xdc_runtime_Memory_Module__state__V                          
007f83c0  xdc_runtime_Memory_alloc__E                                  
00800e80  xdc_runtime_Memory_calloc__E                                 
0080eb18  xdc_runtime_Memory_defaultHeapInstance__C                    
00800ea0  xdc_runtime_Memory_free__E                                   
00800ec0  xdc_runtime_Memory_getMaxDefaultTypeAlign__E                 
007feba0  xdc_runtime_Memory_valloc__E                                 
0080fc30  xdc_runtime_Registry_Module__state__V                        
007ffd60  xdc_runtime_Registry_findById__E                             
0080fc38  xdc_runtime_Startup_Module__state__V                         
00000001  xdc_runtime_Startup__EXECFXN__C                              
00000001  xdc_runtime_Startup__RESETFXN__C                             
0080eb1c  xdc_runtime_Startup_execImpl__C                              
007f84c0  xdc_runtime_Startup_exec__E                                  
00800ee0  xdc_runtime_Startup_exec__I                                  
0080e8f0  xdc_runtime_Startup_firstFxns__A                             
0080e8f8  xdc_runtime_Startup_firstFxns__C                             
0080e900  xdc_runtime_Startup_lastFxns__C                              
0080eb20  xdc_runtime_Startup_maxPasses__C                             
00800f00  xdc_runtime_Startup_reset__I                                 
00800f20  xdc_runtime_Startup_rtsDone__E                               
0080e810  xdc_runtime_Startup_sfxnRts__A                               
0080eb24  xdc_runtime_Startup_sfxnRts__C                               
0080e5d8  xdc_runtime_Startup_sfxnTab__A                               
0080eb28  xdc_runtime_Startup_sfxnTab__C                               
007ed600  xdc_runtime_Startup_startMods__I                             
007fd3c0  xdc_runtime_SysStd_abort__E                                  
00800f40  xdc_runtime_SysStd_exit__E                                   
00800f60  xdc_runtime_SysStd_putch__E                                  
00800f80  xdc_runtime_SysStd_ready__E                                  
007ff9a0  xdc_runtime_System_Module_GateProxy_Handle__label__S         
00800fa0  xdc_runtime_System_Module_GateProxy_enter__E                 
00800fc0  xdc_runtime_System_Module_GateProxy_leave__E                 
00800b00  xdc_runtime_System_Module_GateProxy_query__E                 
0080eb2c  xdc_runtime_System_Module__gateObj__C                        
0080fc40  xdc_runtime_System_Module__state__V                          
00800fe0  xdc_runtime_System_Module_startup__E                         
007fd3c0  xdc_runtime_System_SupportProxy_abort__E                     
00800f40  xdc_runtime_System_SupportProxy_exit__E                      
00800f60  xdc_runtime_System_SupportProxy_putch__E                     
00800f80  xdc_runtime_System_SupportProxy_ready__E                     
0080eb30  xdc_runtime_System_abortFxn__C                               
008007a0  xdc_runtime_System_abortStd__E                               
007ffda0  xdc_runtime_System_abort__E                                  
007ffde0  xdc_runtime_System_aprintf__E                                
007fd4c0  xdc_runtime_System_aprintf_va__E                             
007fd4c0  xdc_runtime_System_aprintf_va__F                             
007fd440  xdc_runtime_System_atexit__E                                 
007fd4c0  xdc_runtime_System_avprintf__E                               
007e2240  xdc_runtime_System_doPrint__I                                
0080eb34  xdc_runtime_System_exitFxn__C                                
007f93c0  xdc_runtime_System_exitStd__E                                
007ffe20  xdc_runtime_System_exit__E                                   
0080eb38  xdc_runtime_System_extendFxn__C                              
007fc040  xdc_runtime_System_formatNum__I                              
0080eb3c  xdc_runtime_System_maxAtexitHandlers__C                      
007eeca0  xdc_runtime_System_printfExtend__I                           
007ffe60  xdc_runtime_System_printf__E                                 
007fd5c0  xdc_runtime_System_printf_va__E                              
007fd5c0  xdc_runtime_System_printf_va__F                              
007fd540  xdc_runtime_System_processAtExit__E                          
007fc0e0  xdc_runtime_System_putchar__I                                
00801000  xdc_runtime_System_snprintf_va__E                            
00801000  xdc_runtime_System_snprintf_va__F                            
007fd5c0  xdc_runtime_System_vprintf__E                                
00801000  xdc_runtime_System_vsnprintf__E                              
0080eb80  xdc_runtime_Text_charCnt__C                                  
0080eb88  xdc_runtime_Text_charTab__A                                  
0080eb40  xdc_runtime_Text_charTab__C                                  
007fec00  xdc_runtime_Text_cordText__E                                 
0080eb82  xdc_runtime_Text_isLoaded__C                                 
0080eb44  xdc_runtime_Text_nameEmpty__C                                
0080eb48  xdc_runtime_Text_nameStatic__C                               
0080eb4c  xdc_runtime_Text_nameUnknown__C                              
007fc180  xdc_runtime_Text_printVisFxn__I                              
007f6460  xdc_runtime_Text_putLab__E                                   
007f5180  xdc_runtime_Text_putMod__E                                   
007f0a60  xdc_runtime_Text_putSite__E                                  
0080eb84  xdc_runtime_Text_registryModsLastId__C                       
00801020  xdc_runtime_Text_ropeText__E                                 
0080eb86  xdc_runtime_Text_unnamedModsLastId__C                        
0080eb50  xdc_runtime_Text_visitRopeFxn__C                             
00801040  xdc_runtime_Text_visitRope__I                                
007fc220  xdc_runtime_Text_xprintf__I                                  


GLOBAL SYMBOLS: SORTED BY Symbol Address 

address   name                                                         
-------   ----                                                         
00000000  __ASM__                                                      
00000000  ti_sysbios_family_c64p_Cache_l2Size                          
00000001  xdc_runtime_Startup__EXECFXN__C                              
00000001  xdc_runtime_Startup__RESETFXN__C                             
00000070  __ISA__                                                      
00000088  __PLAT__                                                     
000000a8  __TARG__                                                     
000000d0  __TRDR__                                                     
00000418  __TI_STACK_SIZE                                              
00001000  ti_sysbios_family_c64p_Cache_l1pSize                         
00004000  ti_sysbios_family_c64p_Cache_l1dSize                         
00010000  _L3data_size                                                 
007e0000  ti_sysbios_family_c64p_Hwi0                                  
007e0000  ti_sysbios_family_c64p_Hwi_int0                              
007e0020  ti_sysbios_family_c64p_Hwi_int1                              
007e0040  ti_sysbios_family_c64p_Hwi_int2                              
007e0060  ti_sysbios_family_c64p_Hwi_int3                              
007e0080  ti_sysbios_family_c64p_Hwi_int4                              
007e00a0  ti_sysbios_family_c64p_Hwi_int5                              
007e00c0  ti_sysbios_family_c64p_Hwi_int6                              
007e00e0  ti_sysbios_family_c64p_Hwi_int7                              
007e0100  ti_sysbios_family_c64p_Hwi_int8                              
007e0120  ti_sysbios_family_c64p_Hwi_int9                              
007e0140  ti_sysbios_family_c64p_Hwi_int10                             
007e0160  ti_sysbios_family_c64p_Hwi_int11                             
007e0180  ti_sysbios_family_c64p_Hwi_int12                             
007e01a0  ti_sysbios_family_c64p_Hwi_int13                             
007e01c0  ti_sysbios_family_c64p_Hwi_int14                             
007e01e0  ti_sysbios_family_c64p_Hwi_int15                             
007e0200  __TI_printfi                                                 
007e2240  xdc_runtime_System_doPrint__I                                
007e2ae0  ti_sysbios_knl_Event_pend__E                                 
007e32c0  ti_sysbios_family_c64p_Exception_handler__I                  
007e3a40  ti_sysbios_knl_Semaphore_pend__E                             
007e41a0  ADCBUF_MMWave_control                                        
007e4820  MmwDemo_initConfigStruct                                     
007e5500  ti_sysbios_heaps_HeapMem_allocUnprotected__E                 
007e5b20  __c6xabi_divd                                                
007e6100  ti_sysbios_heaps_HeapMem_freeUnprotected__E                  
007e6c60  ti_sysbios_knl_Task_Instance_finalize__E                     
007e71a0  MMWave_deviceExecuteFxn                                      
007e76a0  ti_sysbios_knl_Task_sleep__E                                 
007e7b20  ti_sysbios_timers_rti_Timer_Module_startup__E                
007e7f60  Mailbox_open                                                 
007e8780  rlDriverRxHdrRead                                            
007e8b80  ti_sysbios_knl_Task_Instance_init__E                         
007e8f40  DSPF_sp_fftSPxSP                                             
007e92e0  ti_sysbios_family_c64p_Cache_Module_startup__E               
007e9680  ti_sysbios_knl_Task_Module_startup__E                        
007e9a00  CRC_open                                                     
007e9d60  rlDriverMsgRead                                              
007ea0c0  ti_sysbios_knl_Event_post__E                                 
007ea740  cos                                                          
007ea740  cosl                                                         
007eaa60  fputs                                                        
007ead80  ti_sysbios_knl_Semaphore_post__E                             
007eb0a0  rlDriverCmdSendRetry                                         
007eb380  sin                                                          
007eb380  sinl                                                         
007eb660  ti_sysbios_heaps_HeapMem_Instance_init__E                    
007eb940  EDMA_configChannel                                           
007ebc00  EDMA_configErrorMonitoring                                   
007ebec0  rlDriverCmdInvoke                                            
007ec180  ti_sysbios_knl_Clock_workFunc__E                             
007ec440  CRC_computeSignature                                         
007ec6e0  EDMA_open                                                    
007ecec0  __c6xabi_divf                                                
007ed140  __c6xabi_divull                                              
007ed3a0  rlDriverInit                                                 
007ed600  xdc_runtime_Startup_startMods__I                             
007ed860  MMWave_startLink                                             
007edce0  MmwDemo_dssDataPathInit                                      
007ee160  ti_sysbios_family_c64p_EventCombiner_dispatch__E             
007ee3a0  ti_sysbios_family_c64p_Exception_internalHandler__I          
007ee5e0  ti_sysbios_family_c64p_Hwi_dispatchCore__I                   
007ee820  ti_sysbios_timers_rti_Timer_getFreq__E                       
007eea60  xdc_runtime_Core_createObject__I                             
007eeca0  xdc_runtime_System_printfExtend__I                           
007ef100  Mailbox_write                                                
007ef520  MmwDemo_dataPathConfigBuffers                                
007ef920  ti_sysbios_family_c64p_Hwi_dispatchAlways                    
007efb20  tw_gen_float                                                 
007efd20  xdc_runtime_Error_policyDefault__E                           
007eff20  EDMA_init                                                    
007f0100  UartSci_initiateTxEDMA                                       
007f02e0  UartSci_openEDMA                                             
007f04c0  rlDriverRdVerifyMsg                                          
007f06a0  ti_sysbios_family_c64p_EventCombiner_dispatchPlug__E         
007f0880  ti_sysbios_gates_GateMutex_enter__E                          
007f0a60  xdc_runtime_Text_putSite__E                                  
007f0e00  MMWave_deviceInitFxn                                         
007f0fc0  Mailbox_read                                                 
007f1500  __c6xabi_divul                                               
007f16c0  fputc                                                        
007f16c0  putc                                                         
007f1880  frexp                                                        
007f1880  frexpl                                                       
007f1a40  rlDriverMsgCmdReply                                          
007f1c00  setvbuf                                                      
007f1dc0  ti_sysbios_knl_Task_checkStacks__E                           
007f1f80  ti_sysbios_knl_Task_exit__E                                  
007f2140  ADCBUF_MMWave_open                                           
007f2480  HOSTrename                                                   
007f27c0  radarOsal_memAlloc                                           
007f2960  rlDriverDeInit                                               
007f2b00  rlDriverMsgWrite                                             
007f2ca0  ti_sysbios_family_c64p_Cache_getL2InitSize__I                
007f2e40  ti_sysbios_family_c64p_EventCombiner_disableEvent__E         
007f2fe0  ti_sysbios_family_c64p_EventCombiner_enableEvent__E          
007f3180  ti_sysbios_knl_Task_schedule__I                              
007f3320  ti_sysbios_knl_Clock_TimerProxy_startup__E                   
007f3320  ti_sysbios_timers_rti_Timer_startup__E                       
007f34c0  xdc_runtime_Core_constructObject__I                          
007f37e0  EDMAutil_configType1                                         
007f3960  MMWave_flushCfg                                              
007f3ae0  MMWave_getChirpHandle                                        
007f3c60  MMWave_start                                                 
007f3de0  ldexp                                                        
007f3de0  ldexpl                                                       
007f3de0  scalbn                                                       
007f3de0  scalbnl                                                      
007f3f60  ti_sysbios_family_c64p_Exception_dispatch__E                 
007f40e0  ti_sysbios_knl_Task_startCore__E                             
007f4520  Mailbox_close                                                
007f4680  SOC_registerSysIntListener                                   
007f47e0  SOC_ungateClock                                              
007f4c00  rlDriverMsgReadCmdCtx                                        
007f4d60  rlDriverWaitForResponse                                      
007f4ec0  ti_sysbios_family_c64p_Hwi_Module_startup__E                 
007f5020  ti_sysbios_knl_Task_postInit__I                              
007f5180  xdc_runtime_Text_putMod__E                                   
007f52e0  EDMA3Init                                                    
007f5560  MMWave_addChirp                                              
007f56a0  MMWave_init                                                  
007f57e0  SOC_init                                                     
007f5ba0  rlDevicePowerOn                                              
007f5ce0  rlDriverMsgReadSpawnCtx                                      
007f5e20  ti_sysbios_family_c64p_Cache_getL1DInitSize__I               
007f5f60  ti_sysbios_knl_Semaphore_Instance_init__E                    
007f60a0  ti_sysbios_knl_Task_blockI__E                                
007f61e0  ti_sysbios_timers_rti_Timer_initDevice__I                    
007f6320  xdc_runtime_Core_deleteObject__I                             
007f6460  xdc_runtime_Text_putLab__E                                   
007f65a0  ADCBUF_MMWave_getChanBufAddr                                 
007f66c0  EDMA_configParamSet                                          
007f67e0  SOC_gateClock                                                
007f6900  _auto_init_elf                                               
007f6b40  getdevice                                                    
007f6c60  rlDriverAsyncEventHandler                                    
007f6d80  rlDriverProcRdMsg                                            
007f6ea0  ti_sysbios_knl_Task_unblockI__E                              
007f6fc0  MMWave_addBpmChirp                                           
007f70c0  MMWave_addProfile                                            
007f71c0  MMWave_getChirpCfg                                           
007f72c0  MMWave_getProfileHandle                                      
007f73c0  Mailbox_readFlush                                            
007f74c0  SOC_deviceInit                                               
007f75c0  SOC_translateAddress                                         
007f78c0  __TI_closefile                                               
007f7ac0  atoi                                                         
007f7bc0  fflush                                                       
007f7cc0  fseek                                                        
007f7dc0  radarOsal_memInit                                            
007f7ec0  rlDeviceGetVersion                                           
007f7fc0  rlDevicePowerOff                                             
007f82c0  xdc_runtime_Error_print__E                                   
007f83c0  xdc_runtime_Memory_alloc__E                                  
007f84c0  xdc_runtime_Startup_exec__E                                  
007f85c0  CRC_getTransactionId                                         
007f86a0  EDMA_isTransferComplete                                      
007f8940  HOSTlseek                                                    
007f8a20  HOSTopen                                                     
007f8b00  HOSTwrite                                                    
007f8be0  MMWave_deviceStartFxn                                        
007f8cc0  MMWave_getProfileCfg                                         
007f8e80  Mailbox_init                                                 
007f8f60  MmwDemo_printHeapStats                                       
007f9120  __TI_ltoa                                                    
007f9200  __TI_wrt_ok                                                  
007f92e0  close                                                        
007f93c0  exit                                                         
007f93c0  xdc_runtime_System_exitStd__E                                
007f94a0  memset                                                       
007f9580  printf                                                       
007f9660  rlDriverHostIrqHandler                                       
007f9740  rlDriverValidateHdr                                          
007f9820  ti_sysbios_heaps_HeapMem_alloc__E                            
007f9900  CRC_getSignature                                             
007f9a80  EDMA_startDmaTransfer                                        
007f9b40  HOSTread                                                     
007f9c00  HOSTunlink                                                   
007f9cc0  MMWave_deviceEventFxn                                        
007f9d80  MMWave_getNumChirps                                          
007f9f00  MMWave_initLink                                              
007fa380  __TI_doflush                                                 
007fa440  __c6xabi_divu                                                
007fa440  __divu                                                       
007fa500  __c6xabi_remi                                                
007fa500  __remi                                                       
007fa5c0  modf                                                         
007fa5c0  modfl                                                        
007fa680  rlDriverCalChkSum                                            
007fa740  rlDriverExecuteGetApi                                        
007fa800  rlDriverExecuteSetApi                                        
007fa8c0  rlGetSubBlock                                                
007fa980  ti_sysbios_heaps_HeapMem_getStats__E                         
007faa40  ti_sysbios_knl_Clock_logTick__E                              
007fab00  ti_sysbios_knl_Task_allBlockedFunction__I                    
007fabc0  ti_sysbios_knl_Task_create                                   
007fac80  __TI_tls_init                                                
007fad40  xdc_runtime_Assert_raise__I                                  
007fae00  xdc_runtime_Error_setX__E                                    
007faec0  EDMA3EnableChInShadowReg                                     
007faf60  EDMA_disableChannel                                          
007fb000  EDMA_enableChannel                                           
007fb0a0  HOSTclose                                                    
007fb140  MMWave_execute                                               
007fb1e0  MMWave_executeLink                                           
007fb320  MMWave_sync                                                  
007fb460  MmwDemo_dataPathConfigEdma                                   
007fb500  MmwDemo_dataPathWait1DInputData                              
007fb5a0  MmwDemo_dssDataPathOutputLogging                             
007fb640  SOC_SystemISR                                                
007fb6e0  UART_init                                                    
007fb820  __TI_cleanup                                                 
007fb8c0  __c6xabi_fixfu                                               
007fb960  __c6xabi_nround                                              
007fb960  __c6xabi_roundl                                              
007fba00  __c6xabi_remu                                                
007fba00  __remu                                                       
007fbaa0  _c_int00                                                     
007fbbe0  finddevice                                                   
007fbc80  memcpy                                                       
007fbd20  rlAppendSubBlock                                             
007fbdc0  rlDriverVerifyCRC                                            
007fbe60  ti_sysbios_family_c64p_Exception_Module_startup__E           
007fbf00  ti_sysbios_family_c64p_Hwi_getStackInfo__E                   
007fbf00  ti_sysbios_hal_Hwi_HwiProxy_getStackInfo__E                  
007fbf00  ti_sysbios_hal_Hwi_getStackInfo__E                           
007fbfa0  xdc_runtime_Core_assignParams__I                             
007fc040  xdc_runtime_System_formatNum__I                              
007fc0e0  xdc_runtime_System_putchar__I                                
007fc180  xdc_runtime_Text_printVisFxn__I                              
007fc220  xdc_runtime_Text_xprintf__I                                  
007fc2c0  ADCBUF_MMWave_close                                          
007fc340  ADCBuf_init                                                  
007fc3c0  EDMA3MapChToEvtQ                                             
007fc4c0  EDMA_linkParamSets                                           
007fc5c0  Mailbox_writeReset                                           
007fc740  SemaphoreP_create                                            
007fc7c0  __TI_readmsg                                                 
007fc840  __c6xabi_fixdu                                               
007fc8c0  __c6xabi_llshl                                               
007fc940  ti_sysbios_family_c62_TaskSupport_swap__E                    
007fc940  ti_sysbios_knl_Task_SupportProxy_swap__E                     
007fc9c0  rlDeviceIdentifyCmdDir                                       
007fca40  rlDriverOsiInit                                              
007fcac0  ti_sysbios_BIOS_atExitFunc__I                                
007fcb40  ti_sysbios_BIOS_registerRTSLock__I                           
007fcbc0  ti_sysbios_family_c64p_Hwi_dispatchC__I                      
007fcc40  ti_sysbios_gates_GateHwi_Object__create__S                   
007fccc0  ti_sysbios_gates_GateMutex_Object__create__S                 
007fcd40  ti_sysbios_hal_Hwi_checkStack                                
007fcdc0  ti_sysbios_heaps_HeapMem_Object__create__S                   
007fce40  ti_sysbios_heaps_HeapMem_init__I                             
007fcec0  ti_sysbios_knl_Clock_doTick__I                               
007fcf40  ti_sysbios_knl_Event_create                                  
007fcfc0  ti_sysbios_knl_Event_pendTimeout__I                          
007fd040  ti_sysbios_knl_Idle_run__E                                   
007fd0c0  ti_sysbios_knl_Semaphore_create                              
007fd140  ti_sysbios_knl_Semaphore_pendTimeout__I                      
007fd1c0  malloc                                                       
007fd240  ti_sysbios_timers_rti_Timer_stop__E                          
007fd2c0  remove                                                       
007fd2c0  unlink                                                       
007fd340  xdc_runtime_Core_assignLabel__I                              
007fd3c0  xdc_runtime_SysStd_abort__E                                  
007fd3c0  xdc_runtime_System_SupportProxy_abort__E                     
007fd440  xdc_runtime_System_atexit__E                                 
007fd4c0  xdc_runtime_System_aprintf_va__E                             
007fd4c0  xdc_runtime_System_aprintf_va__F                             
007fd4c0  xdc_runtime_System_avprintf__E                               
007fd540  xdc_runtime_System_processAtExit__E                          
007fd5c0  xdc_runtime_System_printf_va__E                              
007fd5c0  xdc_runtime_System_printf_va__F                              
007fd5c0  xdc_runtime_System_vprintf__E                                
007fd640  ADCBuf_open                                                  
007fd820  EDMA3ClrEvt                                                  
007fd880  EDMA3ClrIntr                                                 
007fd8e0  EDMA3ClrMissEvt                                              
007fd940  EDMA3DisableDmaEvt                                           
007fd9a0  EDMA3DisableEvtIntr                                          
007fda00  EDMA3EnableDmaEvt                                            
007fda60  EDMA3EnableEvtIntr                                           
007fdac0  EDMA3SetEvt                                                  
007fdc40  MMWave_listCat                                               
007fdca0  MMWave_listRemoveNode                                        
007fdd00  MMWave_osalMutexCreate                                       
007fdd60  MMWave_osalSemCreate                                         
007fddc0  Mailbox_Config_init                                          
007fdee0  SOC_setMMWaveDSSLinkState                                    
007fdf40  SOC_setMMWaveMSSLinkState                                    
007fdfa0  SOC_unhaltBSS                                                
007fe000  SOC_waitBSSPowerUp                                           
007fe060  UART_open                                                    
007fe120  UartSci_closeEDMA                                            
007fe180  __TI_writemsg                                                
007fe1d8  C$$IO$$                                                      
007fe1e0  __c6xabi_llshru                                              
007fe240  _subcull                                                     
007fe2a0  ti_sysbios_family_c64p_Hwi_switchAndDispatch__I              
007fe300  cache_setMar                                                 
007fe360  lseek                                                        
007fe3c0  memccpy                                                      
007fe420  rlDeviceGetMssVersion                                        
007fe480  rlEnableContMode                                             
007fe4e0  rlRfRunTimeCalibConfig                                       
007fe540  rlSensorStart                                                
007fe5a0  ti_sysbios_BIOS_errorRaiseHook__I                            
007fe600  ti_sysbios_BIOS_removeRTSLock__I                             
007fe660  ti_sysbios_BIOS_startFunc__I                                 
007fe6c0  ti_sysbios_family_c62_TaskSupport_start__E                   
007fe6c0  ti_sysbios_knl_Task_SupportProxy_start__E                    
007fe720  ti_sysbios_family_c64p_Cache_setMar__E                       
007fe780  ti_sysbios_family_c64p_EventCombiner_Module_startup__E       
007fe7e0  ti_sysbios_family_c64p_EventCombiner_unused__E               
007fe840  ti_sysbios_gates_GateMutex_Object__delete__S                 
007fe8a0  ti_sysbios_hal_Hwi_initStack                                 
007fe900  ti_sysbios_heaps_HeapMem_free__E                             
007fe960  ti_sysbios_knl_Clock_Module_startup__E                       
007fe9c0  ti_sysbios_knl_Queue_construct                               
007fea20  ti_sysbios_knl_Semaphore_Object__delete__S                   
007fea80  ti_sysbios_knl_Semaphore_construct                           
007feae0  ti_sysbios_knl_Task_enter__I                                 
007feb40  write                                                        
007feba0  xdc_runtime_Memory_valloc__E                                 
007fec00  xdc_runtime_Text_cordText__E                                 
007ff0e0  EDMA3MapQdmaChToPaRAM                                        
007ff120  EDMA3SetPaRAM                                                
007ff160  EDMA3SetQdmaTrigWord                                         
007ff1a0  HwiP_create                                                  
007ff1e0  HwiP_delete                                                  
007ff220  MMWave_deviceSyncFxn                                         
007ff260  MMWave_encodeError                                           
007ff2a0  MMWave_listAdd                                               
007ff2e0  MMWave_listRemove                                            
007ff320  MMWave_osalMutexLock                                         
007ff360  MMWave_osalSemWait                                           
007ff520  SOC_getInAddr_LUTType                                        
007ff560  SOC_getOutAddr_LUTType                                       
007ff5a0  SOC_isMMWaveDSSOperational                                   
007ff5e0  SOC_isMMWaveMSSOperational                                   
007ff620  __TI_frcmpyd_div                                             
007ff660  __c6xabi_isinf                                               
007ff6e0  __c6xabi_strasgi_64plus                                      
007ff6e0  __strasgi_64plus                                             
007ff720  _args_main                                                   
007ff760  ti_sysbios_family_c62_TaskSupport_buildTaskStack             
007ff7a0  free                                                         
007ff7e0  rlAppendDummy                                                
007ff820  rlDeviceGetRfVersion                                         
007ff860  ti_sysbios_BIOS_exitFunc__I                                  
007ff8a0  ti_sysbios_BIOS_rtsLock__I                                   
007ff8e0  ti_sysbios_BIOS_rtsUnlock__I                                 
007ff920  ti_sysbios_family_c64p_Hwi_disableInterrupt__E               
007ff920  ti_sysbios_hal_Hwi_HwiProxy_disableInterrupt__E              
007ff920  ti_sysbios_hal_Hwi_disableInterrupt__E                       
007ff960  ti_sysbios_family_c64p_Hwi_enableInterrupt__E                
007ff960  ti_sysbios_hal_Hwi_HwiProxy_enableInterrupt__E               
007ff960  ti_sysbios_hal_Hwi_enableInterrupt__E                        
007ff9a0  ti_sysbios_gates_GateHwi_Handle__label__S                    
007ff9a0  xdc_runtime_Main_Module_GateProxy_Handle__label__S           
007ff9a0  xdc_runtime_System_Module_GateProxy_Handle__label__S         
007ff9e0  ti_sysbios_gates_GateHwi_Object__delete__S                   
007ffa20  ti_sysbios_BIOS_RtsGateProxy_Handle__label__S                
007ffa20  ti_sysbios_gates_GateMutex_Handle__label__S                  
007ffa20  ti_sysbios_heaps_HeapMem_Module_GateProxy_Handle__label__S   
007ffa60  ti_sysbios_gates_GateMutex_Instance_init__E                  
007ffaa0  ti_sysbios_gates_GateMutex_leave__E                          
007ffae0  ti_sysbios_heaps_HeapMem_Handle__label__S                    
007ffae0  xdc_runtime_Memory_HeapProxy_Handle__label__S                
007ffb20  ti_sysbios_heaps_HeapMem_Object__delete__S                   
007ffb60  ti_sysbios_heaps_HeapMem_Object__get__S                      
007ffba0  ti_sysbios_knl_Semaphore_destruct                            
007ffbe0  ti_sysbios_knl_Task_Object__get__S                           
007ffc20  ti_sysbios_knl_Task_sleepTimeout__I                          
007ffc60  ti_sysbios_timers_rti_Timer_periodicStub__E                  
007ffca0  wcslen                                                       
007ffce0  xdc_runtime_Error_check__E                                   
007ffd20  xdc_runtime_Error_init__E                                    
007ffd60  xdc_runtime_Registry_findById__E                             
007ffda0  xdc_runtime_System_abort__E                                  
007ffde0  xdc_runtime_System_aprintf__E                                
007ffe20  xdc_runtime_System_exit__E                                   
007ffe60  xdc_runtime_System_printf__E                                 
007ffea0  ADCBUF_MMWave_init                                           
007ffec0  ADCBuf_Params_init                                           
007ffee0  ADCBuf_control                                               
007fff00  CRC_initConfigParams                                         
007fff40  EDMA3ChannelToParamMap                                       
007fff60  EDMA3ClrCCErr                                                
007fff80  EDMA3DisableQdmaEvt                                          
007fffa0  EDMA3EnableQdmaEvt                                           
00800000  EDMA3ErrIntrHighStatusGet                                    
00800020  EDMA3GetCCErrStatus                                          
00800040  EDMA3GetErrIntrStatus                                        
00800060  EDMA3GetIntrStatus                                           
00800080  EDMA3IntrStatusHighGet                                       
008000a0  EDMA3QdmaClrMissEvt                                          
008000c0  EDMA3QdmaGetErrIntrStatus                                    
008000e0  EDMA_getNumInstances                                         
00800100  EDMAsetRegion                                                
00800120  HwiP_Params_init                                             
00800140  HwiP_disable                                                 
00800160  HwiP_disableInterrupt                                        
00800180  HwiP_enableInterrupt                                         
008001a0  HwiP_restore                                                 
008001c0  MMWave_decodeErrorLevel                                      
008001e0  MMWave_deviceGetDeviceInfo                                   
00800260  MMWave_listGetHead                                           
00800280  MMWave_listGetNext                                           
00800320  MMWave_osalMutexDelete                                       
00800340  MMWave_osalMutexUnlock                                       
00800360  MMWave_osalSemDelete                                         
00800380  MMWave_osalSemSignal                                         
00800400  MemoryP_ctrlAlloc                                            
00800420  MemoryP_ctrlFree                                             
00800440  MmwDemo_dataPathInit1Dstate                                  
00800480  MmwDemo_edmaErrorCallbackFxn                                 
008004a0  MmwDemo_edmaTransferControllerErrorCallbackFxn               
008004c0  MmwDemo_mboxCallback                                         
008004e0  SemaphoreP_Params_init                                       
00800500  SemaphoreP_delete                                            
00800520  SemaphoreP_pend                                              
00800540  SemaphoreP_post                                              
00800540  SemaphoreP_postFromClock                                     
00800540  SemaphoreP_postFromISR                                       
00800560  UART_Params_init                                             
00800580  UartSci_disableTxDMA                                         
008005a0  UartSci_enableTxDMA                                          
008005e0  UartSci_initiateRxEDMA                                       
00800600  UartSci_isEDMAEnabled                                        
00800620  _DebugP_assert                                               
00800640  __c6xabi_errno_addr                                          
00800660  __c6xabi_trunc                                               
00800660  __c6xabi_truncl                                              
00800680  __c6xabi_pop_rts                                             
00800680  __pop_rts                                                    
008006a0  __c6xabi_push_rts                                            
008006a0  __push_rts                                                   
008006c0  _nop                                                         
00800720  _register_lock                                               
00800740  _register_unlock                                             
00800760  _signbit                                                     
00800780  ti_sysbios_family_c62_TaskSupport_glue                       
008007a0  C$$EXIT                                                      
008007a0  abort                                                        
008007a0  xdc_runtime_System_abortStd__E                               
008007c0  cache_setL2Size                                              
008007e0  cache_wbInvAllL2Wait                                         
00800800  putchar                                                      
00800820  radarOsal_memDeInit                                          
00800840  rlDriverGetHandle                                            
00800860  rlDriverGetPlatformId                                        
00800880  rlDriverIsDeviceMapValid                                     
008008a0  rlGetSubBlockId                                              
008008c0  rlGetSubBlockLen                                             
008008e0  startClock                                                   
00800900  ti_sysbios_BIOS_RtsGateProxy_enter__E                        
00800920  ti_sysbios_BIOS_RtsGateProxy_leave__E                        
00800940  ti_sysbios_BIOS_linkedWithIncorrectBootLibrary__E            
00800960  ti_sysbios_BIOS_nullFunc__I                                  
00800980  ti_sysbios_BIOS_setThreadType__E                             
008009a0  ti_sysbios_BIOS_start__E                                     
008009c0  ti_sysbios_family_c62_TaskSupport_Module__startupDone__S     
008009c0  ti_sysbios_knl_Task_SupportProxy_Module__startupDone__S      
008009e0  ti_sysbios_family_c62_TaskSupport_checkStack__E              
008009e0  ti_sysbios_knl_Task_SupportProxy_checkStack__E               
00800a00  ti_sysbios_family_c62_TaskSupport_getStackAlignment__E       
00800a00  ti_sysbios_knl_Task_SupportProxy_getStackAlignment__E        
00800a20  ti_sysbios_family_c64p_Hwi_Module__startupDone__F            
00800a20  ti_sysbios_family_c64p_Hwi_Module__startupDone__S            
00800a20  ti_sysbios_hal_Hwi_HwiProxy_Module__startupDone__S           
00800a40  ti_sysbios_family_c64p_Hwi_clearInterrupt__E                 
00800a40  ti_sysbios_hal_Hwi_HwiProxy_clearInterrupt__E                
00800a40  ti_sysbios_hal_Hwi_clearInterrupt__E                         
00800a60  ti_sysbios_family_c64p_Hwi_startup__E                        
00800a60  ti_sysbios_hal_Hwi_HwiProxy_startup__E                       
00800a60  ti_sysbios_hal_Hwi_startup__E                                
00800a80  ti_sysbios_family_c64p_Hwi_switchFromBootStack__E            
00800a80  ti_sysbios_hal_Hwi_HwiProxy_switchFromBootStack__E           
00800a80  ti_sysbios_hal_Hwi_switchFromBootStack__E                    
00800aa0  ti_sysbios_gates_GateHwi_Instance_init__E                    
00800ac0  ti_sysbios_gates_GateHwi_enter__E                            
00800ae0  ti_sysbios_gates_GateHwi_leave__E                            
00800b00  ti_sysbios_gates_GateHwi_query__E                            
00800b00  xdc_runtime_Main_Module_GateProxy_query__E                   
00800b00  xdc_runtime_System_Module_GateProxy_query__E                 
00800b20  ti_sysbios_gates_GateMutex_Instance_finalize__E              
00800b40  ti_sysbios_BIOS_RtsGateProxy_query__E                        
00800b40  ti_sysbios_gates_GateMutex_query__E                          
00800b40  ti_sysbios_heaps_HeapMem_Module_GateProxy_query__E           
00800b60  ti_sysbios_hal_Hwi_Module_startup__E                         
00800b80  ti_sysbios_heaps_HeapMem_Module_GateProxy_enter__E           
00800ba0  ti_sysbios_heaps_HeapMem_Module_GateProxy_leave__E           
00800bc0  ti_sysbios_heaps_HeapMem_isBlocking__E                       
00800be0  ti_sysbios_knl_Clock_TimerProxy_getMaxTicks__E               
00800c00  ti_sysbios_knl_Event_Instance_init__E                        
00800c20  ti_sysbios_knl_Idle_loop__E                                  
00800c40  ti_sysbios_knl_Queue_Instance_init__E                        
00800c60  ti_sysbios_knl_Queue_Object__get__S                          
00800c80  ti_sysbios_knl_Queue_destruct                                
00800ca0  ti_sysbios_knl_Queue_empty__E                                
00800cc0  ti_sysbios_knl_Semaphore_Instance_finalize__E                
00800ce0  ti_sysbios_knl_Semaphore_Params__init__S                     
00800d00  ti_sysbios_knl_Semaphore_delete                              
00800d20  ti_sysbios_knl_Task_Params__init__S                          
00800d40  ti_sysbios_knl_Task_disable__E                               
00800d60  ti_sysbios_knl_Task_startup__E                               
00800d80  ti_sysbios_knl_Clock_TimerProxy_Module__startupDone__S       
00800d80  ti_sysbios_timers_rti_Timer_Module__startupDone__F           
00800d80  ti_sysbios_timers_rti_Timer_Module__startupDone__S           
00800da0  ti_sysbios_timers_rti_Timer_getMaxTicks__E                   
00800dc0  xdc_runtime_Error_getSite__E                                 
00800de0  xdc_runtime_Error_raiseX__E                                  
00800e00  xdc_runtime_Gate_enterSystem__E                              
00800e20  xdc_runtime_Gate_leaveSystem__E                              
00800e40  xdc_runtime_Memory_HeapProxy_alloc__E                        
00800e60  xdc_runtime_Memory_HeapProxy_free__E                         
00800e80  xdc_runtime_Memory_calloc__E                                 
00800ea0  xdc_runtime_Memory_free__E                                   
00800ec0  xdc_runtime_Memory_getMaxDefaultTypeAlign__E                 
00800ee0  xdc_runtime_Startup_exec__I                                  
00800f00  xdc_runtime_Startup_reset__I                                 
00800f20  xdc_runtime_Startup_rtsDone__E                               
00800f40  xdc_runtime_SysStd_exit__E                                   
00800f40  xdc_runtime_System_SupportProxy_exit__E                      
00800f60  xdc_runtime_SysStd_putch__E                                  
00800f60  xdc_runtime_System_SupportProxy_putch__E                     
00800f80  xdc_runtime_SysStd_ready__E                                  
00800f80  xdc_runtime_System_SupportProxy_ready__E                     
00800fa0  xdc_runtime_System_Module_GateProxy_enter__E                 
00800fc0  xdc_runtime_System_Module_GateProxy_leave__E                 
00800fe0  xdc_runtime_System_Module_startup__E                         
00801000  xdc_runtime_System_snprintf_va__E                            
00801000  xdc_runtime_System_snprintf_va__F                            
00801000  xdc_runtime_System_vsnprintf__E                              
00801020  xdc_runtime_Text_ropeText__E                                 
00801040  xdc_runtime_Text_visitRope__I                                
00801060  gMmwL2                                                       
00806060  ti_sysbios_heaps_HeapMem_Instance_State_0_buf__A             
0080a060  gMmwL2Scratch                                                
0080c538  gMmwDssMCB                                                   
0080c870  ti_sysbios_knl_Task_Instance_State_0_stack__A                
0080cb90  __TI_tmpnams                                                 
0080ccd0  gMMWave_MCB                                                  
0080cdd0  gRadarOsal_heapObj                                           
0080ce40  edmaDbg                                                      
0080ce50  gMMWave_DualcoreMCB                                          
0080ce58  parmbuf                                                      
0080dee8  _ctypes_                                                     
0080dfea  ti_sysbios_family_c64p_Cache_Module__id__C                   
0080e320  ti_sysbios_knl_Task_Object__PARAMS__C                        
0080e3e0  UART_defaultParams                                           
0080e418  gEdmaHwAttrs                                                 
0080e4d8  ti_sysbios_heaps_HeapMem_Module__FXNS__C                     
0080e524  Mailbox_defaultCfg                                           
0080e548  ti_sysbios_gates_GateHwi_Module__FXNS__C                     
0080e56c  ti_sysbios_gates_GateMutex_Module__FXNS__C                   
0080e590  ti_sysbios_heaps_HeapMem_Object__PARAMS__C                   
0080e5b4  ti_sysbios_knl_Semaphore_Object__PARAMS__C                   
0080e5d8  xdc_runtime_Startup_sfxnTab__A                               
0080e61c  ti_sysbios_gates_GateHwi_Object__DESC__C                     
0080e63c  ti_sysbios_gates_GateMutex_Object__DESC__C                   
0080e65c  ti_sysbios_heaps_HeapMem_Object__DESC__C                     
0080e67c  ti_sysbios_knl_Event_Object__DESC__C                         
0080e69c  ti_sysbios_knl_Queue_Object__DESC__C                         
0080e6bc  ti_sysbios_knl_Semaphore_Object__DESC__C                     
0080e6dc  ti_sysbios_knl_Task_Object__DESC__C                          
0080e748  ti_sysbios_gates_GateHwi_Object__PARAMS__C                   
0080e760  ti_sysbios_gates_GateMutex_Object__PARAMS__C                 
0080e778  ti_sysbios_knl_Event_Object__PARAMS__C                       
0080e790  ti_sysbios_knl_Queue_Object__PARAMS__C                       
0080e7f8  gADCBufFxnTable                                              
0080e80c  ti_sysbios_family_c62_TaskSupport_stackAlignment__C          
0080e810  xdc_runtime_Startup_sfxnRts__A                               
0080e832  ti_sysbios_family_c64p_EventCombiner_Module__id__C           
0080e834  ti_sysbios_family_c64p_Cache_E_invalidL1CacheSize__C         
0080e898  ADCBuf_defaultParams                                         
0080e8b8  gADCBufHwCfg                                                 
0080e8c8  ti_sysbios_family_c64p_EventCombiner_EVTMASK__C              
0080e8e4  ti_sysbios_knl_Idle_funcList__C                              
0080e8ec  ti_sysbios_family_c64p_Cache_E_invalidL2CacheSize__C         
0080e8f0  xdc_runtime_Startup_firstFxns__A                             
0080e8f8  xdc_runtime_Startup_firstFxns__C                             
0080e900  xdc_runtime_Startup_lastFxns__C                              
0080e908  ti_sysbios_family_c64p_Cache_MAR0_31__C                      
0080e90c  ti_sysbios_family_c64p_Cache_MAR128_159__C                   
0080e910  ti_sysbios_family_c64p_Cache_MAR160_191__C                   
0080e914  ti_sysbios_family_c64p_Cache_MAR192_223__C                   
0080e918  ti_sysbios_family_c64p_Cache_MAR224_255__C                   
0080e91c  ti_sysbios_family_c64p_Cache_MAR32_63__C                     
0080e920  ti_sysbios_family_c64p_Cache_MAR64_95__C                     
0080e924  ti_sysbios_family_c64p_Cache_MAR96_127__C                    
0080e928  ti_sysbios_family_c64p_EventCombiner_A_invalidEventId__C     
0080e92c  ti_sysbios_family_c64p_EventCombiner_EVTRegs__C              
0080e930  ti_sysbios_family_c64p_EventCombiner_E_unpluggedEvent__C     
0080e934  ti_sysbios_family_c64p_EventCombiner_Module__diagsEnabled__C 
0080e938  ti_sysbios_family_c64p_EventCombiner_Module__diagsIncluded__C
0080e93c  ti_sysbios_family_c64p_EventCombiner_Module__diagsMask__C    
0080e940  ti_sysbios_family_c64p_Exception_E_exceptionMax__C           
0080e944  ti_sysbios_family_c64p_Exception_exceptionHook__C            
0080e948  ti_sysbios_family_c64p_Exception_externalHook__C             
0080e94c  ti_sysbios_family_c64p_Exception_internalHook__C             
0080e950  ti_sysbios_family_c64p_Exception_nmiHook__C                  
0080e954  ti_sysbios_family_c64p_Hwi_INTRMUX1Address__C                
0080e958  ti_sysbios_family_c64p_Hwi_LD_end__C                         
0080e95c  ti_sysbios_family_c64p_Hwi_LM_begin__C                       
0080e960  ti_sysbios_family_c64p_Hwi_Module__diagsEnabled__C           
0080e964  ti_sysbios_family_c64p_Hwi_Module__diagsIncluded__C          
0080e968  ti_sysbios_family_c64p_Hwi_Module__diagsMask__C              
0080e96c  ti_sysbios_family_c64p_Hwi_Module__loggerFxn1__C             
0080e970  ti_sysbios_family_c64p_Hwi_Module__loggerFxn8__C             
0080e974  ti_sysbios_family_c64p_Hwi_Module__loggerObj__C              
0080e978  ti_sysbios_gates_GateMutex_A_badContext__C                   
0080e97c  ti_sysbios_gates_GateMutex_Instance_State_sem__O             
0080e980  ti_sysbios_gates_GateMutex_Module__diagsEnabled__C           
0080e984  ti_sysbios_gates_GateMutex_Module__diagsIncluded__C          
0080e988  ti_sysbios_gates_GateMutex_Module__diagsMask__C              
0080e98c  ti_sysbios_hal_Hwi_E_stackOverflow__C                        
0080e990  ti_sysbios_heaps_HeapMem_A_align__C                          
0080e994  ti_sysbios_heaps_HeapMem_A_heapSize__C                       
0080e998  ti_sysbios_heaps_HeapMem_A_invalidFree__C                    
0080e99c  ti_sysbios_heaps_HeapMem_A_zeroBlock__C                      
0080e9a0  ti_sysbios_heaps_HeapMem_E_memory__C                         
0080e9a4  ti_sysbios_heaps_HeapMem_Module__diagsEnabled__C             
0080e9a8  ti_sysbios_heaps_HeapMem_Module__diagsIncluded__C            
0080e9ac  ti_sysbios_heaps_HeapMem_Module__diagsMask__C                
0080e9b0  ti_sysbios_heaps_HeapMem_Module__gateObj__C                  
0080e9b4  ti_sysbios_heaps_HeapMem_Object__count__C                    
0080e9b8  ti_sysbios_heaps_HeapMem_reqAlign__C                         
0080e9bc  ti_sysbios_knl_Clock_LM_begin__C                             
0080e9c0  ti_sysbios_knl_Clock_LM_tick__C                              
0080e9c4  ti_sysbios_knl_Clock_LW_delayed__C                           
0080e9c8  ti_sysbios_knl_Clock_Module_State_clockQ__O                  
0080e9cc  ti_sysbios_knl_Clock_Module__diagsEnabled__C                 
0080e9d0  ti_sysbios_knl_Clock_Module__diagsIncluded__C                
0080e9d4  ti_sysbios_knl_Clock_Module__diagsMask__C                    
0080e9d8  ti_sysbios_knl_Clock_Module__loggerFxn1__C                   
0080e9dc  ti_sysbios_knl_Clock_Module__loggerFxn2__C                   
0080e9e0  ti_sysbios_knl_Clock_Module__loggerObj__C                    
0080e9e4  ti_sysbios_knl_Event_A_badContext__C                         
0080e9e8  ti_sysbios_knl_Event_A_eventInUse__C                         
0080e9ec  ti_sysbios_knl_Event_A_nullEventId__C                        
0080e9f0  ti_sysbios_knl_Event_A_nullEventMasks__C                     
0080e9f4  ti_sysbios_knl_Event_A_pendTaskDisabled__C                   
0080e9f8  ti_sysbios_knl_Event_Instance_State_pendQ__O                 
0080e9fc  ti_sysbios_knl_Event_LM_pend__C                              
0080ea00  ti_sysbios_knl_Event_LM_post__C                              
0080ea04  ti_sysbios_knl_Event_Module__diagsEnabled__C                 
0080ea08  ti_sysbios_knl_Event_Module__diagsIncluded__C                
0080ea0c  ti_sysbios_knl_Event_Module__diagsMask__C                    
0080ea10  ti_sysbios_knl_Event_Module__loggerFxn4__C                   
0080ea14  ti_sysbios_knl_Event_Module__loggerFxn8__C                   
0080ea18  ti_sysbios_knl_Event_Module__loggerObj__C                    
0080ea1c  ti_sysbios_knl_Semaphore_A_badContext__C                     
0080ea20  ti_sysbios_knl_Idle_funcList__A                              
0080ea24  ti_sysbios_knl_Semaphore_A_noEvents__C                       
0080ea28  ti_sysbios_knl_Semaphore_A_overflow__C                       
0080ea2c  ti_sysbios_knl_Semaphore_A_pendTaskDisabled__C               
0080ea30  ti_sysbios_knl_Semaphore_Instance_State_pendQ__O             
0080ea34  ti_sysbios_knl_Semaphore_LM_pend__C                          
0080ea38  ti_sysbios_knl_Semaphore_LM_post__C                          
0080ea3c  ti_sysbios_knl_Semaphore_Module__diagsEnabled__C             
0080ea40  ti_sysbios_knl_Semaphore_Module__diagsIncluded__C            
0080ea44  ti_sysbios_knl_Semaphore_Module__diagsMask__C                
0080ea48  ti_sysbios_knl_Semaphore_Module__loggerFxn2__C               
0080ea4c  ti_sysbios_knl_Semaphore_Module__loggerFxn4__C               
0080ea50  ti_sysbios_knl_Semaphore_Module__loggerObj__C                
0080ea54  ti_sysbios_knl_Task_A_badPriority__C                         
0080ea58  ti_sysbios_knl_Task_A_badTaskState__C                        
0080ea5c  ti_sysbios_knl_Task_A_badThreadType__C                       
0080ea60  ti_sysbios_knl_Task_A_badTimeout__C                          
0080ea64  ti_sysbios_knl_Task_A_noPendElem__C                          
0080ea68  ti_sysbios_knl_Task_A_sleepTaskDisabled__C                   
0080ea6c  ti_sysbios_knl_Task_E_spOutOfBounds__C                       
0080ea70  ti_sysbios_knl_Task_E_stackOverflow__C                       
0080ea74  ti_sysbios_knl_Task_LD_block__C                              
0080ea78  ti_sysbios_knl_Task_LD_exit__C                               
0080ea7c  ti_sysbios_knl_Task_LD_ready__C                              
0080ea80  ti_sysbios_knl_Task_LM_sleep__C                              
0080ea84  ti_sysbios_knl_Task_LM_switch__C                             
0080ea88  ti_sysbios_knl_Task_Module_State_inactiveQ__O                
0080ea8c  ti_sysbios_knl_Task_Module__diagsEnabled__C                  
0080ea90  ti_sysbios_knl_Task_Module__diagsIncluded__C                 
0080ea94  ti_sysbios_knl_Task_Module__diagsMask__C                     
0080ea98  ti_sysbios_knl_Task_Module__loggerFxn2__C                    
0080ea9c  ti_sysbios_knl_Task_Module__loggerFxn4__C                    
0080eaa0  ti_sysbios_knl_Task_Module__loggerObj__C                     
0080eaa4  ti_sysbios_knl_Task_Object__count__C                         
0080eaa8  ti_sysbios_knl_Task_allBlockedFunc__C                        
0080eaac  ti_sysbios_knl_Task_defaultStackHeap__C                      
0080eab0  ti_sysbios_knl_Task_defaultStackSize__C                      
0080eab4  ti_sysbios_knl_Task_numConstructedTasks__C                   
0080eab8  ti_sysbios_timers_rti_Timer_E_cannotSupport__C               
0080eabc  ti_sysbios_timers_rti_Timer_Module__diagsEnabled__C          
0080eac0  ti_sysbios_timers_rti_Timer_Module__diagsIncluded__C         
0080eac4  ti_sysbios_timers_rti_Timer_Module__diagsMask__C             
0080eac8  ti_sysbios_timers_rti_Timer_numTimerDevices__C               
0080eacc  ti_sysbios_timers_rti_Timer_startupNeeded__C                 
0080ead0  xdc_runtime_Assert_E_assertFailed__C                         
0080ead4  xdc_runtime_Core_A_initializedParams__C                      
0080ead8  xdc_runtime_Core_Module__diagsEnabled__C                     
0080eadc  xdc_runtime_Core_Module__diagsIncluded__C                    
0080eae0  xdc_runtime_Core_Module__diagsMask__C                        
0080eae4  xdc_runtime_Error_E_memory__C                                
0080eae8  xdc_runtime_Error_Module__diagsEnabled__C                    
0080eaec  xdc_runtime_Error_Module__diagsIncluded__C                   
0080eaf0  xdc_runtime_Error_Module__diagsMask__C                       
0080eaf4  xdc_runtime_Error_Module__loggerFxn8__C                      
0080eaf8  xdc_runtime_Error_Module__loggerObj__C                       
0080eafc  xdc_runtime_Error_policyFxn__C                               
0080eb00  xdc_runtime_Error_policy__C                                  
0080eb04  xdc_runtime_Error_raiseHook__C                               
0080eb08  xdc_runtime_IGateProvider_Interface__BASE__C                 
0080eb0c  xdc_runtime_IHeap_Interface__BASE__C                         
0080eb10  xdc_runtime_IModule_Interface__BASE__C                       
0080eb14  xdc_runtime_Log_L_error__C                                   
0080eb18  xdc_runtime_Memory_defaultHeapInstance__C                    
0080eb1c  xdc_runtime_Startup_execImpl__C                              
0080eb20  xdc_runtime_Startup_maxPasses__C                             
0080eb24  xdc_runtime_Startup_sfxnRts__C                               
0080eb28  xdc_runtime_Startup_sfxnTab__C                               
0080eb2c  xdc_runtime_System_Module__gateObj__C                        
0080eb30  xdc_runtime_System_abortFxn__C                               
0080eb34  xdc_runtime_System_exitFxn__C                                
0080eb38  xdc_runtime_System_extendFxn__C                              
0080eb3c  xdc_runtime_System_maxAtexitHandlers__C                      
0080eb40  xdc_runtime_Text_charTab__C                                  
0080eb44  xdc_runtime_Text_nameEmpty__C                                
0080eb48  xdc_runtime_Text_nameStatic__C                               
0080eb4c  xdc_runtime_Text_nameUnknown__C                              
0080eb50  xdc_runtime_Text_visitRopeFxn__C                             
0080eb54  ti_sysbios_family_c64p_Exception_Module__id__C               
0080eb56  ti_sysbios_family_c64p_Exception_useInternalBuffer__C        
0080eb58  ti_sysbios_family_c64p_Hwi_Module__id__C                     
0080eb5a  ti_sysbios_family_c64p_Hwi_Module__loggerDefined__C          
0080eb5c  ti_sysbios_gates_GateMutex_Module__id__C                     
0080eb5e  ti_sysbios_hal_Hwi_Module__id__C                             
0080eb60  ti_sysbios_heaps_HeapMem_Module__id__C                       
0080eb62  ti_sysbios_knl_Clock_Module__id__C                           
0080eb64  ti_sysbios_knl_Clock_Module__loggerDefined__C                
0080eb66  ti_sysbios_knl_Event_Module__id__C                           
0080eb68  ti_sysbios_knl_Event_Module__loggerDefined__C                
0080eb6a  ti_sysbios_knl_Semaphore_Module__id__C                       
0080eb6c  ti_sysbios_knl_Semaphore_Module__loggerDefined__C            
0080eb6e  ti_sysbios_knl_Task_Module__id__C                            
0080eb70  ti_sysbios_knl_Task_Module__loggerDefined__C                 
0080eb72  ti_sysbios_timers_rti_Timer_Module__id__C                    
0080eb74  ti_sysbios_timers_rti_Timer_continueOnSuspend__C             
0080eb76  xdc_runtime_Core_Module__id__C                               
0080eb78  xdc_runtime_Error_Module__loggerDefined__C                   
0080eb7a  xdc_runtime_Error_maxDepth__C                                
0080eb7c  xdc_runtime_Main_Module__id__C                               
0080eb7e  xdc_runtime_Memory_Module__id__C                             
0080eb80  xdc_runtime_Text_charCnt__C                                  
0080eb82  xdc_runtime_Text_isLoaded__C                                 
0080eb84  xdc_runtime_Text_registryModsLastId__C                       
0080eb86  xdc_runtime_Text_unnamedModsLastId__C                        
0080eb88  xdc_runtime_Text_charTab__A                                  
0080eb90  ti_sysbios_family_c64p_EventCombiner_Module__state__V        
0080f178  _ftable                                                      
0080f358  rl_rxMsg                                                     
0080f458  rl_txMsg                                                     
0080f558  _stream                                                      
0080f5f8  ti_sysbios_knl_Task_Module_State_0_readyQ__A                 
0080f678  _device                                                      
0080f6f0  ti_sysbios_family_c64p_Hwi_Object__table__V                  
0080f768  ti_sysbios_family_c64p_Hwi_Module__state__V                  
0080f7d4  _lock                                                        
0080f7d8  ti_sysbios_knl_Task_Object__table__V                         
0080f834  gMailboxMCB                                                  
0080f884  ti_sysbios_knl_Task_Module__state__V                         
0080f8cc  _unlock                                                      
0080f950  SOC_TranslateAddr_LUT                                        
0080f990  ti_sysbios_gates_GateMutex_Object__table__V                  
0080f9d0  ti_sysbios_timers_rti_Timer_Object__table__V                 
0080fa0c  ti_sysbios_family_c64p_Exception_Module__state__V            
0080fa3c  __TI_ft_end                                                  
0080fa40  gUartSciHwCfg                                                
0080fa6c  ti_sysbios_knl_Clock_Module__state__V                        
0080fa98  gUartSciFxnTable                                             
0080fac0  ti_sysbios_BIOS_Module__state__V                             
0080fae4  __errno                                                      
0080fae4  errno                                                        
0080fae8  gSOCHwAttrib                                                 
0080fb08  xdc_runtime_Error_IgnoreBlock                                
0080fb28  ADCBuf_config                                                
0080fb40  UART_config                                                  
0080fb58  gMailboxDssBssHwCfg                                          
0080fb70  gMailboxDssMssHwCfg                                          
0080fb88  ti_sysbios_heaps_HeapMem_Object__table__V                    
0080fba0  ti_sysbios_timers_rti_Timer_Module_State_0_device__A         
0080fbb8  ti_sysbios_timers_rti_Timer_Module_State_0_intFreqs__A       
0080fbc8  ti_sysbios_timers_rti_Timer_Module__state__V                 
0080fbd8  __TI_cleanup_ptr                                             
0080fbdc  __TI_dtors_ptr                                               
0080fbe0  __TI_enable_exit_profile_output                              
0080fbe4  ti_sysbios_gates_GateHwi_Module__root__V                     
0080fbec  ti_sysbios_gates_GateMutex_Module__root__V                   
0080fbf4  ti_sysbios_family_c64p_Cache_Module__state__V                
0080fbf8  ti_sysbios_hal_Hwi_Object__table__V                          
0080fc00  ti_sysbios_heaps_HeapMem_Module__root__V                     
0080fc08  ti_sysbios_knl_Event_Module__root__V                         
0080fc10  ti_sysbios_knl_Queue_Module__root__V                         
0080fc18  ti_sysbios_knl_Semaphore_Module__root__V                     
0080fc20  ti_sysbios_knl_Task_Module__root__V                          
0080fc28  ti_sysbios_timers_rti_Timer_Module_State_0_handles__A        
0080fc30  xdc_runtime_Registry_Module__state__V                        
0080fc38  xdc_runtime_Startup_Module__state__V                         
0080fc40  xdc_runtime_System_Module__state__V                          
0080fc48  ti_sysbios_gates_GateHwi_Object__table__V                    
0080fc4c  xdc_runtime_Memory_Module__state__V                          
0080fc50  ti_sysbios_knl_Task_Module_State_0_idleTask__A               
0080fc54  xdc_runtime_Error_Module__state__V                           
0080fc58  _stack                                                       
00810070  __TI_STACK_END                                               
00810248  __CIOBUF_                                                    
00810368  __TI_STATIC_BASE                                             
0081036c  gCRCRegister                                                 
00810370  regionId                                                     
00810378  _MmwDemo_fastCode_L1PSRAM_copy_table                         
00810378  __TI_table__MmwDemo_fastCode_L1PSRAM_copy_table              
00e00000  RADARDEMO_highAccuRangeProc_rangeEst                         
00e01800  RADARDEMO_highAccuRangeProc_create                           
00e01da0  RADARDEMO_highAccuRangeProc_accumulateInput                  
00e01fc0  RADARDEMO_highAccuRangeProc_run                              
00e02060  MmwDemo_interFrameProcessing                                 
00e02120  MmwDemo_processChirp                                         
00f00000  gMmwL1                                                       
20000000  _L3data_start                                                
20000000  gMmwL3                                                       
200026a0  main                                                         
200027c0  MmwDemo_dataPathInitEdma                                     
21080000  detOutputHdr                                                 
21080020  gMmwHSRAM                                                    
ffffffff  __TI_pprof_out_hndl                                          
ffffffff  __TI_prof_data_size                                          
ffffffff  __TI_prof_data_start                                         
ffffffff  __binit__                                                    
ffffffff  __c_args__                                                   
ffffffff  binit                                                        
UNDEFED   __TI_CINIT_Base                                              
UNDEFED   __TI_CINIT_Limit                                             
UNDEFED   __TI_Handler_Table_Base                                      
UNDEFED   __TI_Handler_Table_Limit                                     
UNDEFED   __TI_INITARRAY_Base                                          
UNDEFED   __TI_INITARRAY_Limit                                         
UNDEFED   __TI_TLS_INIT_Base                                           
UNDEFED   __TI_TLS_INIT_Limit                                          

[860 symbols]
