******************************************************************************
                  TI ARM Linker PC v16.9.6                     
******************************************************************************
>> Linked Mon Apr 12 23:54:46 2021

OUTPUT FILE NAME:   <high_accuracy_68xx_mss.xer4f>
ENTRY POINT SYMBOL: "_c_int00"  address: 0000d940


MEMORY CONFIGURATION

         name            origin    length      used     unused   attr    fill
----------------------  --------  ---------  --------  --------  ----  --------
PAGE 0:
  VECTORS               00000000   00000100  0000003c  000000c4     X
  PROG_RAM              00000100   0007ff00  00014580  0006b980  R  X
  DATA_RAM              08000000   00030000  0002b168  00004e98  RW  
  L3_RAM                51000000   000c0000  00000000  000c0000  RW  
  HWA_RAM               52030000   00010000  00000000  00010000  RW  
  HS_RAM                52080000   00008000  00000000  00008000  RW  

PAGE 1:
  L3_RAM                51000000   000c0000  00000000  000c0000  RW  


SEGMENT ALLOCATION MAP

run origin  load origin   length   init length attrs members
----------  ----------- ---------- ----------- ----- -------
00000000    00000000    0000003c   0000003c    r--
  00000000    00000000    0000003c   0000003c    r-- .vecs
00000100    00000100    00014588   00014588    r-x
  00000100    00000100    00011832   00011832    r-x .text
  00011938    00011938    0000290e   0000290e    r-- .const
  00014248    00014248    00000440   00000440    r-- .cinit
08000000    08000000    0002b168   00000000    rw-
  08000000    08000000    00014100   00000000    rw- .l2data
  08014100    08014100    00010000   00000000    rw- systemHeap
  08024100    08024100    00003f38   00000000    rw- .bss
  08028038    08028038    00001130   00000000    rw- .data
  08029168    08029168    00001000   00000000    rw- .myFiqStack
  0802a168    0802a168    00001000   00000000    rw- .stack


SECTION ALLOCATION MAP

 output                                  attributes/
section   page    origin      length       input sections
--------  ----  ----------  ----------   ----------------
.vecs      0    00000000    0000003c     
                  00000000    0000003c     mss_mmw_per4ft.oer4ft (.vecs)

.text      0    00000100    00011832     
                  00000100    0000107a     rtsv7R4_T_le_v3D16_eabi.lib : _printfi.obj (.text)
                  0000117a    00000006     libosal_xwr68xx.aer4f : CycleprofilerP_tirtos.oer4f (.text:CycleprofilerP_getTimeStamp)
                  00001180    000004e1     sysbios.aer4ft : BIOS.obj (.text:xdc_runtime_System_doPrint__I)
                  00001661    00000001     --HOLE-- [fill = 0]
                  00001662    00000002     libmmwave_xwr68xx.aer4f : mmwave_link.oer4f (.text:MMWave_maskHostIRQ)
                  00001664    00000418     mss_main.oer4f (.text:MmwDemo_mssInitTask)
                  00001a7c    00000410     libcli_xwr68xx.aer4f : cli_mmwave.oer4f (.text:CLI_MMWaveVersion)
                  00001e8c    00000004     libosal_xwr68xx.aer4f : HwiP_tirtos.oer4f (.text:HwiP_disableInterrupt)
                  00001e90    00000394     sysbios.aer4ft : BIOS.obj (.text:ti_sysbios_knl_Event_pend__E)
                  00002224    00000370     cli.oer4f (.text:MmwDemo_CLIInit)
                  00002594    00000314     libsoc_xwr68xx.aer4f : soc_xwr68xx_mss.oer4f (.text:SOC_deviceInit)
                  000028a8    00000008     libosal_xwr68xx.aer4f : HwiP_tirtos.oer4f (.text:HwiP_disable)
                  000028b0    00000310     sysbios.aer4ft : BIOS.obj (.text:ti_sysbios_knl_Semaphore_pend__E)
                  00002bc0    000002b8     rtsv7R4_T_le_v3D16_eabi.lib : ull_div32.obj (.text)
                  00002e78    00000008     libmmwave_xwr68xx.aer4f : mmwave.oer4f (.text:MMWave_decodeErrorLevel)
                  00002e80    000002a4     sysbios.aer4ft : BIOS.obj (.text:ti_sysbios_heaps_HeapMem_freeUnprotected__E)
                  00003124    00000284     libmmwave_xwr68xx.aer4f : mmwave_dualcore.oer4f (.text:MMWave_deviceExecuteFxn)
                  000033a8    00000008                             : mmwave_link.oer4f (.text:MMWave_mboxCallbackFxn)
                  000033b0    00000280     sysbios.aer4ft : BIOS.obj (.text:ti_sysbios_family_arm_exc_Exception_excDumpContext__I)
                  00003630    00000268                    : BIOS.obj (.text:ti_sysbios_knl_Task_Instance_finalize__E)
                  00003898    00000260     libmailbox_xwr68xx.aer4f : mailbox.oer4f (.text:Mailbox_open)
                  00003af8    00000254     libcli_xwr68xx.aer4f : cli_mmwave.oer4f (.text:CLI_MMWaveProfileCfg)
                  00003d4c    00000004     libmmwave_xwr68xx.aer4f : mmwave_link.oer4f (.text:MMWave_disableDevice)
                  00003d50    00000228     sysbios.aer4ft : BIOS.obj (.text:ti_sysbios_heaps_HeapMem_allocUnprotected__E)
                  00003f78    00000008     libosal_xwr68xx.aer4f : SemaphoreP_tirtos.oer4f (.text:SemaphoreP_Params_init)
                  00003f80    00000220     sysbios.aer4ft : BIOS.obj (.text:ti_sysbios_knl_Task_sleep__E)
                  000041a0    00000214     libuart_xwr68xx.aer4f : uartsci.oer4f (.text:UartSci_open)
                  000043b4    00000204     libcli_xwr68xx.aer4f : cli_mmwave.oer4f (.text:CLI_MMWaveChirpCfg)
                  000045b8    00000200     libcrc_xwr68xx.aer4f : crc.oer4f (.text:CRC_open)
                  000047b8    000001f0     libdma_xwr68xx.aer4f : dma.oer4f (.text:DMA_setChannelParams)
                  000049a8    000001e4     rtsv7R4_T_le_v3D16_eabi.lib : strtod.obj (.text)
                  00004b8c    00000004     libmmwave_xwr68xx.aer4f : mmwave_link.oer4f (.text:MMWave_enableDevice)
                  00004b90    000001e4     sysbios.aer4ft : BIOS.obj (.text:ti_sysbios_family_arm_v7r_vim_Hwi_dispatchIRQC__I)
                  00004d74    0000000c     libmmwave_xwr68xx.aer4f : mmwave_dualcore.oer4f (.text:MMWave_deviceMailboxCallbackFxn)
                  00004d80    000001dc     sysbios.aer4ft : BIOS.obj (.text:ti_sysbios_knl_Task_Module_startup__E)
                  00004f5c    000001cc     mss_main.oer4f (.text:MmwDemo_mssDataPathConfig)
                  00005128    000001c8     libmmwavelink_xwr68xx.aer4f : rl_driver.oer4f (.text:rlDriverRxHdrRead)
                  000052f0    000001c8     rtsv7R4_T_le_v3D16_eabi.lib : fopen.obj (.text)
                  000054b8    00000008     libmmwavelink_xwr68xx.aer4f : rl_driver.oer4f (.text:rlDriverConstructOutMsg)
                  000054c0    000001c8     sysbios.aer4ft : BIOS.obj (.text:ti_sysbios_knl_Task_Instance_init__E)
                  00005688    000001b4     mss_main.oer4f (.text:MmwDemo_transmitProcessedOutput)
                  0000583c    000001b0     libmmwavelink_xwr68xx.aer4f : rl_driver.oer4f (.text:rlDriverMsgRead)
                  000059ec    000001a4     libcli_xwr68xx.aer4f : cli_mmwave.oer4f (.text:CLI_MMWaveSubFrameCfg)
                  00005b90    000001a4     libmmwave_xwr68xx.aer4f : mmwave_dualcore.oer4f (.text:MMWave_serializeCfg)
                  00005d34    0000000c                             : mmwave_osal.oer4f (.text:MMWave_osalMutexUnlock)
                  00005d40    0000019c     sysbios.aer4ft : BIOS.obj (.text:xdc_runtime_Error_policyDefault__E)
                  00005edc    00000194     libmmwave_xwr68xx.aer4f : mmwave_link.oer4f (.text:MMWave_openLink)
                  00006070    00000190     libmmwavelink_xwr68xx.aer4f : rl_driver.oer4f (.text:rlDriverCmdInvoke)
                  00006200    00000184     sysbios.aer4ft : BIOS.obj (.text:ti_sysbios_timers_rti_Timer_Module_startup__E)
                  00006384    0000000c     libmmwave_xwr68xx.aer4f : mmwave_osal.oer4f (.text:MMWave_osalSemSignal)
                  00006390    0000017c     sysbios.aer4ft : BIOS.obj (.text:ti_sysbios_family_arm_exc_Exception_excHandler__I)
                  0000650c    00000004     libmmwave_xwr68xx.aer4f : mmwave_listlib.oer4f (.text:MMWave_listGetHead)
                  00006510    0000017c     sysbios.aer4ft : BIOS.obj (.text:ti_sysbios_knl_Semaphore_post__E)
                  0000668c    00000004     libmmwave_xwr68xx.aer4f : mmwave_listlib.oer4f (.text:MMWave_listGetNext)
                  00006690    00000174     sysbios.aer4ft : BIOS.obj (.text:ti_sysbios_knl_Event_post__E)
                  00006804    0000000c     mss_main.oer4f (.text:MmwDemo_mboxCallback)
                  00006810    00000160     sysbios.aer4ft : BIOS.obj (.text:ti_sysbios_family_arm_v7r_vim_Hwi_reconfig__E)
                  00006970    0000015c     cli.oer4f (.text:MmwDemo_CLIRangeLimitCfg)
                  00006acc    00000150     mss_main.oer4f (.text:MmwDemo_mboxReadTask)
                  00006c1c    0000014c     libcli_xwr68xx.aer4f : cli_mmwave.oer4f (.text:CLI_MMWaveFrameCfg)
                  00006d68    0000014c                          : cli.oer4f (.text:CLI_task)
                  00006eb4    0000014c     libmmwave_xwr68xx.aer4f : mmwave_link.oer4f (.text:MMWave_initMMWaveLink)
                  00007000    0000014a     libuart_xwr68xx.aer4f : uartsci.oer4f (.text:UartSci_ISR)
                  0000714a    00000002     mss_main.oer4f (.text:MmwDemo_mssMmwaveCloseCallbackFxn)
                  0000714c    00000148     libmmwavelink_xwr68xx.aer4f : rl_driver.oer4f (.text:rlDriverCmdSendRetry)
                  00007294    0000000c     libuart_xwr68xx.aer4f : UART.oer4f (.text:UART_Params_init)
                  000072a0    00000140     sysbios.aer4ft : BIOS.obj (.text:ti_sysbios_heaps_HeapMem_Instance_init__E)
                  000073e0    00000140                    : BIOS.obj (.text:xdc_runtime_Core_createObject__I)
                  00007520    0000013c                    : BIOS.obj (.text:ti_sysbios_knl_Clock_workFunc__E)
                  0000765c    00000138     mss_main.oer4f (.text:main)
                  00007794    00000138     rtsv7R4_T_le_v3D16_eabi.lib : fputs.obj (.text)
                  000078cc    00000004     libmmwave_xwr68xx.aer4f : mmwave_link.oer4f (.text:MMWave_mboxClose)
                  000078d0    00000134     sysbios.aer4ft : BIOS.obj (.text:xdc_runtime_Startup_startMods__I)
                  00007a04    00000124     libcli_xwr68xx.aer4f : cli_mmwave.oer4f (.text:CLI_MMWaveAdvFrameCfg)
                  00007b28    00000124                          : cli_mmwave.oer4f (.text:CLI_MMWaveContModeCfg)
                  00007c4c    00000004     libmmwave_xwr68xx.aer4f : mmwave_link.oer4f (.text:MMWave_mboxRead)
                  00007c50    00000118     sysbios.aer4ft : BIOS.obj (.text:ti_sysbios_family_arm_v7r_vim_Hwi_Instance_init__E)
                  00007d68    00000008     libmmwavelink_xwr68xx.aer4f : rl_driver.oer4f (.text:rlDriverGetHandle)
                  00007d70    00000118     sysbios.aer4ft : BIOS.obj (.text:ti_sysbios_knl_Swi_run__I)
                  00007e88    0000010c     libmmwave_xwr68xx.aer4f : mmwave_link.oer4f (.text:MMWave_asyncEventHandler)
                  00007f94    0000010c                             : mmwave_dualcore.oer4f (.text:MMWave_deviceInitFxn)
                  000080a0    0000010c     sysbios.aer4ft : BIOS.obj (.text:xdc_runtime_Core_constructObject__I)
                  000081ac    00000108     libdma_xwr68xx.aer4f : dma.oer4f (.text:DMA_disableInterrupt)
                  000082b4    00000108     libmailbox_xwr68xx.aer4f : mailbox.oer4f (.text:Mailbox_write)
                  000083bc    00000104     libmmwave_xwr68xx.aer4f : mmwave_link.oer4f (.text:MMWave_startLink)
                  000084c0    00000104     sysbios.aer4ft : BIOS.obj (.text:ti_sysbios_timers_rti_Timer_getFreq__E)
                  000085c4    00000100     libcli_xwr68xx.aer4f : cli_mmwave.oer4f (.text:CLI_MMWaveBPMCfgAdvanced)
                  000086c4    00000100     libdma_xwr68xx.aer4f : dma.oer4f (.text:DMA_clearChannelInterruptFlag)
                  000087c4    00000100     mss_main.oer4f (.text:MmwDemo_mssMmwaveEventCallbackFxn)
                  000088c4    00000100     libmmwavelink_xwr68xx.aer4f : rl_driver.oer4f (.text:rlDriverInit)
                  000089c4    000000fc     libcrc_xwr68xx.aer4f : crc.oer4f (.text:CRC_computeSignature)
                  00008ac0    000000f8     radarOsal_malloc.oer4f (.text:radarOsal_memInit)
                  00008bb8    000000f8     libmmwavelink_xwr68xx.aer4f : rl_driver.oer4f (.text:rlDriverRdVerifyMsg)
                  00008cb0    000000f8     mss_mmw_per4ft.oer4ft (.text:xdc_runtime_System_printfExtend__I)
                  00008da8    00000008     sysbios.aer4ft : BIOS.obj (.text:ti_sysbios_family_arm_v7a_Pmu_getEnabled__E)
                  00008db0    000000f0                    : BIOS.obj (.text:ti_sysbios_family_arm_v7r_vim_Hwi_Module_startup__E)
                  00008ea0    000000ec     rtsv7R4_T_le_v3D16_eabi.lib : s_scalbn.obj (.text)
                  00008f8c    00000004     libmmwave_xwr68xx.aer4f : mmwave_link.oer4f (.text:MMWave_registerInterruptHandler)
                  00008f90    000000ec     sysbios.aer4ft : BIOS.obj (.text:ti_sysbios_heaps_HeapBuf_Module_startup__E)
                  0000907c    000000e4     libmmwavelink_xwr68xx.aer4f : rl_sensor.oer4f (.text:rlRfPhShiftCalibDataRestore)
                  00009160    000000e0     libcli_xwr68xx.aer4f : cli.oer4f (.text:CLI_open)
                  00009240    000000e0     libdma_xwr68xx.aer4f : dma.oer4f (.text:DMA_enableInterrupt)
                  00009320    000000dc     libmmwave_xwr68xx.aer4f : mmwave.oer4f (.text:MMWave_init)
                  000093fc    000000dc     libmmwavelink_xwr68xx.aer4f : rl_driver.oer4f (.text:rlDriverMsgCmdReply)
                  000094d8    000000dc     rtsv7R4_T_le_v3D16_eabi.lib : setvbuf.obj (.text)
                  000095b4    000000d4     libmailbox_xwr68xx.aer4f : mailbox.oer4f (.text:Mailbox_read)
                  00009688    000000d4     libmmwavelink_xwr68xx.aer4f : rl_sensor.oer4f (.text:rlSetMultiBpmChirpConfig)
                  0000975c    00000004     libmmwave_xwr68xx.aer4f : mmwave_link.oer4f (.text:MMWave_unmaskHostIRQ)
                  00009760    000000d4     sysbios.aer4ft : BIOS.obj (.text:ti_sysbios_knl_Task_exit__E)
                  00009834    0000000c     libuart_xwr68xx.aer4f : uartsci_dma.oer4f (.text:UartSci_isDMAEnabled)
                  00009840    000000d4     sysbios.aer4ft : BIOS.obj (.text:ti_sysbios_knl_Task_schedule__I)
                  00009914    000000d0     mss_main.oer4f (.text:MmwDemo_mssCtrlPathTask)
                  000099e4    000000d0     sysbios.aer4ft : exc_Exception_asm.obj (.text:ti_sysbios_family_arm_exc_Exception_excHandlerAsm__I)
                  00009ab4    000000cc     libmmwavelink_xwr68xx.aer4f : rl_sensor.oer4f (.text:rlRfCalibDataRestore)
                  00009b80    000000cc                                 : rl_sensor.oer4f (.text:rlSetChirpConfig)
                  00009c4c    000000cc     rtsv7R4_T_le_v3D16_eabi.lib : fflush.obj (.text)
                  00009d18    00000006     libosal_xwr68xx.aer4f : HwiP_tirtos.oer4f (.text:HwiP_restore)
                  00009d1e    00000002     mss_main.oer4f (.text:MmwDemo_mssMmwaveOpenCallbackFxn)
                  00009d20    000000cc     sysbios.aer4ft : BIOS.obj (.text:ti_sysbios_knl_Task_checkStacks__E)
                  00009dec    000000c8     libmmwave_xwr68xx.aer4f : mmwave_fullcfg.oer4f (.text:MMWave_addChirp)
                  00009eb4    000000c8                             : mmwave_link.oer4f (.text:MMWave_configBPM)
                  00009f7c    000000c8                             : mmwave_fullcfg.oer4f (.text:MMWave_flushCfg)
                  0000a044    000000c8                             : mmwave_fullcfg.oer4f (.text:MMWave_getChirpHandle)
                  0000a10c    000000c8     cli.oer4f (.text:MmwDemo_CLIGuiMonSel)
                  0000a1d4    000000c8     cli.oer4f (.text:MmwDemo_CLIHighAccuCfg)
                  0000a29c    000000c8     libsoc_xwr68xx.aer4f : soc_xwr68xx.oer4f (.text:SOC_ungateClock)
                  0000a364    000000c8     libmmwavelink_xwr68xx.aer4f : rl_sensor.oer4f (.text:rlSetFrameConfig)
                  0000a42c    00000004     libmmwave_xwr68xx.aer4f : mmwave_link.oer4f (.text:MMWave_waitIRQStatus)
                  0000a430    000000c8     sysbios.aer4ft : BIOS.obj (.text:ti_sysbios_knl_Task_postInit__I)
                  0000a4f8    00000006     libmmwavelink_xwr68xx.aer4f : rl_controller.oer4f (.text:rlGetSubBlockId)
                  0000a4fe    00000002     libuart_xwr68xx.aer4f : uartsci.oer4f (.text:UartSci_init)
                  0000a500    000000c4     sysbios.aer4ft : BIOS.obj (.text:ti_sysbios_family_arm_v7a_Pmu_configureCounter__E)
                  0000a5c4    000000c0     libmmwavelink_xwr68xx.aer4f : rl_driver.oer4f (.text:rlDriverMsgWrite)
                  0000a684    0000000c     sysbios.aer4ft : arm_IntrinsicsSupport_asm.obj (.text:_ti_sysbios_family_arm_IntrinsicsSupport_maxbitA)
                  0000a690    000000c0                    : BIOS.obj (.text:ti_sysbios_timers_rti_Timer_startup__E)
                  0000a750    000000bc     libcli_xwr68xx.aer4f : cli.oer4f (.text:CLI_help)
                  0000a80c    000000bc     libmmwave_xwr68xx.aer4f : mmwave_link.oer4f (.text:MMWave_computeCRC)
                  0000a8c8    000000bc     rtsv7R4_T_le_v3D16_eabi.lib : open.obj (.text)
                  0000a984    000000b8     libdma_xwr68xx.aer4f : dma.oer4f (.text:DMA_getChannelInterruptFlag)
                  0000aa3c    000000b6     libsoc_xwr68xx.aer4f : soc_mpu.o (.text)
                  0000aaf2    00000002     rtsv7R4_T_le_v3D16_eabi.lib : i_div0.obj (.text)
                  0000aaf4    000000b4     cli.oer4f (.text:MmwDemo_CLIADCBufCfg)
                  0000aba8    000000b4     mss_main.oer4f (.text:MmwDemo_mssDataPathStart)
                  0000ac5c    00000004     mss_mmw_per4ft.oer4ft (.text:ti_sysbios_BIOS_RtsGateProxy_enter__E)
                  0000ac60    000000b4     sysbios.aer4ft : BIOS.obj (.text:ti_sysbios_gates_GateMutex_enter__E)
                  0000ad14    0000000c     rtsv7R4_T_le_v3D16_eabi.lib : copy_zero_init.obj (.text:decompress:ZI)
                  0000ad20    000000b4     sysbios.aer4ft : BIOS.obj (.text:ti_sysbios_knl_Task_startCore__E)
                  0000add4    000000b2     libuart_xwr68xx.aer4f : uartsci_dma.oer4f (.text:UartSci_openDMA)
                  0000ae86    00000002     mss_mmw_per4ft.oer4ft (.text:ti_sysbios_BIOS_nullFunc__I)
                  0000ae88    000000b0     libmmwave_xwr68xx.aer4f : mmwave_fullcfg.oer4f (.text:MMWave_addProfile)
                  0000af38    000000b0     libmmwavelink_xwr68xx.aer4f : rl_sensor.oer4f (.text:rlSetProfileConfig)
                  0000afe8    00000006                                 : rl_controller.oer4f (.text:rlGetSubBlockLen)
                  0000afee    00000002     mss_mmw_per4ft.oer4ft (.text:xdc_runtime_Startup_reset__I)
                  0000aff0    000000b0     sysbios.aer4ft : BIOS.obj (.text:xdc_runtime_Text_putMod__E)
                  0000b0a0    000000ae     rtsv7R4_T_le_v3D16_eabi.lib : _io_perm.obj (.text)
                  0000b14e    00000002     --HOLE-- [fill = 0]
                  0000b150    000000ac     libesm_xwr68xx.aer4f : esm.oer4f (.text:ESM_processInterrupt)
                  0000b1fc    000000ac     cli.oer4f (.text:MmwDemo_CLISetDataLogger)
                  0000b2a8    000000a8     libcli_xwr68xx.aer4f : cli_mmwave.oer4f (.text:CLI_MMWaveExtensionHelp)
                  0000b350    000000a8     libmmwave_xwr68xx.aer4f : mmwave_link.oer4f (.text:MMWave_configureProfileChirp)
                  0000b3f8    000000a8                             : mmwave_fullcfg.oer4f (.text:MMWave_getBpmChirpHandle)
                  0000b4a0    000000a8     libpinmux_xwr68xx.aer4f : pinmux.oer4f (.text:Pinmux_Set_OverrideCtrl)
                  0000b548    000000a8     libmmwavelink_xwr68xx.aer4f : rl_driver.oer4f (.text:rlDriverWaitForResponse)
                  0000b5f0    000000a8                                 : rl_sensor.oer4f (.text:rlSetAdvFrameConfig)
                  0000b698    00000004     mss_mmw_per4ft.oer4ft (.text:ti_sysbios_BIOS_RtsGateProxy_leave__E)
                  0000b69c    00000004     mss_mmw_per4ft.oer4ft (.text:ti_sysbios_family_arm_TaskSupport_Module__startupDone__S)
                  0000b6a0    000000a8     sysbios.aer4ft : BIOS.obj (.text:ti_sysbios_knl_Swi_post__E)
                  0000b748    000000a4     libdma_xwr68xx.aer4f : dma.oer4f (.text:DMA_assignChannel)
                  0000b7ec    000000a4     libesm_xwr68xx.aer4f : esm.oer4f (.text:ESM_init)
                  0000b890    000000a4     libmmwave_xwr68xx.aer4f : mmwave_fullcfg.oer4f (.text:MMWave_addBpmChirp)
                  0000b934    000000a4                             : mmwave.oer4f (.text:MMWave_start)
                  0000b9d8    000000a4     libsoc_xwr68xx.aer4f : soc_xwr68xx_mss.oer4f (.text:SOC_unhaltDSS)
                  0000ba7c    00000004     mss_mmw_per4ft.oer4ft (.text:ti_sysbios_family_arm_v7r_vim_Hwi_delete)
                  0000ba80    000000a2     sysbios.aer4ft : BIOS.obj (.text:xdc_runtime_Text_putSite__E)
                  0000bb22    00000002     --HOLE-- [fill = 0]
                  0000bb24    000000a0     auto_init.aer4ft : auto_init.oer4ft (.text)
                  0000bbc4    0000000c     libmmwavelink_xwr68xx.aer4f : rl_driver.oer4f (.text:rlDriverGetPlatformId)
                  0000bbd0    000000a0     sysbios.aer4ft : BIOS.obj (.text:ti_sysbios_knl_Task_blockI__E)
                  0000bc70    0000009c     libmmwave_xwr68xx.aer4f : mmwave_link.oer4f (.text:MMWave_configLink)
                  0000bd0c    0000009c                             : mmwave_fullcfg.oer4f (.text:MMWave_getProfileHandle)
                  0000bda8    0000009c     libuart_xwr68xx.aer4f : uartsci.oer4f (.text:UartSci_write)
                  0000be44    0000009c     rtsv7R4_T_le_v3D16_eabi.lib : memcpy_t2.obj (.text)
                  0000bee0    0000009c     sysbios.aer4ft : BIOS.obj (.text:ti_sysbios_family_arm_v7r_vim_Hwi_initIntController__I)
                  0000bf7c    00000004     mss_mmw_per4ft.oer4ft (.text:ti_sysbios_heaps_HeapMem_Module_GateProxy_enter__E)
                  0000bf80    0000009c     sysbios.aer4ft : BIOS.obj (.text:ti_sysbios_family_arm_v7r_vim_Hwi_mapChannel__I)
                  0000c01c    00000004     mss_mmw_per4ft.oer4ft (.text:ti_sysbios_heaps_HeapMem_Module_GateProxy_leave__E)
                  0000c020    0000009c     sysbios.aer4ft : BIOS.obj (.text:ti_sysbios_knl_Semaphore_Instance_init__E)
                  0000c0bc    00000098     libmmwave_xwr68xx.aer4f : mmwave_fullcfg.oer4f (.text:MMWave_getChirpCfg)
                  0000c154    00000098     rtsv7R4_T_le_v3D16_eabi.lib : fclose.obj (.text)
                  0000c1ec    00000098                                 : fputc.obj (.text)
                  0000c284    00000098     sysbios.aer4ft : vim_Hwi_asm_switch.obj (.text)
                  0000c31c    00000096     libuart_xwr68xx.aer4f : uartsci.oer4f (.text:UartSci_readChar)
                  0000c3b2    00000002     --HOLE-- [fill = 0]
                  0000c3b4    00000094     libmmwavelink_xwr68xx.aer4f : rl_driver.oer4f (.text:rlDriverDeInit)
                  0000c448    00000094                                 : rl_driver.oer4f (.text:rlDriverMsgReadCmdCtx)
                  0000c4dc    00000094                                 : rl_driver.oer4f (.text:rlDriverProcRdMsg)
                  0000c570    00000094     sysbios.aer4ft : vim_Hwi_asm.obj (.text:ti_sysbios_family_arm_v7r_vim_Hwi_dispatchIRQ__I)
                  0000c604    00000090     libmailbox_xwr68xx.aer4f : mailbox.oer4f (.text:Mailbox_close)
                  0000c694    00000090     libuart_xwr68xx.aer4f : uartsci_dma.oer4f (.text:UartSci_initiateTxDMA)
                  0000c724    00000090                           : uartsci.oer4f (.text:UartSci_read)
                  0000c7b4    0000000c     sysbios.aer4ft : BIOS.obj (.text:ti_sysbios_family_arm_v7a_Pmu_configureCounterI__I)
                  0000c7c0    00000090                    : BIOS.obj (.text:ti_sysbios_family_arm_v7a_Pmu_startCounter__E)
                  0000c850    00000090                    : BIOS.obj (.text:ti_sysbios_knl_Task_unblockI__E)
                  0000c8e0    0000008c     libcli_xwr68xx.aer4f : cli_mmwave.oer4f (.text:CLI_MMWaveDataOutputMode)
                  0000c96c    0000008c     libsoc_xwr68xx.aer4f : soc.oer4f (.text:SOC_init)
                  0000c9f8    0000008c                          : soc_xwr68xx.oer4f (.text:SOC_translateAddress)
                  0000ca84    0000008c     libuart_xwr68xx.aer4f : uartsci_dma.oer4f (.text:UartSci_initiateRxDMA)
                  0000cb10    0000008c     libmmwavelink_xwr68xx.aer4f : rl_device.oer4f (.text:rlDevicePowerOn)
                  0000cb9c    0000008c                                 : rl_driver.oer4f (.text:rlDriverMsgReadSpawnCtx)
                  0000cc28    00000004     mss_mmw_per4ft.oer4ft (.text:ti_sysbios_knl_Clock_TimerProxy_getMaxTicks__E)
                  0000cc2c    00000004     mss_mmw_per4ft.oer4ft (.text:ti_sysbios_knl_Semaphore_delete)
                  0000cc30    0000008c     sysbios.aer4ft : BIOS.obj (.text:ti_sysbios_family_arm_v7a_Pmu_getCount__E)
                  0000ccbc    00000004     mss_mmw_per4ft.oer4ft (.text:xdc_runtime_System_Module_GateProxy_enter__E)
                  0000ccc0    0000008c     sysbios.aer4ft : BIOS.obj (.text:ti_sysbios_family_arm_v7r_vim_Hwi_Instance_finalize__E)
                  0000cd4c    00000004     mss_mmw_per4ft.oer4ft (.text:xdc_runtime_System_Module_GateProxy_leave__E)
                  0000cd50    0000008c     sysbios.aer4ft : BIOS.obj (.text:xdc_runtime_Memory_alloc__E)
                  0000cddc    00000088     libmmwave_xwr68xx.aer4f : mmwave_fullcfg.oer4f (.text:MMWave_getProfileCfg)
                  0000ce64    00000088     rtsv7R4_T_le_v3D16_eabi.lib : vsnprintf.obj (.text)
                  0000ceec    00000084     libmmwave_xwr68xx.aer4f : mmwave_dualcore.oer4f (.text:MMWave_deviceCfgAsyncEvent)
                  0000cf70    00000084                             : mmwave_dualcore.oer4f (.text:MMWave_deviceEventFxn)
                  0000cff4    00000084                             : mmwave_fullcfg.oer4f (.text:MMWave_getNumBpmChirp)
                  0000d078    00000084                             : mmwave.oer4f (.text:MMWave_open)
                  0000d0fc    00000080     libcli_xwr68xx.aer4f : cli_mmwave.oer4f (.text:CLI_MMWaveChannelCfg)
                  0000d17c    00000080     libmmwave_xwr68xx.aer4f : mmwave_fullcfg.oer4f (.text:MMWave_getBpmChirpCfg)
                  0000d1fc    00000080     libsoc_xwr68xx.aer4f : soc.oer4f (.text:SOC_getDeviceRFFreqScaleFactor)
                  0000d27c    00000080     libuart_xwr68xx.aer4f : uartsci.oer4f (.text:UartSci_writePolling)
                  0000d2fc    00000080     libmmwavelink_xwr68xx.aer4f : rl_driver.oer4f (.text:rlDriverExecuteGetApi)
                  0000d37c    00000004     --HOLE-- [fill = 0]
                  0000d380    00000080     sysbios.aer4ft : BIOS.obj (.text:ti_sysbios_timers_rti_Timer_initDevice__I)
                  0000d400    0000007e     libosal_xwr68xx.aer4f : HwiP_tirtos.oer4f (.text:HwiP_create)
                  0000d47e    00000002     --HOLE-- [fill = 0]
                  0000d480    0000007c     libmmwave_xwr68xx.aer4f : mmwave_dualcore.oer4f (.text:MMWave_deviceOpenFxn)
                  0000d4fc    0000007c     libmailbox_xwr68xx.aer4f : mailbox.oer4f (.text:Mailbox_init)
                  0000d578    0000007c     libuart_xwr68xx.aer4f : uartsci.oer4f (.text:UartSci_readPolling)
                  0000d5f4    0000007c     sysbios.aer4ft : arm_TaskSupport_asm.obj (.text:_ti_sysbios_family_arm_TaskSupport_buildTaskStack)
                  0000d670    0000007c                    : BIOS.obj (.text:xdc_runtime_Core_deleteObject__I)
                  0000d6ec    0000007a     rtsv7R4_T_le_v3D16_eabi.lib : memset_t2.obj (.text)
                  0000d766    00000002     --HOLE-- [fill = 0]
                  0000d768    00000078     libcli_xwr68xx.aer4f : cli_mmwave.oer4f (.text:CLI_MMWaveADCCfg)
                  0000d7e0    00000078     libmmwave_xwr68xx.aer4f : mmwave_fullcfg.oer4f (.text:MMWave_getNumChirps)
                  0000d858    00000074                             : mmwave.oer4f (.text:MMWave_config)
                  0000d8cc    00000074                             : mmwave_dualcore.oer4f (.text:MMWave_deviceStartFxn)
                  0000d940    00000074     boot.aer4ft : boot.oer4ft (.text)
                  0000d9b4    00000074     libmmwavelink_xwr68xx.aer4f : rl_driver.oer4f (.text:rlDriverAsyncEventHandler)
                  0000da28    00000074     rtsv7R4_T_le_v3D16_eabi.lib : getdevice.obj (.text)
                  0000da9c    00000074                                 : s_frexp.obj (.text)
                  0000db10    00000072     libmmwavelink_xwr68xx.aer4f : rl_driver.oer4f (.text:rlDriverClientCbCheck)
                  0000db82    00000002     --HOLE-- [fill = 0]
                  0000db84    00000070     libmmwave_xwr68xx.aer4f : mmwave_dualcore.oer4f (.text:MMWave_deviceCfgFxn)
                  0000dbf4    00000070     rtsv7R4_T_le_v3D16_eabi.lib : printf.obj (.text)
                  0000dc64    0000000c     sysbios.aer4ft : BIOS.obj (.text:ti_sysbios_family_arm_v7a_Pmu_getCountI__E)
                  0000dc70    00000070                    : BIOS.obj (.text:xdc_runtime_Error_print__E)
                  0000dce0    00000070                    : BIOS.obj (.text:xdc_runtime_Text_visitRope2__I)
                  0000dd50    0000006c     libdma_xwr68xx.aer4f : dma.oer4f (.text:DMA_disableChannel)
                  0000ddbc    0000006c                          : dma.oer4f (.text:DMA_enableChannel)
                  0000de28    0000006c     libmmwave_xwr68xx.aer4f : mmwave_link.oer4f (.text:MMWave_spawn)
                  0000de94    0000006c                             : mmwave_link.oer4f (.text:MMWave_stopLink)
                  0000df00    0000006c     libpinmux_xwr68xx.aer4f : pinmux.oer4f (.text:Pinmux_Set_FuncSel)
                  0000df6c    0000006c     rtsv7R4_T_le_v3D16_eabi.lib : copy_decompress_lzss.obj (.text:decompress:lzss)
                  0000dfd8    0000006c                                 : trgmsg.obj (.text)
                  0000e044    0000006a     libuart_xwr68xx.aer4f : uartsci.oer4f (.text:UartSci_control)
                  0000e0ae    00000002     --HOLE-- [fill = 0]
                  0000e0b0    00000068     libmmwave_xwr68xx.aer4f : mmwave_dualcore.oer4f (.text:MMWave_deviceStopFxn)
                  0000e118    00000068     libmailbox_xwr68xx.aer4f : mailbox.oer4f (.text:Mailbox_readFlush)
                  0000e180    00000068     libmmwavelink_xwr68xx.aer4f : rl_driver.oer4f (.text:rlDriverExecuteSetApi)
                  0000e1e8    00000068                                 : rl_driver.oer4f (.text:rlDriverHostIrqHandler)
                  0000e250    00000068     rtsv7R4_T_le_v3D16_eabi.lib : hostlseek.obj (.text)
                  0000e2b8    00000068                                 : hostrename.obj (.text)
                  0000e320    00000068     sysbios.aer4ft : BIOS.obj (.text:ti_sysbios_knl_Swi_schedule__I)
                  0000e388    00000066     libmmwavelink_xwr68xx.aer4f : rl_device.oer4f (.text:rlDevicePowerOff)
                  0000e3ee    00000002     --HOLE-- [fill = 0]
                  0000e3f0    00000064     libcli_xwr68xx.aer4f : cli_mmwave.oer4f (.text:CLI_MMWaveLowPowerCfg)
                  0000e454    00000064     libosal_xwr68xx.aer4f : SemaphoreP_tirtos.oer4f (.text:SemaphoreP_create)
                  0000e4b8    00000064     rtsv7R4_T_le_v3D16_eabi.lib : fseek.obj (.text)
                  0000e51c    00000064                                 : sprintf.obj (.text)
                  0000e580    00000064     sysbios.aer4ft : exc_Exception_asm.obj (.text:ti_sysbios_family_arm_exc_Exception_initCore0__I)
                  0000e5e4    0000000c     mss_mmw_per4ft.oer4ft (.text:ti_sysbios_knl_Queue_Object__get__S)
                  0000e5f0    00000064     sysbios.aer4ft : BIOS.obj (.text:ti_sysbios_family_arm_v7r_vim_Hwi_phantomIntHandler__I)
                  0000e654    0000000a     libosal_xwr68xx.aer4f : MemoryP_tirtos.oer4f (.text:MemoryP_ctrlFree)
                  0000e65e    00000002     --HOLE-- [fill = 0]
                  0000e660    00000064     sysbios.aer4ft : BIOS.obj (.text:ti_sysbios_knl_Clock_logTick__E)
                  0000e6c4    0000000a     libosal_xwr68xx.aer4f : SemaphoreP_tirtos.oer4f (.text:SemaphoreP_post)
                  0000e6ce    00000002     --HOLE-- [fill = 0]
                  0000e6d0    00000064     sysbios.aer4ft : BIOS.obj (.text:xdc_runtime_Startup_exec__E)
                  0000e734    00000060     libcli_xwr68xx.aer4f : cli_mmwave.oer4f (.text:CLI_MMWaveExtensionHandler)
                  0000e794    00000060     mss_main.oer4f (.text:MmwDemo_mssDataPathStop)
                  0000e7f4    00000060     mss_main.oer4f (.text:MmwDemo_printHeapStats)
                  0000e854    0000000a     libuart_xwr68xx.aer4f : UART.oer4f (.text:UART_read)
                  0000e85e    00000002     --HOLE-- [fill = 0]
                  0000e860    00000060     sysbios.aer4ft : BIOS.obj (.text:ti_sysbios_heaps_HeapMem_alloc__E)
                  0000e8c0    00000060                    : BIOS.obj (.text:xdc_runtime_Assert_raise__I)
                  0000e920    0000005f                    : BIOS.obj (.text:xdc_runtime_Text_putLab__E)
                  0000e97f    00000001     --HOLE-- [fill = 0]
                  0000e980    0000005e     libuart_xwr68xx.aer4f : uartsci.oer4f (.text:UartSci_writeChar)
                  0000e9de    00000002     --HOLE-- [fill = 0]
                  0000e9e0    0000005c     libmmwave_xwr68xx.aer4f : mmwave_link.oer4f (.text:MMWave_mboxOpen)
                  0000ea3c    0000005c                             : mmwave.oer4f (.text:MMWave_stop)
                  0000ea98    0000005c     mss_main.oer4f (.text:MmwDemo_mmWaveCtrlTask)
                  0000eaf4    0000005c     rtsv7R4_T_le_v3D16_eabi.lib : hostopen.obj (.text)
                  0000eb50    0000005c                                 : hostread.obj (.text)
                  0000ebac    0000005a     libuart_xwr68xx.aer4f : uartsci.oer4f (.text:UartSci_readCancel)
                  0000ec06    0000005a     libmmwavelink_xwr68xx.aer4f : rl_driver.oer4f (.text:rlDriverCalChkSum)
                  0000ec60    00000058     libesm_xwr68xx.aer4f : esm.oer4f (.text:ESM_highpriority_FIQ)
                  0000ecb8    00000058     libmmwave_xwr68xx.aer4f : mmwave.oer4f (.text:MMWave_execute)
                  0000ed10    00000058                             : mmwave_link.oer4f (.text:MMWave_initCRC)
                  0000ed68    00000058     libuart_xwr68xx.aer4f : uartsci_dma.oer4f (.text:UartSci_closeDMA)
                  0000edc0    00000058     rtsv7R4_T_le_v3D16_eabi.lib : close.obj (.text)
                  0000ee18    00000058                                 : hostwrite.obj (.text)
                  0000ee70    00000058     sysbios.aer4ft : BIOS.obj (.text:ti_sysbios_knl_Swi_restoreHwi__E)
                  0000eec8    00000056     libmmwavelink_xwr68xx.aer4f : rl_driver.oer4f (.text:rlDriverOsiCbCheck)
                  0000ef1e    00000002     --HOLE-- [fill = 0]
                  0000ef20    00000054     libcrc_xwr68xx.aer4f : crc.oer4f (.text:CRC_getTransactionId)
                  0000ef74    00000054     libdma_xwr68xx.aer4f : dma.oer4f (.text:DMA_freeChannel)
                  0000efc8    00000054     libmmwave_xwr68xx.aer4f : mmwave_link.oer4f (.text:MMWave_initLink)
                  0000f01c    00000054     rtsv7R4_T_le_v3D16_eabi.lib : ltoa.obj (.text)
                  0000f070    00000054     mss_mmw_per4ft.oer4ft (.text:ti_sysbios_family_arm_v7r_vim_Hwi_create)
                  0000f0c4    0000000a     libuart_xwr68xx.aer4f : UART.oer4f (.text:UART_write)
                  0000f0ce    00000002     --HOLE-- [fill = 0]
                  0000f0d0    00000054     sysbios.aer4ft : BIOS.obj (.text:ti_sysbios_heaps_HeapMem_getStats__E)
                  0000f124    0000000a     libuart_xwr68xx.aer4f : UART.oer4f (.text:UART_writePolling)
                  0000f12e    00000002     --HOLE-- [fill = 0]
                  0000f130    00000054     sysbios.aer4ft : BIOS.obj (.text:ti_sysbios_knl_Swi_runLoop__I)
                  0000f184    0000000a                    : tms570_Core_asm.obj (.text:ti_sysbios_family_arm_v7r_tms570_Core_getId__E)
                  0000f18e    00000002     --HOLE-- [fill = 0]
                  0000f190    00000054                    : BIOS.obj (.text:ti_sysbios_knl_Swi_startup__E)
                  0000f1e4    0000000a     mss_mmw_per4ft.oer4ft (.text:xdc_runtime_IHeap_alloc)
                  0000f1ee    00000002     --HOLE-- [fill = 0]
                  0000f1f0    00000054     sysbios.aer4ft : BIOS.obj (.text:xdc_runtime_Core_assignLabel__I)
                  0000f244    00000050     libcrc_xwr68xx.aer4f : crc.oer4f (.text:CRC_getSignature)
                  0000f294    00000050     libmmwave_xwr68xx.aer4f : mmwave.oer4f (.text:MMWave_sync)
                  0000f2e4    00000050     libmmwavelink_xwr68xx.aer4f : rl_driver.oer4f (.text:rlDeviceIdentifyCmdDir)
                  0000f334    00000050                                 : rl_driver.oer4f (.text:rlDriverVerifyCRC)
                  0000f384    00000050     rtsv7R4_T_le_v3D16_eabi.lib : atoi.obj (.text)
                  0000f3d4    00000050                                 : exit.obj (.text)
                  0000f424    00000050                                 : u_div32.obj (.text)
                  0000f474    0000000a     mss_mmw_per4ft.oer4ft (.text:xdc_runtime_IHeap_free)
                  0000f47e    00000002     --HOLE-- [fill = 0]
                  0000f480    00000050     sysbios.aer4ft : BIOS.obj (.text:xdc_runtime_System_exit__E)
                  0000f4d0    0000004c     libcli_xwr68xx.aer4f : cli.oer4f (.text:CLI_write)
                  0000f51c    0000004c     libmailbox_xwr68xx.aer4f : mailbox.oer4f (.text:Mailbox_boxEmptyISRProcessing)
                  0000f568    0000004c     libuart_xwr68xx.aer4f : uartsci.oer4f (.text:UartSci_writeCancel)
                  0000f5b4    0000004c     rtsv7R4_T_le_v3D16_eabi.lib : cpy_tbl.obj (.text)
                  0000f600    0000004c     sysbios.aer4ft : BIOS.obj (.text:ti_sysbios_family_arm_v7r_vim_Hwi_getStackInfo__E)
                  0000f64c    0000004c     mss_mmw_per4ft.oer4ft (.text:ti_sysbios_knl_Task_create)
                  0000f698    0000004a     libmailbox_xwr68xx.aer4f : mailbox.oer4f (.text:Mailbox_boxFullISRProcessing)
                  0000f6e2    0000000e     libosal_xwr68xx.aer4f : SemaphoreP_tirtos.oer4f (.text:SemaphoreP_delete)
                  0000f6f0    0000004a     sysbios.aer4ft : BIOS.obj (.text:xdc_runtime_Core_assignParams__I)
                  0000f73a    00000006     --HOLE-- [fill = 0]
                  0000f740    0000004a                    : BIOS.obj (.text:xdc_runtime_Text_xprintf__I)
                  0000f78a    00000048     libmmwavelink_xwr68xx.aer4f : rl_device.oer4f (.text:rlDeviceGetVersion)
                  0000f7d2    00000002     --HOLE-- [fill = 0]
                  0000f7d4    00000048                                 : rl_driver.oer4f (.text:rlDriverOsiInit)
                  0000f81c    00000046     libmailbox_xwr68xx.aer4f : mailbox.oer4f (.text:CSL_FINSR)
                  0000f862    00000044     libcrc_xwr68xx.aer4f : crc.oer4f (.text:CRC_resetSignature)
                  0000f8a6    00000002     --HOLE-- [fill = 0]
                  0000f8a8    00000044     libmailbox_xwr68xx.aer4f : mailbox.oer4f (.text:Mailbox_boxFullISRMssDss)
                  0000f8ec    00000044     libsoc_xwr68xx.aer4f : soc_xwr68xx_mss.oer4f (.text:SOC_resetDMA)
                  0000f930    00000044     rtsv7R4_T_le_v3D16_eabi.lib : hostclose.obj (.text)
                  0000f974    00000044                                 : hostunlink.obj (.text)
                  0000f9b8    00000008     --HOLE-- [fill = 0]
                  0000f9c0    00000044     sysbios.aer4ft : BIOS.obj (.text:ti_sysbios_family_arm_v7r_tms570_Core_Module_startup__E)
                  0000fa04    0000000c     --HOLE-- [fill = 0]
                  0000fa10    00000044                    : BIOS.obj (.text:ti_sysbios_knl_Task_allBlockedFunction__I)
                  0000fa54    0000000c     --HOLE-- [fill = 0]
                  0000fa60    00000044                    : BIOS.obj (.text:xdc_runtime_System_atexit__E)
                  0000faa4    00000042     libmmwave_xwr68xx.aer4f : mmwave_link.oer4f (.text:MMWave_executeLink)
                  0000fae6    00000042     libmmwavelink_xwr68xx.aer4f : rl_controller.oer4f (.text:rlGetSubBlock)
                  0000fb28    00000040                                 : rl_driver.oer4f (.text:rlDriverValidateHdr)
                  0000fb68    00000040     rtsv7R4_T_le_v3D16_eabi.lib : strtok.obj (.text)
                  0000fba8    00000008     --HOLE-- [fill = 0]
                  0000fbb0    00000040     sysbios.aer4ft : BIOS.obj (.text:ti_sysbios_timers_rti_Timer_stop__E)
                  0000fbf0    0000003e     libcrc_xwr68xx.aer4f : crc.oer4f (.text:CSL_FINSR)
                  0000fc2e    0000003e     libdma_xwr68xx.aer4f : dma.oer4f (.text:CSL_FINSR)
                  0000fc6c    0000003e     libpinmux_xwr68xx.aer4f : pinmux.oer4f (.text:CSL_FINSR)
                  0000fcaa    0000003e     libsoc_xwr68xx.aer4f : soc.oer4f (.text:CSL_FINSR)
                  0000fce8    0000003e                          : soc_xwr68xx.oer4f (.text:CSL_FINSR)
                  0000fd26    0000003e                          : soc_xwr68xx_mss.oer4f (.text:CSL_FINSR)
                  0000fd64    0000003e     libuart_xwr68xx.aer4f : uartsci.oer4f (.text:CSL_FINSR)
                  0000fda2    0000003e                           : uartsci.oer4f (.text:UartSci_close)
                  0000fde0    0000003c     libcli_xwr68xx.aer4f : cli_mmwave.oer4f (.text:CLI_MMWaveFlushCfg)
                  0000fe1c    0000003c     libmailbox_xwr68xx.aer4f : mailbox.oer4f (.text:Mailbox_writeReset)
                  0000fe58    0000003c     libsoc_xwr68xx.aer4f : soc.oer4f (.text:SOC_unhaltBSS)
                  0000fe94    0000003c     sysbios.aer4ft : vim_Hwi_asm.obj (.text:ti_sysbios_family_arm_v7r_vim_Hwi_init__I)
                  0000fed0    0000003c                    : BIOS.obj (.text:ti_sysbios_hal_Hwi_checkStack)
                  0000ff0c    00000004     --HOLE-- [fill = 0]
                  0000ff10    0000003c                    : BIOS.obj (.text:ti_sysbios_heaps_HeapMem_init__I)
                  0000ff4c    00000004     --HOLE-- [fill = 0]
                  0000ff50    0000003c                    : BIOS.obj (.text:ti_sysbios_timers_rti_Timer_setPeriod__E)
                  0000ff8c    0000003a     libosal_xwr68xx.aer4f : HwiP_tirtos.oer4f (.text:HwiP_delete)
                  0000ffc6    00000002     --HOLE-- [fill = 0]
                  0000ffc8    00000038     libcli_xwr68xx.aer4f : cli_mmwave.oer4f (.text:CLI_MMWaveExtensionInit)
                  00010000    00000038     libuart_xwr68xx.aer4f : UART.oer4f (.text:UART_init)
                  00010038    00000036     libmmwavelink_xwr68xx.aer4f : rl_controller.oer4f (.text:rlAppendSubBlock)
                  0001006e    00000036     rtsv7R4_T_le_v3D16_eabi.lib : strncpy.obj (.text)
                  000100a4    00000034     libmmwave_xwr68xx.aer4f : mmwave_link.oer4f (.text:MMWave_mboxWrite)
                  000100d8    00000034     cli.oer4f (.text:MmwDemo_CLISensorStart)
                  0001010c    00000034     libsoc_xwr68xx.aer4f : soc_xwr68xx_mss.oer4f (.text:SOC_hasDSPCore)
                  00010140    00000034                          : soc_xwr68xx.oer4f (.text:SOC_setMMWaveDSSLinkState)
                  00010174    00000034                          : soc_xwr68xx.oer4f (.text:SOC_setMMWaveMSSLinkState)
                  000101a8    00000034     libuart_xwr68xx.aer4f : UART.oer4f (.text:UART_open)
                  000101dc    00000034     mss_mmw_per4ft.oer4ft (.text:ti_sysbios_knl_Semaphore_create)
                  00010210    00000032     libcrc_xwr68xx.aer4f : crc.oer4f (.text:CRC_getCRCDataSelectBitValue)
                  00010242    00000002     --HOLE-- [fill = 0]
                  00010244    00000032                          : crc.oer4f (.text:CRC_getCRCTypeBitValue)
                  00010276    0000000a     --HOLE-- [fill = 0]
                  00010280    00000032     sysbios.aer4ft : BIOS.obj (.text:ti_sysbios_hal_Hwi_initStack)
                  000102b2    00000030     libmmwave_xwr68xx.aer4f : mmwave_listlib.oer4f (.text:MMWave_listRemoveNode)
                  000102e2    00000002     --HOLE-- [fill = 0]
                  000102e4    00000030     libsoc_xwr68xx.aer4f : soc.oer4f (.text:SOC_getDevicePartNumber)
                  00010314    00000030     libmmwavelink_xwr68xx.aer4f : rl_sensor.oer4f (.text:rlSensorStart)
                  00010344    00000030     mss_mmw_per4ft.oer4ft (.text:ti_sysbios_BIOS_atExitFunc__I)
                  00010374    00000030     mss_mmw_per4ft.oer4ft (.text:ti_sysbios_BIOS_startFunc__I)
                  000103a4    0000000c     --HOLE-- [fill = 0]
                  000103b0    00000030     sysbios.aer4ft : BIOS.obj (.text:ti_sysbios_family_arm_TaskSupport_start__E)
                  000103e0    00000030     mss_mmw_per4ft.oer4ft (.text:ti_sysbios_gates_GateHwi_Object__create__S)
                  00010410    00000030     mss_mmw_per4ft.oer4ft (.text:ti_sysbios_gates_GateMutex_Object__create__S)
                  00010440    00000030     mss_mmw_per4ft.oer4ft (.text:ti_sysbios_heaps_HeapMem_Object__create__S)
                  00010470    00000030     sysbios.aer4ft : BIOS.obj (.text:ti_sysbios_heaps_HeapMem_free__E)
                  000104a0    00000030     mss_mmw_per4ft.oer4ft (.text:ti_sysbios_knl_Event_create)
                  000104d0    00000030     mss_mmw_per4ft.oer4ft (.text:ti_sysbios_knl_Semaphore_construct)
                  00010500    0000002f     sysbios.aer4ft : BIOS.obj (.text:xdc_runtime_Text_printVisFxn__I)
                  0001052f    00000001     --HOLE-- [fill = 0]
                  00010530    0000002e                    : BIOS.obj (.text:ti_sysbios_knl_Event_pendTimeout__I)
                  0001055e    00000002     --HOLE-- [fill = 0]
                  00010560    0000002e                    : BIOS.obj (.text:ti_sysbios_knl_Semaphore_pendTimeout__I)
                  0001058e    0000002e     mss_mmw_per4ft.oer4ft (.text:ti_sysbios_rts_MemAlloc_alloc)
                  000105bc    0000002c     libmmwave_xwr68xx.aer4f : mmwave_osal.oer4f (.text:MMWave_osalMutexCreate)
                  000105e8    0000002c                             : mmwave_osal.oer4f (.text:MMWave_osalSemCreate)
                  00010614    0000002c     libsoc_xwr68xx.aer4f : soc_xwr68xx_mss.oer4f (.text:SOC_waitBSSPowerUp)
                  00010640    0000002c     libmmwavelink_xwr68xx.aer4f : rl_device.oer4f (.text:rlDeviceGetMssVersion)
                  0001066c    0000002c                                 : rl_sensor.oer4f (.text:rlSensorStop)
                  00010698    0000002c     rtsv7R4_T_le_v3D16_eabi.lib : unlink.obj (.text)
                  000106c4    0000002c     mss_mmw_per4ft.oer4ft (.text:ti_sysbios_knl_Clock_doTick__I)
                  000106f0    0000002c     mss_mmw_per4ft.oer4ft (.text:ti_sysbios_knl_Queue_construct)
                  0001071c    00000004     --HOLE-- [fill = 0]
                  00010720    0000002c     sysbios.aer4ft : BIOS.obj (.text:ti_sysbios_knl_Swi_Module_startup__E)
                  0001074c    00000004     --HOLE-- [fill = 0]
                  00010750    0000002c                    : BIOS.obj (.text:ti_sysbios_timers_rti_Timer_periodicStub__E)
                  0001077c    0000002a     libsoc_xwr68xx.aer4f : soc.oer4f (.text:SOC_SystemISR)
                  000107a6    0000002a     libmmwavelink_xwr68xx.aer4f : rl_device.oer4f (.text:rlDeviceGetMmWaveLinkVersion)
                  000107d0    0000002a     rtsv7R4_T_le_v3D16_eabi.lib : strspn.obj (.text)
                  000107fa    00000002     --HOLE-- [fill = 0]
                  000107fc    00000028     libmailbox_xwr68xx.aer4f : mailbox.oer4f (.text:Mailbox_Config_init)
                  00010824    00000028     libuart_xwr68xx.aer4f : uartsci_dma.oer4f (.text:UartSci_RxDMACallbackFxn)
                  0001084c    00000028                           : uartsci_dma.oer4f (.text:UartSci_TxDMACallbackFxn)
                  00010874    00000028     libmmwavelink_xwr68xx.aer4f : rl_driver.oer4f (.text:rlDriverConstructInMsg)
                  0001089c    00000028     rtsv7R4_T_le_v3D16_eabi.lib : lseek.obj (.text)
                  000108c4    00000028                                 : write.obj (.text)
                  000108ec    00000004     --HOLE-- [fill = 0]
                  000108f0    00000028     sysbios.aer4ft : BIOS.obj (.text:ti_sysbios_knl_Idle_run__E)
                  00010918    00000008     --HOLE-- [fill = 0]
                  00010920    00000028                    : BIOS.obj (.text:xdc_runtime_SysStd_abort__E)
                  00010948    00000008     --HOLE-- [fill = 0]
                  00010950    00000028                    : BIOS.obj (.text:xdc_runtime_System_aprintf_va__F)
                  00010978    00000026     libmmwavelink_xwr68xx.aer4f : rl_sensor.oer4f (.text:rlRfInitCalibConfig)
                  0001099e    00000026                                 : rl_sensor.oer4f (.text:rlRfRunTimeCalibConfig)
                  000109c4    00000026                                 : rl_sensor.oer4f (.text:rlRfSetCalMonFreqLimitConfig)
                  000109ea    00000026                                 : rl_sensor.oer4f (.text:rlRfSetDeviceCfg)
                  00010a10    00000026                                 : rl_sensor.oer4f (.text:rlSetAdcOutConfig)
                  00010a36    00000026                                 : rl_sensor.oer4f (.text:rlSetBpmCommonConfig)
                  00010a5c    00000026                                 : rl_sensor.oer4f (.text:rlSetChannelConfig)
                  00010a82    00000026                                 : rl_sensor.oer4f (.text:rlSetContModeConfig)
                  00010aa8    00000008     --HOLE-- [fill = 0]
                  00010ab0    00000026     sysbios.aer4ft : BIOS.obj (.text:xdc_runtime_System_printf_va__F)
                  00010ad6    00000024     libcrc_xwr68xx.aer4f : crc.oer4f (.text:CRC_isTransactionIdValid)
                  00010afa    00000002     --HOLE-- [fill = 0]
                  00010afc    00000024     cli.oer4f (.text:MmwDemo_CLIFrameStart)
                  00010b20    00000024     cli.oer4f (.text:MmwDemo_CLISensorStop)
                  00010b44    00000024     libsoc_xwr68xx.aer4f : soc_xwr68xx.oer4f (.text:SOC_isMMWaveDSSOperational)
                  00010b68    00000024                          : soc_xwr68xx.oer4f (.text:SOC_isMMWaveMSSOperational)
                  00010b8c    00000024     libmmwavelink_xwr68xx.aer4f : rl_sensor.oer4f (.text:rlEnableContMode)
                  00010bb0    00000024                                 : rl_sensor.oer4f (.text:rlRfSetCalMonTimeUnitConfig)
                  00010bd4    00000024                                 : rl_sensor.oer4f (.text:rlSetLowPowerModeConfig)
                  00010bf8    00000024     mss_mmw_per4ft.oer4ft (.text:ti_sysbios_BIOS_errorRaiseHook__I)
                  00010c1c    00000024     mss_mmw_per4ft.oer4ft (.text:ti_sysbios_BIOS_registerRTSLock__I)
                  00010c40    00000024     mss_mmw_per4ft.oer4ft (.text:ti_sysbios_BIOS_removeRTSLock__I)
                  00010c64    00000024     mss_mmw_per4ft.oer4ft (.text:ti_sysbios_gates_GateMutex_Object__delete__S)
                  00010c88    00000008     --HOLE-- [fill = 0]
                  00010c90    00000024     sysbios.aer4ft : BIOS.obj (.text:ti_sysbios_knl_Clock_Module_startup__E)
                  00010cb4    00000024     mss_mmw_per4ft.oer4ft (.text:ti_sysbios_knl_Semaphore_Object__delete__S)
                  00010cd8    00000008     --HOLE-- [fill = 0]
                  00010ce0    00000024     sysbios.aer4ft : BIOS.obj (.text:ti_sysbios_knl_Task_restoreHwi__E)
                  00010d04    00000022     libuart_xwr68xx.aer4f : uartsci.oer4f (.text:UartSci_disableRxDMA)
                  00010d26    00000022                           : uartsci.oer4f (.text:UartSci_enableRxDMA)
                  00010d48    00000022     rtsv7R4_T_le_v3D16_eabi.lib : strcspn.obj (.text)
                  00010d6a    00000002     --HOLE-- [fill = 0]
                  00010d6c    00000020     libesm_xwr68xx.aer4f : esm.oer4f (.text:ESM_lowpriority_IRQ)
                  00010d8c    00000020     libmmwave_xwr68xx.aer4f : mmwave_listlib.oer4f (.text:MMWave_listCat)
                  00010dac    00000020     mss_main.oer4f (.text:MmwDemo_mboxWrite)
                  00010dcc    00000020     libpinmux_xwr68xx.aer4f : pinmux.oer4f (.text:Pinmux_Unlock)
                  00010dec    00000020     libmmwavelink_xwr68xx.aer4f : rl_sensor.oer4f (.text:rlRfInit)
                  00010e0c    00000020     rtsv7R4_T_le_v3D16_eabi.lib : memchr.obj (.text)
                  00010e2c    00000004     --HOLE-- [fill = 0]
                  00010e30    00000020     sysbios.aer4ft : BIOS.obj (.text:ti_sysbios_family_arm_v7a_Pmu_Module_startup__E)
                  00010e50    00000020     mss_mmw_per4ft.oer4ft (.text:ti_sysbios_family_arm_v7r_vim_Hwi_Object__delete__S)
                  00010e70    00000020     sysbios.aer4ft : BIOS.obj (.text:ti_sysbios_family_arm_v7r_vim_Hwi_disableInterrupt__E)
                  00010e90    00000020                    : BIOS.obj (.text:ti_sysbios_family_arm_v7r_vim_Hwi_enableInterrupt__E)
                  00010eb0    00000020     mss_mmw_per4ft.oer4ft (.text:ti_sysbios_gates_GateHwi_Object__delete__S)
                  00010ed0    00000020     mss_mmw_per4ft.oer4ft (.text:ti_sysbios_heaps_HeapMem_Object__delete__S)
                  00010ef0    00000020     mss_mmw_per4ft.oer4ft (.text:ti_sysbios_knl_Semaphore_destruct)
                  00010f10    0000001e     libmmwave_xwr68xx.aer4f : mmwave_fullcfg.oer4f (.text:MMWave_internalDelChirp)
                  00010f2e    0000001e     libsoc_xwr68xx.aer4f : soc_xwr68xx_mss.oer4f (.text:SOC_getOutAddr_LUTType)
                  00010f4c    0000001c     libcrc_xwr68xx.aer4f : crc.oer4f (.text:CRC_releaseTransactionId)
                  00010f68    0000001c     libdma_xwr68xx.aer4f : dma.oer4f (.text:CSL_FEXTR)
                  00010f84    0000001c     libmmwave_xwr68xx.aer4f : mmwave.oer4f (.text:CSL_FEXTR)
                  00010fa0    0000001c     libsoc_xwr68xx.aer4f : soc.oer4f (.text:CSL_FEXTR)
                  00010fbc    0000001c                          : soc_xwr68xx.oer4f (.text:CSL_FEXTR)
                  00010fd8    0000001c                          : soc_xwr68xx_mss.oer4f (.text:CSL_FEXTR)
                  00010ff4    0000001c     libuart_xwr68xx.aer4f : uartsci.oer4f (.text:CSL_FEXTR)
                  00011010    0000001c     libmmwave_xwr68xx.aer4f : mmwave_listlib.oer4f (.text:MMWave_listRemove)
                  0001102c    0000001c     libsoc_xwr68xx.aer4f : soc_xwr68xx_mss.oer4f (.text:SOC_getInAddr_LUTType)
                  00011048    0000001c     sysbios.aer4ft : arm_TaskSupport_asm.obj (.text:_ti_sysbios_family_arm_TaskSupport_glue)
                  00011064    0000001c                    : arm_TaskSupport_asm.obj (.text:_ti_sysbios_family_arm_TaskSupport_swap__E)
                  00011080    0000001c     rtsv7R4_T_le_v3D16_eabi.lib : memccpy.obj (.text)
                  0001109c    0000001c     mss_mmw_per4ft.oer4ft (.text:ti_sysbios_BIOS_rtsLock__I)
                  000110b8    00000008     --HOLE-- [fill = 0]
                  000110c0    0000001c     sysbios.aer4ft : BIOS.obj (.text:ti_sysbios_family_arm_v7r_vim_Hwi_clearInterrupt__E)
                  000110dc    00000004     --HOLE-- [fill = 0]
                  000110e0    0000001c                    : BIOS.obj (.text:ti_sysbios_gates_GateMutex_Instance_init__E)
                  000110fc    00000004     --HOLE-- [fill = 0]
                  00011100    0000001c                    : BIOS.obj (.text:ti_sysbios_gates_GateMutex_leave__E)
                  0001111c    0000001c     mss_mmw_per4ft.oer4ft (.text:ti_sysbios_knl_Queue_destruct)
                  00011138    0000001a     libmmwave_xwr68xx.aer4f : mmwave_dualcore.oer4f (.text:MMWave_deviceSyncFxn)
                  00011152    0000001a                             : mmwave.oer4f (.text:MMWave_encodeError)
                  0001116c    0000001a                             : mmwave_listlib.oer4f (.text:MMWave_listAdd)
                  00011186    0000001a     mss_mmw_per4ft.oer4ft (.text:free)
                  000111a0    0000001a     libmmwavelink_xwr68xx.aer4f : rl_sensor.oer4f (.text:rlGetRfDieId)
                  000111ba    0000001a     rtsv7R4_T_le_v3D16_eabi.lib : s_copysign.obj (.text)
                  000111d4    0000001a     mss_mmw_per4ft.oer4ft (.text:ti_sysbios_gates_GateHwi_Handle__label__S)
                  000111ee    0000001a     mss_mmw_per4ft.oer4ft (.text:ti_sysbios_gates_GateMutex_Handle__label__S)
                  00011208    0000001a     mss_mmw_per4ft.oer4ft (.text:ti_sysbios_heaps_HeapMem_Handle__label__S)
                  00011222    0000001a     mss_mmw_per4ft.oer4ft (.text:xdc_runtime_System_aprintf__E)
                  0001123c    0000001a     mss_mmw_per4ft.oer4ft (.text:xdc_runtime_System_printf__E)
                  00011256    00000002     --HOLE-- [fill = 0]
                  00011258    00000018     libcli_xwr68xx.aer4f : cli_mmwave.oer4f (.text:CLI_getMMWaveExtensionOpenConfig)
                  00011270    00000018     libmmwave_xwr68xx.aer4f : mmwave_osal.oer4f (.text:MMWave_osalMutexLock)
                  00011288    00000018                             : mmwave_osal.oer4f (.text:MMWave_osalSemWait)
                  000112a0    00000018     libmailbox_xwr68xx.aer4f : mailbox.oer4f (.text:Mailbox_boxEmptyISRBss)
                  000112b8    00000018                              : mailbox.oer4f (.text:Mailbox_boxEmptyISRMssDss)
                  000112d0    00000018                              : mailbox.oer4f (.text:Mailbox_boxFullISRBss)
                  000112e8    00000018     libmmwavelink_xwr68xx.aer4f : rl_device.oer4f (.text:rlDeviceGetRfVersion)
                  00011300    00000018                                 : rl_driver.oer4f (.text:rlDriverCalCRC)
                  00011318    00000018                                 : rl_driver.oer4f (.text:rlDriverFillPayload)
                  00011330    00000018     rtsv7R4_T_le_v3D16_eabi.lib : args_main.obj (.text)
                  00011348    00000018                                 : strcmp.obj (.text)
                  00011360    00000018     mss_mmw_per4ft.oer4ft (.text:ti_sysbios_BIOS_rtsUnlock__I)
                  00011378    00000018     sysbios.aer4ft : BIOS.obj (.text:ti_sysbios_family_arm_v7a_Pmu_initCounters__I)
                  00011390    00000018     mss_mmw_per4ft.oer4ft (.text:ti_sysbios_family_arm_v7r_vim_Hwi_Module__startupDone__F)
                  000113a8    00000018     mss_mmw_per4ft.oer4ft (.text:ti_sysbios_family_arm_v7r_vim_Hwi_Params__init__S)
                  000113c0    00000018     mss_mmw_per4ft.oer4ft (.text:ti_sysbios_knl_Semaphore_Params__init__S)
                  000113d8    00000018     mss_mmw_per4ft.oer4ft (.text:ti_sysbios_knl_Task_Params__init__S)
                  000113f0    00000018     sysbios.aer4ft : BIOS.obj (.text:ti_sysbios_knl_Task_enter__I)
                  00011408    00000018     mss_mmw_per4ft.oer4ft (.text:ti_sysbios_timers_rti_Timer_Module__startupDone__F)
                  00011420    00000018     sysbios.aer4ft : BIOS.obj (.text:xdc_runtime_Error_init__E)
                  00011438    00000016     rtsv7R4_T_le_v3D16_eabi.lib : strchr.obj (.text)
                  0001144e    00000016                                 : strlen.obj (.text)
                  00011464    00000016     mss_mmw_per4ft.oer4ft (.text:ti_sysbios_BIOS_exitFunc__I)
                  0001147a    00000006     --HOLE-- [fill = 0]
                  00011480    00000016     sysbios.aer4ft : BIOS.obj (.text:ti_sysbios_knl_Idle_loop__E)
                  00011496    0000000a     --HOLE-- [fill = 0]
                  000114a0    00000016                    : BIOS.obj (.text:ti_sysbios_knl_Task_sleepTimeout__I)
                  000114b6    00000014     libosal_xwr68xx.aer4f : CycleprofilerP_tirtos.oer4f (.text:CycleprofilerP_init)
                  000114ca    00000014                           : HwiP_tirtos.oer4f (.text:HwiP_Params_init)
                  000114de    00000014     libmmwave_xwr68xx.aer4f : mmwave_fullcfg.oer4f (.text:MMWave_internalDelBpmChirp)
                  000114f2    00000014                             : mmwave_fullcfg.oer4f (.text:MMWave_internalDelProfile)
                  00011506    00000014                             : mmwave_osal.oer4f (.text:MMWave_osalMutexDelete)
                  0001151a    00000014                             : mmwave_osal.oer4f (.text:MMWave_osalSemDelete)
                  0001152e    00000002     --HOLE-- [fill = 0]
                  00011530    00000014     libpinmux_xwr68xx.aer4f : pinmux.oer4f (.text:Pinmux_Lock)
                  00011544    00000014     libuart_xwr68xx.aer4f : uartsci.oer4f (.text:UartSci_disableTxDMA)
                  00011558    00000014                           : uartsci.oer4f (.text:UartSci_enableTxDMA)
                  0001156c    00000014     libosal_xwr68xx.aer4f : DebugP_tirtos.oer4f (.text:_DebugP_assert)
                  00011580    00000014     radarOsal_malloc.oer4f (.text:radarOsal_memDeInit)
                  00011594    00000014     libmmwavelink_xwr68xx.aer4f : rl_controller.oer4f (.text:rlAppendDummy)
                  000115a8    00000014                                 : rl_driver.oer4f (.text:rlDriverIsDeviceMapValid)
                  000115bc    00000014     rtsv7R4_T_le_v3D16_eabi.lib : _lock.obj (.text)
                  000115d0    00000014                                 : strcpy.obj (.text)
                  000115e4    00000014     mss_mmw_per4ft.oer4ft (.text:ti_sysbios_heaps_HeapMem_Object__get__S)
                  000115f8    00000008     --HOLE-- [fill = 0]
                  00011600    00000014     sysbios.aer4ft : BIOS.obj (.text:ti_sysbios_knl_Event_Instance_init__E)
                  00011614    00000014     mss_mmw_per4ft.oer4ft (.text:ti_sysbios_knl_Swi_Object__get__S)
                  00011628    00000012     libcrc_xwr68xx.aer4f : crc.oer4f (.text:CRC_initConfigParams)
                  0001163a    00000012     libmmwave_xwr68xx.aer4f : mmwave_dualcore.oer4f (.text:MMWave_deviceGetDeviceInfo)
                  0001164c    00000012     libosal_xwr68xx.aer4f : MemoryP_tirtos.oer4f (.text:MemoryP_ctrlAlloc)
                  0001165e    00000012                           : SemaphoreP_tirtos.oer4f (.text:SemaphoreP_pend)
                  00011670    00000012     sysbios.aer4ft : BIOS.obj (.text:ti_sysbios_hal_Hwi_Module_startup__E)
                  00011682    00000012     mss_mmw_per4ft.oer4ft (.text:xdc_runtime_Startup_exec__I)
                  00011694    00000010     libcli_xwr68xx.aer4f : cli_mmwave.oer4f (.text:CLI_getMMWaveExtensionConfig)
                  000116a4    00000010     libcrc_xwr68xx.aer4f : crc.oer4f (.text:CRC_getSignatureRegister)
                  000116b4    00000010     mss_main.oer4f (.text:MmwDemo_mssMmwaveConfigCallbackFxn)
                  000116c4    00000010     mss_main.oer4f (.text:MmwDemo_mssMmwaveStartCallbackFxn)
                  000116d4    00000010     mss_main.oer4f (.text:MmwDemo_mssMmwaveStopCallbackFxn)
                  000116e4    0000000c     --HOLE-- [fill = 0]
                  000116f0    00000010     sysbios.aer4ft : BIOS.obj (.text:ti_sysbios_BIOS_setThreadType__E)
                  00011700    00000010                    : BIOS.obj (.text:ti_sysbios_BIOS_start__E)
                  00011710    00000010                    : BIOS.obj (.text:ti_sysbios_family_arm_v7a_Pmu_disableInterruptI__E)
                  00011720    00000010                    : BIOS.obj (.text:ti_sysbios_family_arm_v7a_Pmu_enableInterruptI__E)
                  00011730    00000010                    : BIOS.obj (.text:ti_sysbios_family_arm_v7a_Pmu_getNumCounters__E)
                  00011740    00000010                    : BIOS.obj (.text:ti_sysbios_family_arm_v7a_Pmu_startCounterI__E)
                  00011750    00000010                    : BIOS.obj (.text:ti_sysbios_family_arm_v7a_Pmu_stopCounterI__E)
                  00011760    00000010                    : BIOS.obj (.text:ti_sysbios_gates_GateMutex_Instance_finalize__E)
                  00011770    00000010     mss_mmw_per4ft.oer4ft (.text:ti_sysbios_heaps_HeapBuf_Object__get__S)
                  00011780    00000010     sysbios.aer4ft : BIOS.obj (.text:ti_sysbios_knl_Semaphore_Instance_finalize__E)
                  00011790    00000010                    : BIOS.obj (.text:ti_sysbios_knl_Swi_disable__E)
                  000117a0    00000010     mss_mmw_per4ft.oer4ft (.text:ti_sysbios_knl_Task_Object__get__S)
                  000117b0    00000010     sysbios.aer4ft : BIOS.obj (.text:ti_sysbios_knl_Task_disable__E)
                  000117c0    00000010                    : BIOS.obj (.text:xdc_runtime_Memory_free__E)
                  000117d0    00000010     mss_mmw_per4ft.oer4ft (.text:xdc_runtime_Text_visitRope__I)
                  000117e0    0000000e     rtsv7R4_T_le_v3D16_eabi.lib : copy_decompress_none.obj (.text:decompress:none)
                  000117ee    00000002     --HOLE-- [fill = 0]
                  000117f0    0000000e     sysbios.aer4ft : BIOS.obj (.text:ti_sysbios_knl_Queue_empty__E)
                  000117fe    00000002     --HOLE-- [fill = 0]
                  00011800    0000000c                    : BIOS.obj (.text:ti_sysbios_family_arm_TaskSupport_checkStack__E)
                  0001180c    00000004     --HOLE-- [fill = 0]
                  00011810    0000000c                    : BIOS.obj (.text:ti_sysbios_family_arm_TaskSupport_getStackAlignment__E)
                  0001181c    00000004     --HOLE-- [fill = 0]
                  00011820    0000000c                    : BIOS.obj (.text:ti_sysbios_family_arm_exc_Exception_Module_startup__E)
                  0001182c    00000004     --HOLE-- [fill = 0]
                  00011830    0000000c                    : BIOS.obj (.text:ti_sysbios_family_arm_v7r_vim_Hwi_switchFromBootStack__E)
                  0001183c    00000004     --HOLE-- [fill = 0]
                  00011840    0000000c                    : BIOS.obj (.text:xdc_runtime_Startup_rtsDone__E)
                  0001184c    00000004     --HOLE-- [fill = 0]
                  00011850    0000000c                    : BIOS.obj (.text:xdc_runtime_SysStd_exit__E)
                  0001185c    00000004     --HOLE-- [fill = 0]
                  00011860    00000008                    : BIOS.obj (.text:ti_sysbios_gates_GateHwi_enter__E)
                  00011868    00000008     --HOLE-- [fill = 0]
                  00011870    00000006                    : BIOS.obj (.text:ti_sysbios_family_arm_v7r_vim_Hwi_startup__E)
                  00011876    0000000a     --HOLE-- [fill = 0]
                  00011880    00000006                    : BIOS.obj (.text:ti_sysbios_gates_GateHwi_leave__E)
                  00011886    0000000a     --HOLE-- [fill = 0]
                  00011890    00000006                    : BIOS.obj (.text:ti_sysbios_heaps_HeapMem_isBlocking__E)
                  00011896    0000000a     --HOLE-- [fill = 0]
                  000118a0    00000006                    : BIOS.obj (.text:ti_sysbios_knl_Queue_Instance_init__E)
                  000118a6    0000000a     --HOLE-- [fill = 0]
                  000118b0    00000006                    : BIOS.obj (.text:xdc_runtime_System_Module_startup__E)
                  000118b6    0000000a     --HOLE-- [fill = 0]
                  000118c0    00000004                    : BIOS.obj (.text:ti_sysbios_gates_GateHwi_query__E)
                  000118c4    0000000c     --HOLE-- [fill = 0]
                  000118d0    00000004                    : BIOS.obj (.text:ti_sysbios_gates_GateMutex_query__E)
                  000118d4    0000000c     --HOLE-- [fill = 0]
                  000118e0    00000004                    : BIOS.obj (.text:ti_sysbios_knl_Task_startup__E)
                  000118e4    0000000c     --HOLE-- [fill = 0]
                  000118f0    00000004                    : BIOS.obj (.text:ti_sysbios_timers_rti_Timer_getMaxTicks__E)
                  000118f4    0000000c     --HOLE-- [fill = 0]
                  00011900    00000004                    : BIOS.obj (.text:xdc_runtime_SysStd_putch__E)
                  00011904    0000000c     --HOLE-- [fill = 0]
                  00011910    00000004                    : BIOS.obj (.text:xdc_runtime_SysStd_ready__E)
                  00011914    0000000c     --HOLE-- [fill = 0]
                  00011920    00000002                    : BIOS.obj (.text:ti_sysbios_BIOS_linkedWithIncorrectBootLibrary__E)
                  00011922    0000000e     --HOLE-- [fill = 0]
                  00011930    00000002                    : BIOS.obj (.text:ti_sysbios_gates_GateHwi_Instance_init__E)

.const     0    00011938    0000290e     
                  00011938    00001b6f     mss_mmw_per4ft.oer4ft (.const:xdc_runtime_Text_charTab__A)
                  000134a7    00000001     --HOLE-- [fill = 0]
                  000134a8    000002b8     libmmwavelink_xwr68xx.aer4f : rl_sensor.oer4f (.const:$O1$$)
                  00013760    00000101     rtsv7R4_T_le_v3D16_eabi.lib : ctype.obj (.const:.string:_ctypes_)
                  00013861    00000001     --HOLE-- [fill = 0]
                  00013862    000000d8     mss_mmw_per4ft.oer4ft (.const:xdc_runtime_Text_nodeTab__A)
                  0001393a    00000002     mss_mmw_per4ft.oer4ft (.const:ti_sysbios_family_arm_exc_Exception_Module__id__C)
                  0001393c    000000a0     libcli_xwr68xx.aer4f : cli_mmwave.oer4f (.const:.string)
                  000139dc    00000004                          : cli.oer4f (.const:.string:$P$T0$1)
                  000139e0    00000098     rtsv7R4_T_le_v3D16_eabi.lib : strtod.obj (.const:$O1$$)
                  00013a78    00000088     libmmwavelink_xwr68xx.aer4f : rl_driver.oer4f (.const:$O2$$)
                  00013b00    00000080     mss_mmw_per4ft.oer4ft (.const:ti_sysbios_family_arm_v7r_vim_Hwi_channelMap__A)
                  00013b80    00000058     mss_mmw_per4ft.oer4ft (.const:.string)
                  00013bd8    00000044     mss_mmw_per4ft.oer4ft (.const:ti_sysbios_knl_Task_Object__PARAMS__C)
                  00013c1c    0000003c     libuart_xwr68xx.aer4f : UART.oer4f (.const:UART_defaultParams)
                  00013c58    00000030     mss_mmw_per4ft.oer4ft (.const:ti_sysbios_family_arm_v7r_vim_Hwi_Object__PARAMS__C)
                  00013c88    0000002c     mss_mmw_per4ft.oer4ft (.const:xdc_runtime_Startup_sfxnTab__A)
                  00013cb4    00000028     mss_mmw_per4ft.oer4ft (.const:ti_sysbios_heaps_HeapMem_Module__FXNS__C)
                  00013cdc    00000024     libmailbox_xwr68xx.aer4f : mailbox.oer4f (.const:Mailbox_defaultCfg)
                  00013d00    00000024     mss_mmw_per4ft.oer4ft (.const:ti_sysbios_gates_GateHwi_Module__FXNS__C)
                  00013d24    00000024     mss_mmw_per4ft.oer4ft (.const:ti_sysbios_gates_GateMutex_Module__FXNS__C)
                  00013d48    00000024     mss_mmw_per4ft.oer4ft (.const:ti_sysbios_heaps_HeapMem_Object__PARAMS__C)
                  00013d6c    00000024     mss_mmw_per4ft.oer4ft (.const:ti_sysbios_knl_Semaphore_Object__PARAMS__C)
                  00013d90    00000020     libcli_xwr68xx.aer4f : cli_mmwave.oer4f (.const:$P$T0$1)
                  00013db0    00000020     mss_mmw_per4ft.oer4ft (.const:ti_sysbios_family_arm_v7r_vim_Hwi_Object__DESC__C)
                  00013dd0    00000020     mss_mmw_per4ft.oer4ft (.const:ti_sysbios_gates_GateHwi_Object__DESC__C)
                  00013df0    00000020     mss_mmw_per4ft.oer4ft (.const:ti_sysbios_gates_GateMutex_Object__DESC__C)
                  00013e10    00000020     mss_mmw_per4ft.oer4ft (.const:ti_sysbios_heaps_HeapMem_Object__DESC__C)
                  00013e30    00000020     mss_mmw_per4ft.oer4ft (.const:ti_sysbios_knl_Event_Object__DESC__C)
                  00013e50    00000020     mss_mmw_per4ft.oer4ft (.const:ti_sysbios_knl_Queue_Object__DESC__C)
                  00013e70    00000020     mss_mmw_per4ft.oer4ft (.const:ti_sysbios_knl_Semaphore_Object__DESC__C)
                  00013e90    00000020     mss_mmw_per4ft.oer4ft (.const:ti_sysbios_knl_Task_Object__DESC__C)
                  00013eb0    00000018     mss_mmw_per4ft.oer4ft (.const:ti_sysbios_gates_GateHwi_Object__PARAMS__C)
                  00013ec8    00000018     mss_mmw_per4ft.oer4ft (.const:ti_sysbios_gates_GateMutex_Object__PARAMS__C)
                  00013ee0    00000018     mss_mmw_per4ft.oer4ft (.const:ti_sysbios_knl_Event_Object__PARAMS__C)
                  00013ef8    00000018     mss_mmw_per4ft.oer4ft (.const:ti_sysbios_knl_Queue_Object__PARAMS__C)
                  00013f10    00000016     mss_mmw_per4ft.oer4ft (.const:xdc_runtime_Startup_sfxnRts__A)
                  00013f26    00000002     mss_mmw_per4ft.oer4ft (.const:ti_sysbios_family_arm_v7a_Pmu_Module__id__C)
                  00013f28    00000010     mss_mmw_per4ft.oer4ft (.const:ti_sysbios_family_arm_v7r_vim_Hwi_intReqEnaSet__A)
                  00013f38    00000010     mss_mmw_per4ft.oer4ft (.const:ti_sysbios_family_arm_v7r_vim_Hwi_wakeEnaSet__A)
                  00013f48    00000008     mss_mmw_per4ft.oer4ft (.const:ti_sysbios_knl_Idle_funcList__C)
                  00013f50    00000008     mss_mmw_per4ft.oer4ft (.const:xdc_runtime_Startup_firstFxns__A)
                  00013f58    00000008     mss_mmw_per4ft.oer4ft (.const:xdc_runtime_Startup_firstFxns__C)
                  00013f60    00000008     mss_mmw_per4ft.oer4ft (.const:xdc_runtime_Startup_lastFxns__C)
                  00013f68    00000004     mss_mmw_per4ft.oer4ft (.const)
                  00013f6c    00000004     mss_mmw_per4ft.oer4ft (.const:ti_sysbios_family_arm_TaskSupport_stackAlignment__C)
                  00013f70    00000004     mss_mmw_per4ft.oer4ft (.const:ti_sysbios_family_arm_exc_Exception_E_dataAbort__C)
                  00013f74    00000004     mss_mmw_per4ft.oer4ft (.const:ti_sysbios_family_arm_exc_Exception_E_prefetchAbort__C)
                  00013f78    00000004     mss_mmw_per4ft.oer4ft (.const:ti_sysbios_family_arm_exc_Exception_E_swi__C)
                  00013f7c    00000004     mss_mmw_per4ft.oer4ft (.const:ti_sysbios_family_arm_exc_Exception_E_undefinedInstruction__C)
                  00013f80    00000004     mss_mmw_per4ft.oer4ft (.const:ti_sysbios_family_arm_exc_Exception_excHookFuncs__A)
                  00013f84    00000004     mss_mmw_per4ft.oer4ft (.const:ti_sysbios_family_arm_exc_Exception_excHookFuncs__C)
                  00013f88    00000004     mss_mmw_per4ft.oer4ft (.const:ti_sysbios_family_arm_v7a_Pmu_A_invalidCounterId__C)
                  00013f8c    00000004     mss_mmw_per4ft.oer4ft (.const:ti_sysbios_family_arm_v7a_Pmu_Module__diagsEnabled__C)
                  00013f90    00000004     mss_mmw_per4ft.oer4ft (.const:ti_sysbios_family_arm_v7a_Pmu_Module__diagsIncluded__C)
                  00013f94    00000004     mss_mmw_per4ft.oer4ft (.const:ti_sysbios_family_arm_v7a_Pmu_Module__diagsMask__C)
                  00013f98    00000004     mss_mmw_per4ft.oer4ft (.const:ti_sysbios_family_arm_v7r_tms570_Core_E_mismatchedIds__C)
                  00013f9c    00000004     mss_mmw_per4ft.oer4ft (.const:ti_sysbios_family_arm_v7r_tms570_Core_id__C)
                  00013fa0    00000004     mss_mmw_per4ft.oer4ft (.const:ti_sysbios_family_arm_v7r_vim_Hwi_A_badChannelId__C)
                  00013fa4    00000004     mss_mmw_per4ft.oer4ft (.const:ti_sysbios_family_arm_v7r_vim_Hwi_E_alreadyDefined__C)
                  00013fa8    00000004     mss_mmw_per4ft.oer4ft (.const:ti_sysbios_family_arm_v7r_vim_Hwi_E_badIntNum__C)
                  00013fac    00000004     mss_mmw_per4ft.oer4ft (.const:ti_sysbios_family_arm_v7r_vim_Hwi_E_phantomInterrupt__C)
                  00013fb0    00000004     mss_mmw_per4ft.oer4ft (.const:ti_sysbios_family_arm_v7r_vim_Hwi_E_undefined__C)
                  00013fb4    00000004     mss_mmw_per4ft.oer4ft (.const:ti_sysbios_family_arm_v7r_vim_Hwi_E_unsupportedMaskingOption__C)
                  00013fb8    00000004     mss_mmw_per4ft.oer4ft (.const:ti_sysbios_family_arm_v7r_vim_Hwi_LD_end__C)
                  00013fbc    00000004     mss_mmw_per4ft.oer4ft (.const:ti_sysbios_family_arm_v7r_vim_Hwi_LM_begin__C)
                  00013fc0    00000004     mss_mmw_per4ft.oer4ft (.const:ti_sysbios_family_arm_v7r_vim_Hwi_Module__diagsEnabled__C)
                  00013fc4    00000004     mss_mmw_per4ft.oer4ft (.const:ti_sysbios_family_arm_v7r_vim_Hwi_Module__diagsIncluded__C)
                  00013fc8    00000004     mss_mmw_per4ft.oer4ft (.const:ti_sysbios_family_arm_v7r_vim_Hwi_Module__diagsMask__C)
                  00013fcc    00000004     mss_mmw_per4ft.oer4ft (.const:ti_sysbios_family_arm_v7r_vim_Hwi_Module__loggerFxn1__C)
                  00013fd0    00000004     mss_mmw_per4ft.oer4ft (.const:ti_sysbios_family_arm_v7r_vim_Hwi_Module__loggerFxn8__C)
                  00013fd4    00000004     mss_mmw_per4ft.oer4ft (.const:ti_sysbios_family_arm_v7r_vim_Hwi_Module__loggerObj__C)
                  00013fd8    00000004     mss_mmw_per4ft.oer4ft (.const:ti_sysbios_family_arm_v7r_vim_Hwi_NUM_INTERRUPTS__C)
                  00013fdc    00000004     mss_mmw_per4ft.oer4ft (.const:ti_sysbios_family_arm_v7r_vim_Hwi_channelMap__C)
                  00013fe0    00000004     mss_mmw_per4ft.oer4ft (.const:ti_sysbios_family_arm_v7r_vim_Hwi_intReqEnaSet__C)
                  00013fe4    00000004     mss_mmw_per4ft.oer4ft (.const:ti_sysbios_family_arm_v7r_vim_Hwi_phantomFunc__C)
                  00013fe8    00000004     mss_mmw_per4ft.oer4ft (.const:ti_sysbios_family_arm_v7r_vim_Hwi_swiDisable__C)
                  00013fec    00000004     mss_mmw_per4ft.oer4ft (.const:ti_sysbios_family_arm_v7r_vim_Hwi_swiRestoreHwi__C)
                  00013ff0    00000004     mss_mmw_per4ft.oer4ft (.const:ti_sysbios_family_arm_v7r_vim_Hwi_taskDisable__C)
                  00013ff4    00000004     mss_mmw_per4ft.oer4ft (.const:ti_sysbios_family_arm_v7r_vim_Hwi_taskRestoreHwi__C)
                  00013ff8    00000004     mss_mmw_per4ft.oer4ft (.const:ti_sysbios_family_arm_v7r_vim_Hwi_wakeEnaSet__C)
                  00013ffc    00000004     mss_mmw_per4ft.oer4ft (.const:ti_sysbios_gates_GateMutex_A_badContext__C)
                  00014000    00000004     mss_mmw_per4ft.oer4ft (.const:ti_sysbios_gates_GateMutex_Instance_State_sem__O)
                  00014004    00000004     mss_mmw_per4ft.oer4ft (.const:ti_sysbios_gates_GateMutex_Module__diagsEnabled__C)
                  00014008    00000004     mss_mmw_per4ft.oer4ft (.const:ti_sysbios_gates_GateMutex_Module__diagsIncluded__C)
                  0001400c    00000004     mss_mmw_per4ft.oer4ft (.const:ti_sysbios_gates_GateMutex_Module__diagsMask__C)
                  00014010    00000004     mss_mmw_per4ft.oer4ft (.const:ti_sysbios_hal_Hwi_E_stackOverflow__C)
                  00014014    00000004     mss_mmw_per4ft.oer4ft (.const:ti_sysbios_heaps_HeapBuf_Instance_State_freeList__O)
                  00014018    00000004     mss_mmw_per4ft.oer4ft (.const:ti_sysbios_heaps_HeapBuf_Object__count__C)
                  0001401c    00000004     mss_mmw_per4ft.oer4ft (.const:ti_sysbios_heaps_HeapBuf_numConstructedHeaps__C)
                  00014020    00000004     mss_mmw_per4ft.oer4ft (.const:ti_sysbios_heaps_HeapMem_A_align__C)
                  00014024    00000004     mss_mmw_per4ft.oer4ft (.const:ti_sysbios_heaps_HeapMem_A_heapSize__C)
                  00014028    00000004     mss_mmw_per4ft.oer4ft (.const:ti_sysbios_heaps_HeapMem_A_invalidFree__C)
                  0001402c    00000004     mss_mmw_per4ft.oer4ft (.const:ti_sysbios_heaps_HeapMem_A_zeroBlock__C)
                  00014030    00000004     mss_mmw_per4ft.oer4ft (.const:ti_sysbios_heaps_HeapMem_E_memory__C)
                  00014034    00000004     mss_mmw_per4ft.oer4ft (.const:ti_sysbios_heaps_HeapMem_Module__diagsEnabled__C)
                  00014038    00000004     mss_mmw_per4ft.oer4ft (.const:ti_sysbios_heaps_HeapMem_Module__diagsIncluded__C)
                  0001403c    00000004     mss_mmw_per4ft.oer4ft (.const:ti_sysbios_heaps_HeapMem_Module__diagsMask__C)
                  00014040    00000004     mss_mmw_per4ft.oer4ft (.const:ti_sysbios_heaps_HeapMem_Module__gateObj__C)
                  00014044    00000004     mss_mmw_per4ft.oer4ft (.const:ti_sysbios_heaps_HeapMem_Object__count__C)
                  00014048    00000004     mss_mmw_per4ft.oer4ft (.const:ti_sysbios_heaps_HeapMem_reqAlign__C)
                  0001404c    00000004     mss_mmw_per4ft.oer4ft (.const:ti_sysbios_knl_Clock_LM_begin__C)
                  00014050    00000004     mss_mmw_per4ft.oer4ft (.const:ti_sysbios_knl_Clock_LM_tick__C)
                  00014054    00000004     mss_mmw_per4ft.oer4ft (.const:ti_sysbios_knl_Clock_LW_delayed__C)
                  00014058    00000004     mss_mmw_per4ft.oer4ft (.const:ti_sysbios_knl_Clock_Module_State_clockQ__O)
                  0001405c    00000004     mss_mmw_per4ft.oer4ft (.const:ti_sysbios_knl_Clock_Module__diagsEnabled__C)
                  00014060    00000004     mss_mmw_per4ft.oer4ft (.const:ti_sysbios_knl_Clock_Module__diagsIncluded__C)
                  00014064    00000004     mss_mmw_per4ft.oer4ft (.const:ti_sysbios_knl_Clock_Module__diagsMask__C)
                  00014068    00000004     mss_mmw_per4ft.oer4ft (.const:ti_sysbios_knl_Clock_Module__loggerFxn1__C)
                  0001406c    00000004     mss_mmw_per4ft.oer4ft (.const:ti_sysbios_knl_Clock_Module__loggerFxn2__C)
                  00014070    00000004     mss_mmw_per4ft.oer4ft (.const:ti_sysbios_knl_Clock_Module__loggerObj__C)
                  00014074    00000004     mss_mmw_per4ft.oer4ft (.const:ti_sysbios_knl_Event_A_badContext__C)
                  00014078    00000004     mss_mmw_per4ft.oer4ft (.const:ti_sysbios_knl_Event_A_eventInUse__C)
                  0001407c    00000004     mss_mmw_per4ft.oer4ft (.const:ti_sysbios_knl_Event_A_nullEventId__C)
                  00014080    00000004     mss_mmw_per4ft.oer4ft (.const:ti_sysbios_knl_Event_A_nullEventMasks__C)
                  00014084    00000004     mss_mmw_per4ft.oer4ft (.const:ti_sysbios_knl_Event_A_pendTaskDisabled__C)
                  00014088    00000004     mss_mmw_per4ft.oer4ft (.const:ti_sysbios_knl_Event_Instance_State_pendQ__O)
                  0001408c    00000004     mss_mmw_per4ft.oer4ft (.const:ti_sysbios_knl_Event_LM_pend__C)
                  00014090    00000004     mss_mmw_per4ft.oer4ft (.const:ti_sysbios_knl_Event_LM_post__C)
                  00014094    00000004     mss_mmw_per4ft.oer4ft (.const:ti_sysbios_knl_Event_Module__diagsEnabled__C)
                  00014098    00000004     mss_mmw_per4ft.oer4ft (.const:ti_sysbios_knl_Event_Module__diagsIncluded__C)
                  0001409c    00000004     mss_mmw_per4ft.oer4ft (.const:ti_sysbios_knl_Event_Module__diagsMask__C)
                  000140a0    00000004     mss_mmw_per4ft.oer4ft (.const:ti_sysbios_knl_Event_Module__loggerFxn4__C)
                  000140a4    00000004     mss_mmw_per4ft.oer4ft (.const:ti_sysbios_knl_Event_Module__loggerFxn8__C)
                  000140a8    00000004     mss_mmw_per4ft.oer4ft (.const:ti_sysbios_knl_Event_Module__loggerObj__C)
                  000140ac    00000004     mss_mmw_per4ft.oer4ft (.const:ti_sysbios_knl_Idle_funcList__A)
                  000140b0    00000004     mss_mmw_per4ft.oer4ft (.const:ti_sysbios_knl_Semaphore_A_badContext__C)
                  000140b4    00000004     mss_mmw_per4ft.oer4ft (.const:ti_sysbios_knl_Semaphore_A_noEvents__C)
                  000140b8    00000004     mss_mmw_per4ft.oer4ft (.const:ti_sysbios_knl_Semaphore_A_overflow__C)
                  000140bc    00000004     mss_mmw_per4ft.oer4ft (.const:ti_sysbios_knl_Semaphore_A_pendTaskDisabled__C)
                  000140c0    00000004     mss_mmw_per4ft.oer4ft (.const:ti_sysbios_knl_Semaphore_Instance_State_pendQ__O)
                  000140c4    00000004     mss_mmw_per4ft.oer4ft (.const:ti_sysbios_knl_Semaphore_LM_pend__C)
                  000140c8    00000004     mss_mmw_per4ft.oer4ft (.const:ti_sysbios_knl_Semaphore_LM_post__C)
                  000140cc    00000004     mss_mmw_per4ft.oer4ft (.const:ti_sysbios_knl_Semaphore_Module__diagsEnabled__C)
                  000140d0    00000004     mss_mmw_per4ft.oer4ft (.const:ti_sysbios_knl_Semaphore_Module__diagsIncluded__C)
                  000140d4    00000004     mss_mmw_per4ft.oer4ft (.const:ti_sysbios_knl_Semaphore_Module__diagsMask__C)
                  000140d8    00000004     mss_mmw_per4ft.oer4ft (.const:ti_sysbios_knl_Semaphore_Module__loggerFxn2__C)
                  000140dc    00000004     mss_mmw_per4ft.oer4ft (.const:ti_sysbios_knl_Semaphore_Module__loggerFxn4__C)
                  000140e0    00000004     mss_mmw_per4ft.oer4ft (.const:ti_sysbios_knl_Semaphore_Module__loggerObj__C)
                  000140e4    00000004     mss_mmw_per4ft.oer4ft (.const:ti_sysbios_knl_Swi_LD_end__C)
                  000140e8    00000004     mss_mmw_per4ft.oer4ft (.const:ti_sysbios_knl_Swi_LM_begin__C)
                  000140ec    00000004     mss_mmw_per4ft.oer4ft (.const:ti_sysbios_knl_Swi_LM_post__C)
                  000140f0    00000004     mss_mmw_per4ft.oer4ft (.const:ti_sysbios_knl_Swi_Module__diagsEnabled__C)
                  000140f4    00000004     mss_mmw_per4ft.oer4ft (.const:ti_sysbios_knl_Swi_Module__diagsIncluded__C)
                  000140f8    00000004     mss_mmw_per4ft.oer4ft (.const:ti_sysbios_knl_Swi_Module__diagsMask__C)
                  000140fc    00000004     mss_mmw_per4ft.oer4ft (.const:ti_sysbios_knl_Swi_Module__loggerFxn1__C)
                  00014100    00000004     mss_mmw_per4ft.oer4ft (.const:ti_sysbios_knl_Swi_Module__loggerFxn4__C)
                  00014104    00000004     mss_mmw_per4ft.oer4ft (.const:ti_sysbios_knl_Swi_Module__loggerObj__C)
                  00014108    00000004     mss_mmw_per4ft.oer4ft (.const:ti_sysbios_knl_Swi_Object__count__C)
                  0001410c    00000004     mss_mmw_per4ft.oer4ft (.const:ti_sysbios_knl_Task_A_badPriority__C)
                  00014110    00000004     mss_mmw_per4ft.oer4ft (.const:ti_sysbios_knl_Task_A_badTaskState__C)
                  00014114    00000004     mss_mmw_per4ft.oer4ft (.const:ti_sysbios_knl_Task_A_badThreadType__C)
                  00014118    00000004     mss_mmw_per4ft.oer4ft (.const:ti_sysbios_knl_Task_A_badTimeout__C)
                  0001411c    00000004     mss_mmw_per4ft.oer4ft (.const:ti_sysbios_knl_Task_A_noPendElem__C)
                  00014120    00000004     mss_mmw_per4ft.oer4ft (.const:ti_sysbios_knl_Task_A_sleepTaskDisabled__C)
                  00014124    00000004     mss_mmw_per4ft.oer4ft (.const:ti_sysbios_knl_Task_E_spOutOfBounds__C)
                  00014128    00000004     mss_mmw_per4ft.oer4ft (.const:ti_sysbios_knl_Task_E_stackOverflow__C)
                  0001412c    00000004     mss_mmw_per4ft.oer4ft (.const:ti_sysbios_knl_Task_LD_block__C)
                  00014130    00000004     mss_mmw_per4ft.oer4ft (.const:ti_sysbios_knl_Task_LD_exit__C)
                  00014134    00000004     mss_mmw_per4ft.oer4ft (.const:ti_sysbios_knl_Task_LD_ready__C)
                  00014138    00000004     mss_mmw_per4ft.oer4ft (.const:ti_sysbios_knl_Task_LM_sleep__C)
                  0001413c    00000004     mss_mmw_per4ft.oer4ft (.const:ti_sysbios_knl_Task_LM_switch__C)
                  00014140    00000004     mss_mmw_per4ft.oer4ft (.const:ti_sysbios_knl_Task_Module_State_inactiveQ__O)
                  00014144    00000004     mss_mmw_per4ft.oer4ft (.const:ti_sysbios_knl_Task_Module__diagsEnabled__C)
                  00014148    00000004     mss_mmw_per4ft.oer4ft (.const:ti_sysbios_knl_Task_Module__diagsIncluded__C)
                  0001414c    00000004     mss_mmw_per4ft.oer4ft (.const:ti_sysbios_knl_Task_Module__diagsMask__C)
                  00014150    00000004     mss_mmw_per4ft.oer4ft (.const:ti_sysbios_knl_Task_Module__loggerFxn2__C)
                  00014154    00000004     mss_mmw_per4ft.oer4ft (.const:ti_sysbios_knl_Task_Module__loggerFxn4__C)
                  00014158    00000004     mss_mmw_per4ft.oer4ft (.const:ti_sysbios_knl_Task_Module__loggerObj__C)
                  0001415c    00000004     mss_mmw_per4ft.oer4ft (.const:ti_sysbios_knl_Task_Object__count__C)
                  00014160    00000004     mss_mmw_per4ft.oer4ft (.const:ti_sysbios_knl_Task_allBlockedFunc__C)
                  00014164    00000004     mss_mmw_per4ft.oer4ft (.const:ti_sysbios_knl_Task_defaultStackHeap__C)
                  00014168    00000004     mss_mmw_per4ft.oer4ft (.const:ti_sysbios_knl_Task_defaultStackSize__C)
                  0001416c    00000004     mss_mmw_per4ft.oer4ft (.const:ti_sysbios_knl_Task_numConstructedTasks__C)
                  00014170    00000004     mss_mmw_per4ft.oer4ft (.const:ti_sysbios_timers_rti_Timer_E_cannotSupport__C)
                  00014174    00000004     mss_mmw_per4ft.oer4ft (.const:ti_sysbios_timers_rti_Timer_Module__diagsEnabled__C)
                  00014178    00000004     mss_mmw_per4ft.oer4ft (.const:ti_sysbios_timers_rti_Timer_Module__diagsIncluded__C)
                  0001417c    00000004     mss_mmw_per4ft.oer4ft (.const:ti_sysbios_timers_rti_Timer_Module__diagsMask__C)
                  00014180    00000004     mss_mmw_per4ft.oer4ft (.const:ti_sysbios_timers_rti_Timer_numTimerDevices__C)
                  00014184    00000004     mss_mmw_per4ft.oer4ft (.const:ti_sysbios_timers_rti_Timer_startupNeeded__C)
                  00014188    00000004     mss_mmw_per4ft.oer4ft (.const:xdc_runtime_Assert_E_assertFailed__C)
                  0001418c    00000004     mss_mmw_per4ft.oer4ft (.const:xdc_runtime_Core_A_initializedParams__C)
                  00014190    00000004     mss_mmw_per4ft.oer4ft (.const:xdc_runtime_Core_Module__diagsEnabled__C)
                  00014194    00000004     mss_mmw_per4ft.oer4ft (.const:xdc_runtime_Core_Module__diagsIncluded__C)
                  00014198    00000004     mss_mmw_per4ft.oer4ft (.const:xdc_runtime_Core_Module__diagsMask__C)
                  0001419c    00000004     mss_mmw_per4ft.oer4ft (.const:xdc_runtime_Error_E_memory__C)
                  000141a0    00000004     mss_mmw_per4ft.oer4ft (.const:xdc_runtime_Error_Module__diagsEnabled__C)
                  000141a4    00000004     mss_mmw_per4ft.oer4ft (.const:xdc_runtime_Error_Module__diagsIncluded__C)
                  000141a8    00000004     mss_mmw_per4ft.oer4ft (.const:xdc_runtime_Error_Module__diagsMask__C)
                  000141ac    00000004     mss_mmw_per4ft.oer4ft (.const:xdc_runtime_Error_Module__loggerFxn8__C)
                  000141b0    00000004     mss_mmw_per4ft.oer4ft (.const:xdc_runtime_Error_Module__loggerObj__C)
                  000141b4    00000004     mss_mmw_per4ft.oer4ft (.const:xdc_runtime_Error_policyFxn__C)
                  000141b8    00000004     mss_mmw_per4ft.oer4ft (.const:xdc_runtime_Error_policy__C)
                  000141bc    00000004     mss_mmw_per4ft.oer4ft (.const:xdc_runtime_Error_raiseHook__C)
                  000141c0    00000004     mss_mmw_per4ft.oer4ft (.const:xdc_runtime_IGateProvider_Interface__BASE__C)
                  000141c4    00000004     mss_mmw_per4ft.oer4ft (.const:xdc_runtime_IHeap_Interface__BASE__C)
                  000141c8    00000004     mss_mmw_per4ft.oer4ft (.const:xdc_runtime_IModule_Interface__BASE__C)
                  000141cc    00000004     mss_mmw_per4ft.oer4ft (.const:xdc_runtime_Log_L_error__C)
                  000141d0    00000004     mss_mmw_per4ft.oer4ft (.const:xdc_runtime_Memory_defaultHeapInstance__C)
                  000141d4    00000004     mss_mmw_per4ft.oer4ft (.const:xdc_runtime_Startup_execImpl__C)
                  000141d8    00000004     mss_mmw_per4ft.oer4ft (.const:xdc_runtime_Startup_maxPasses__C)
                  000141dc    00000004     mss_mmw_per4ft.oer4ft (.const:xdc_runtime_Startup_sfxnRts__C)
                  000141e0    00000004     mss_mmw_per4ft.oer4ft (.const:xdc_runtime_Startup_sfxnTab__C)
                  000141e4    00000004     mss_mmw_per4ft.oer4ft (.const:xdc_runtime_System_Module__gateObj__C)
                  000141e8    00000004     mss_mmw_per4ft.oer4ft (.const:xdc_runtime_System_abortFxn__C)
                  000141ec    00000004     mss_mmw_per4ft.oer4ft (.const:xdc_runtime_System_exitFxn__C)
                  000141f0    00000004     mss_mmw_per4ft.oer4ft (.const:xdc_runtime_System_extendFxn__C)
                  000141f4    00000004     mss_mmw_per4ft.oer4ft (.const:xdc_runtime_System_maxAtexitHandlers__C)
                  000141f8    00000004     mss_mmw_per4ft.oer4ft (.const:xdc_runtime_Text_charTab__C)
                  000141fc    00000004     mss_mmw_per4ft.oer4ft (.const:xdc_runtime_Text_nameEmpty__C)
                  00014200    00000004     mss_mmw_per4ft.oer4ft (.const:xdc_runtime_Text_nameStatic__C)
                  00014204    00000004     mss_mmw_per4ft.oer4ft (.const:xdc_runtime_Text_nameUnknown__C)
                  00014208    00000004     mss_mmw_per4ft.oer4ft (.const:xdc_runtime_Text_nodeTab__C)
                  0001420c    00000004     mss_mmw_per4ft.oer4ft (.const:xdc_runtime_Text_visitRopeFxn__C)
                  00014210    00000002     mss_mmw_per4ft.oer4ft (.const:ti_sysbios_family_arm_v7r_tms570_Core_Module__id__C)
                  00014212    00000002     mss_mmw_per4ft.oer4ft (.const:ti_sysbios_family_arm_v7r_vim_Hwi_Module__id__C)
                  00014214    00000002     mss_mmw_per4ft.oer4ft (.const:ti_sysbios_family_arm_v7r_vim_Hwi_Module__loggerDefined__C)
                  00014216    00000002     mss_mmw_per4ft.oer4ft (.const:ti_sysbios_gates_GateMutex_Module__id__C)
                  00014218    00000002     mss_mmw_per4ft.oer4ft (.const:ti_sysbios_hal_Hwi_Module__id__C)
                  0001421a    00000002     mss_mmw_per4ft.oer4ft (.const:ti_sysbios_heaps_HeapMem_Module__id__C)
                  0001421c    00000002     mss_mmw_per4ft.oer4ft (.const:ti_sysbios_knl_Clock_Module__id__C)
                  0001421e    00000002     mss_mmw_per4ft.oer4ft (.const:ti_sysbios_knl_Clock_Module__loggerDefined__C)
                  00014220    00000002     mss_mmw_per4ft.oer4ft (.const:ti_sysbios_knl_Event_Module__id__C)
                  00014222    00000002     mss_mmw_per4ft.oer4ft (.const:ti_sysbios_knl_Event_Module__loggerDefined__C)
                  00014224    00000002     mss_mmw_per4ft.oer4ft (.const:ti_sysbios_knl_Semaphore_Module__id__C)
                  00014226    00000002     mss_mmw_per4ft.oer4ft (.const:ti_sysbios_knl_Semaphore_Module__loggerDefined__C)
                  00014228    00000002     mss_mmw_per4ft.oer4ft (.const:ti_sysbios_knl_Swi_Module__id__C)
                  0001422a    00000002     mss_mmw_per4ft.oer4ft (.const:ti_sysbios_knl_Swi_Module__loggerDefined__C)
                  0001422c    00000002     mss_mmw_per4ft.oer4ft (.const:ti_sysbios_knl_Task_Module__id__C)
                  0001422e    00000002     mss_mmw_per4ft.oer4ft (.const:ti_sysbios_knl_Task_Module__loggerDefined__C)
                  00014230    00000002     mss_mmw_per4ft.oer4ft (.const:ti_sysbios_timers_rti_Timer_Module__id__C)
                  00014232    00000002     mss_mmw_per4ft.oer4ft (.const:ti_sysbios_timers_rti_Timer_continueOnSuspend__C)
                  00014234    00000002     mss_mmw_per4ft.oer4ft (.const:xdc_runtime_Core_Module__id__C)
                  00014236    00000002     mss_mmw_per4ft.oer4ft (.const:xdc_runtime_Error_Module__loggerDefined__C)
                  00014238    00000002     mss_mmw_per4ft.oer4ft (.const:xdc_runtime_Error_maxDepth__C)
                  0001423a    00000002     mss_mmw_per4ft.oer4ft (.const:xdc_runtime_Main_Module__id__C)
                  0001423c    00000002     mss_mmw_per4ft.oer4ft (.const:xdc_runtime_Memory_Module__id__C)
                  0001423e    00000002     mss_mmw_per4ft.oer4ft (.const:xdc_runtime_Text_charCnt__C)
                  00014240    00000002     mss_mmw_per4ft.oer4ft (.const:xdc_runtime_Text_isLoaded__C)
                  00014242    00000002     mss_mmw_per4ft.oer4ft (.const:xdc_runtime_Text_registryModsLastId__C)
                  00014244    00000002     mss_mmw_per4ft.oer4ft (.const:xdc_runtime_Text_unnamedModsLastId__C)

.cinit     0    00014248    00000440     
                  00014248    000003ea     (.cinit..data.load) [load image, compression = lzss]
                  00014632    00000002     --HOLE-- [fill = 0]
                  00014634    0000000c     (__TI_handler_table)
                  00014640    00000008     (.cinit..bss.load) [load image, compression = zero_init]
                  00014648    00000008     (.cinit..l2data.load) [load image, compression = zero_init]
                  00014650    00000008     (.cinit..myFiqStack.load) [load image, compression = zero_init]
                  00014658    00000008     (.cinit.systemHeap.load) [load image, compression = zero_init]
                  00014660    00000028     (__TI_cinit_table)

.l2data    0    08000000    00014100     UNINITIALIZED
                  08000000    00014100     mss_main.oer4f (.l2data)

systemHeap 
*          0    08014100    00010000     UNINITIALIZED
                  08014100    00010000     mss_mmw_per4ft.oer4ft (systemHeap)

.bss       0    08024100    00003f38     UNINITIALIZED
                  08024100    000021e0     (.common:gMmwMssMCB)
                  080262e0    00001000     (.common:ti_sysbios_family_arm_exc_Exception_Module_State_0_excStack_0__A)
                  080272e0    00000800     mss_mmw_per4ft.oer4ft (.bss:taskStackSection)
                  08027ae0    000001a8     (.common:gCLI)
                  08027c88    00000120     rtsv7R4_T_le_v3D16_eabi.lib : trgmsg.obj (.bss:_CIOBUF_)
                  08027da8    00000100     (.common:gMMWave_MCB)
                  08027ea8    000000a0     (.common:__TI_tmpnams)
                  08027f48    00000070     (.common:gEsmMCB)
                  08027fb8    00000070     (.common:gRadarOsal_heapObj)
                  08028028    00000008     (.common:gMMWave_DualcoreMCB)
                  08028030    00000008     (.common:parmbuf)

.data      0    08028038    00001130     UNINITIALIZED
                  08028038    000003e8     libmmwavelink_xwr68xx.aer4f : rl_driver.oer4f (.data:$O1$$)
                  08028420    00000368     libcli_xwr68xx.aer4f : cli_mmwave.oer4f (.data:$O1$$)
                  08028788    00000200     mss_mmw_per4ft.oer4ft (.data:ti_sysbios_family_arm_v7r_vim_Hwi_Module_State_0_dispatchTable__A)
                  08028988    000000f0     rtsv7R4_T_le_v3D16_eabi.lib : defs.obj (.data:_ftable)
                  08028a78    00000080     mss_mmw_per4ft.oer4ft (.data:ti_sysbios_knl_Swi_Module_State_0_readyQ__A)
                  08028af8    00000080     mss_mmw_per4ft.oer4ft (.data:ti_sysbios_knl_Task_Module_State_0_readyQ__A)
                  08028b78    00000078     rtsv7R4_T_le_v3D16_eabi.lib : write.obj (.data:_device)
                  08028bf0    0000005c     mss_mmw_per4ft.oer4ft (.data:ti_sysbios_knl_Task_Object__table__V)
                  08028c4c    00000058     libuart_xwr68xx.aer4f : uart_xwr68xx.oer4f (.data:gUartSciHwCfg)
                  08028ca4    00000050     rtsv7R4_T_le_v3D16_eabi.lib : write.obj (.data:_stream)
                  08028cf4    00000050     libmailbox_xwr68xx.aer4f : mailbox.oer4f (.data:gMailboxMCB)
                  08028d44    00000048     mss_mmw_per4ft.oer4ft (.data:ti_sysbios_knl_Task_Module__state__V)
                  08028d8c    00000040     libsoc_xwr68xx.aer4f : soc_xwr68xx.oer4f (.data:SOC_TranslateAddr_LUT)
                  08028dcc    00000040     mss_mmw_per4ft.oer4ft (.data:ti_sysbios_gates_GateMutex_Object__table__V)
                  08028e0c    0000003c     mss_mmw_per4ft.oer4ft (.data:ti_sysbios_timers_rti_Timer_Object__table__V)
                  08028e48    00000034     mss_mmw_per4ft.oer4ft (.data:ti_sysbios_family_arm_v7r_vim_Hwi_Module__state__V)
                  08028e7c    00000030     mss_mmw_per4ft.oer4ft (.data:ti_sysbios_knl_Swi_Object__table__V)
                  08028eac    0000002c     mss_mmw_per4ft.oer4ft (.data:ti_sysbios_family_arm_v7r_vim_Hwi_Object__table__V)
                  08028ed8    0000002c     mss_mmw_per4ft.oer4ft (.data:ti_sysbios_knl_Clock_Module__state__V)
                  08028f04    00000028     libuart_xwr68xx.aer4f : uartsci.oer4f (.data:gUartSciFxnTable)
                  08028f2c    00000024                           : uart_xwr68xx.oer4f (.data:UART_config)
                  08028f50    00000024     mss_mmw_per4ft.oer4ft (.data:ti_sysbios_BIOS_Module__state__V)
                  08028f74    00000004     libcrc_xwr68xx.aer4f : crc_xwr68xx.oer4f (.data)
                  08028f78    00000020     libsoc_xwr68xx.aer4f : soc_xwr68xx_mss.oer4f (.data:gSOCHwAttrib)
                  08028f98    00000020     mss_mmw_per4ft.oer4ft (.data:xdc_runtime_Error_IgnoreBlock)
                  08028fb8    00000020     mss_mmw_per4ft.oer4ft (.data:xdc_runtime_System_Module_State_0_atexitHandlers__A)
                  08028fd8    0000001c     mss_mmw_per4ft.oer4ft (.data:ti_sysbios_knl_Swi_Module__state__V)
                  08028ff4    00000018     libmailbox_xwr68xx.aer4f : mailbox_xwr68xx.oer4f (.data:gMailboxMssBssHwCfg)
                  0802900c    00000018                              : mailbox_xwr68xx.oer4f (.data:gMailboxMssDssHwCfg)
                  08029024    00000018     mss_mmw_per4ft.oer4ft (.data:ti_sysbios_heaps_HeapMem_Object__table__V)
                  0802903c    00000018     mss_mmw_per4ft.oer4ft (.data:ti_sysbios_timers_rti_Timer_Module_State_0_device__A)
                  08029054    00000014     mss_mmw_per4ft.oer4ft (.data:ti_sysbios_family_arm_exc_Exception_Module__state__V)
                  08029068    00000010     rtsv7R4_T_le_v3D16_eabi.lib : defs.obj (.data)
                  08029078    00000010     mss_mmw_per4ft.oer4ft (.data:ti_sysbios_timers_rti_Timer_Module_State_0_intFreqs__A)
                  08029088    00000010     mss_mmw_per4ft.oer4ft (.data:ti_sysbios_timers_rti_Timer_Module__state__V)
                  08029098    0000000c     rtsv7R4_T_le_v3D16_eabi.lib : exit.obj (.data:$O1$$)
                  080290a4    0000000c     libesm_xwr68xx.aer4f : esm_xwr1xxx.oer4f (.data:gESMHwCfgAttrs)
                  080290b0    0000000c     mss_mmw_per4ft.oer4ft (.data:ti_sysbios_family_arm_v7a_Pmu_Module__state__V)
                  080290bc    00000008     rtsv7R4_T_le_v3D16_eabi.lib : _lock.obj (.data:$O1$$)
                  080290c4    00000008     mss_mmw_per4ft.oer4ft (.data:ti_sysbios_family_arm_v7r_vim_Hwi_Module__root__V)
                  080290cc    00000008     mss_mmw_per4ft.oer4ft (.data:ti_sysbios_gates_GateHwi_Module__root__V)
                  080290d4    00000008     mss_mmw_per4ft.oer4ft (.data:ti_sysbios_gates_GateMutex_Module__root__V)
                  080290dc    00000008     mss_mmw_per4ft.oer4ft (.data:ti_sysbios_hal_Hwi_Object__table__V)
                  080290e4    00000008     mss_mmw_per4ft.oer4ft (.data:ti_sysbios_heaps_HeapMem_Module__root__V)
                  080290ec    00000008     mss_mmw_per4ft.oer4ft (.data:ti_sysbios_knl_Event_Module__root__V)
                  080290f4    00000008     mss_mmw_per4ft.oer4ft (.data:ti_sysbios_knl_Queue_Module__root__V)
                  080290fc    00000008     mss_mmw_per4ft.oer4ft (.data:ti_sysbios_knl_Semaphore_Module__root__V)
                  08029104    00000008     mss_mmw_per4ft.oer4ft (.data:ti_sysbios_knl_Task_Module__root__V)
                  0802910c    00000008     mss_mmw_per4ft.oer4ft (.data:ti_sysbios_timers_rti_Timer_Module_State_0_handles__A)
                  08029114    00000008     mss_mmw_per4ft.oer4ft (.data:xdc_runtime_Registry_Module__state__V)
                  0802911c    00000008     mss_mmw_per4ft.oer4ft (.data:xdc_runtime_Startup_Module__state__V)
                  08029124    00000008     mss_mmw_per4ft.oer4ft (.data:xdc_runtime_System_Module__state__V)
                  0802912c    00000004     libpinmux_xwr68xx.aer4f : pinmux_xwr1xxx.oer4f (.data)
                  08029130    00000004     libuart_xwr68xx.aer4f : UART.oer4f (.data)
                  08029134    00000004     rtsv7R4_T_le_v3D16_eabi.lib : errno.obj (.data)
                  08029138    00000004                                 : fopen.obj (.data)
                  0802913c    00000004                                 : open.obj (.data)
                  08029140    00000004                                 : stkdepth_vars.obj (.data)
                  08029144    00000004                                 : strtok.obj (.data)
                  08029148    00000004     mss_mmw_per4ft.oer4ft (.data:ti_sysbios_family_arm_exc_Exception_Module_State_0_excContext__A)
                  0802914c    00000004     mss_mmw_per4ft.oer4ft (.data:ti_sysbios_family_arm_exc_Exception_Module_State_0_excStackBuffers__A)
                  08029150    00000004     mss_mmw_per4ft.oer4ft (.data:ti_sysbios_family_arm_exc_Exception_Module_State_0_excStack__A)
                  08029154    00000004     mss_mmw_per4ft.oer4ft (.data:ti_sysbios_gates_GateHwi_Object__table__V)
                  08029158    00000004     mss_mmw_per4ft.oer4ft (.data:ti_sysbios_heaps_HeapBuf_Module__state__V)
                  0802915c    00000004     mss_mmw_per4ft.oer4ft (.data:ti_sysbios_knl_Task_Module_State_0_idleTask__A)
                  08029160    00000004     mss_mmw_per4ft.oer4ft (.data:xdc_runtime_Memory_Module__state__V)
                  08029164    00000002     mss_mmw_per4ft.oer4ft (.data:ti_sysbios_family_arm_exc_Exception_Module_State_0_excActive__A)
                  08029166    00000002     mss_mmw_per4ft.oer4ft (.data:xdc_runtime_Error_Module__state__V)

.myFiqStack 
*          0    08029168    00001000     UNINITIALIZED
                  08029168    00001000     mss_mmw_per4ft.oer4ft (.myFiqStack)

.stack     0    0802a168    00001000     UNINITIALIZED
                  0802a168    00001000     --HOLE--

xdc.meta   0    00000000    000000f1     COPY SECTION
                  00000000    000000f1     mss_mmw_per4ft.oer4ft (xdc.meta)

MODULE SUMMARY

       Module                          code    ro data   rw data
       ------                          ----    -------   -------
    .\mss\
       mss_main.oer4f                  3616    0         90848  
       cli.oer4f                       2104    0         0      
    +--+-------------------------------+-------+---------+---------+
       Total:                          5720    0         90848  
                                                                
    .\utils\
       radarOsal_malloc.oer4f          268     0         112    
    +--+-------------------------------+-------+---------+---------+
       Total:                          268     0         112    
                                                                
    C:\Users\a0227075\newVerify\high_accuracy_68xx_mss\Debug\configPkg\package\cfg\
       mss_mmw_per4ft.oer4ft           1798    9035      77396  
    +--+-------------------------------+-------+---------+---------+
       Total:                          1798    9035      77396  
                                                                
    C:/ti/mmwave_sdk_03_05_00_04/packages/ti/control/mmwave/lib/libmmwave_xwr68xx.aer4f
       mmwave_link.oer4f               2612    0         0      
       mmwave_dualcore.oer4f           2108    0         8      
       mmwave_fullcfg.oer4f            2002    0         0      
       mmwave.oer4f                    954     0         256    
       mmwave_osal.oer4f               200     0         0      
       mmwave_listlib.oer4f            142     0         0      
    +--+-------------------------------+-------+---------+---------+
       Total:                          8018    0         264    
                                                                
    C:/ti/mmwave_sdk_03_05_00_04/packages/ti/control/mmwavelink/lib/libmmwavelink_xwr68xx.aer4f
       rl_driver.oer4f                 4458    136       1000   
       rl_sensor.oer4f                 1954    696       0      
       rl_device.oer4f                 424     0         0      
       rl_controller.oer4f             152     0         0      
    +--+-------------------------------+-------+---------+---------+
       Total:                          6988    832       1000   
                                                                
    C:/ti/mmwave_sdk_03_05_00_04/packages/ti/drivers/crc/lib/libcrc_xwr68xx.aer4f
       crc.oer4f                       1256    0         0      
       crc_xwr68xx.oer4f               0       0         4      
    +--+-------------------------------+-------+---------+---------+
       Total:                          1256    0         4      
                                                                
    C:/ti/mmwave_sdk_03_05_00_04/packages/ti/drivers/dma/lib/libdma_xwr68xx.aer4f
       dma.oer4f                       1978    0         0      
    +--+-------------------------------+-------+---------+---------+
       Total:                          1978    0         0      
                                                                
    C:/ti/mmwave_sdk_03_05_00_04/packages/ti/drivers/esm/lib/libesm_xwr68xx.aer4f
       esm.oer4f                       456     0         112    
       esm_xwr1xxx.oer4f               0       0         12     
    +--+-------------------------------+-------+---------+---------+
       Total:                          456     0         124    
                                                                
    C:/ti/mmwave_sdk_03_05_00_04/packages/ti/drivers/mailbox/lib/libmailbox_xwr68xx.aer4f
       mailbox.oer4f                   1916    36        80     
       mailbox_xwr68xx.oer4f           0       0         48     
    +--+-------------------------------+-------+---------+---------+
       Total:                          1916    36        128    
                                                                
    C:/ti/mmwave_sdk_03_05_00_04/packages/ti/drivers/osal/lib/libosal_xwr68xx.aer4f
       HwiP_tirtos.oer4f               222     0         0      
       SemaphoreP_tirtos.oer4f         150     0         0      
       MemoryP_tirtos.oer4f            28      0         0      
       CycleprofilerP_tirtos.oer4f     26      0         0      
       DebugP_tirtos.oer4f             20      0         0      
    +--+-------------------------------+-------+---------+---------+
       Total:                          446     0         0      
                                                                
    C:/ti/mmwave_sdk_03_05_00_04/packages/ti/drivers/pinmux/lib/libpinmux_xwr68xx.aer4f
       pinmux.oer4f                    390     0         0      
       pinmux_xwr1xxx.oer4f            0       0         4      
    +--+-------------------------------+-------+---------+---------+
       Total:                          390     0         4      
                                                                
    C:/ti/mmwave_sdk_03_05_00_04/packages/ti/drivers/soc/lib/libsoc_xwr68xx.aer4f
       soc_xwr68xx_mss.oer4f           1264    0         32     
       soc_xwr68xx.oer4f               606     0         64     
       soc.oer4f                       508     0         0      
       soc_mpu.o                       182     0         0      
    +--+-------------------------------+-------+---------+---------+
       Total:                          2560    0         96     
                                                                
    C:/ti/mmwave_sdk_03_05_00_04/packages/ti/drivers/uart/lib/libuart_xwr68xx.aer4f
       uartsci.oer4f                   2192    0         40     
       uartsci_dma.oer4f               642     0         0      
       UART.oer4f                      150     60        4      
       uart_xwr68xx.oer4f              0       0         124    
    +--+-------------------------------+-------+---------+---------+
       Total:                          2984    60        168    
                                                                
    C:/ti/mmwave_sdk_03_05_00_04/packages/ti/utils/cli/lib/libcli_xwr68xx.aer4f
       cli_mmwave.oer4f                4652    192       872    
       cli.oer4f                       820     4         424    
    +--+-------------------------------+-------+---------+---------+
       Total:                          5472    196       1296   
                                                                
    C:/ti/ti-cgt-arm_16.9.6.LTS/lib/rtsv7R4_T_le_v3D16_eabi.lib
       _printfi.obj                    4218    0         0      
       ull_div32.obj                   696     0         0      
       strtod.obj                      484     152       0      
       fopen.obj                       456     0         4      
       defs.obj                        0       0         416    
       trgmsg.obj                      108     0         288    
       fputs.obj                       312     0         0      
       ctype.obj                       0       257       0      
       write.obj                       40      0         200    
       s_scalbn.obj                    236     0         0      
       setvbuf.obj                     220     0         0      
       fflush.obj                      204     0         0      
       open.obj                        188     0         4      
       _io_perm.obj                    174     0         0      
       memcpy_t2.obj                   156     0         0      
       fclose.obj                      152     0         0      
       fputc.obj                       152     0         0      
       vsnprintf.obj                   136     0         0      
       memset_t2.obj                   122     0         0      
       getdevice.obj                   116     0         0      
       s_frexp.obj                     116     0         0      
       printf.obj                      112     0         0      
       copy_decompress_lzss.obj        108     0         0      
       hostlseek.obj                   104     0         0      
       hostrename.obj                  104     0         0      
       fseek.obj                       100     0         0      
       hostopen.obj                    92      0         8      
       sprintf.obj                     100     0         0      
       exit.obj                        80      0         12     
       hostread.obj                    92      0         0      
       close.obj                       88      0         0      
       hostwrite.obj                   88      0         0      
       ltoa.obj                        84      0         0      
       atoi.obj                        80      0         0      
       u_div32.obj                     80      0         0      
       cpy_tbl.obj                     76      0         0      
       hostclose.obj                   68      0         0      
       hostunlink.obj                  68      0         0      
       strtok.obj                      64      0         4      
       strncpy.obj                     54      0         0      
       unlink.obj                      44      0         0      
       strspn.obj                      42      0         0      
       lseek.obj                       40      0         0      
       strcspn.obj                     34      0         0      
       memchr.obj                      32      0         0      
       _lock.obj                       20      0         8      
       memccpy.obj                     28      0         0      
       s_copysign.obj                  26      0         0      
       args_main.obj                   24      0         0      
       strcmp.obj                      24      0         0      
       strchr.obj                      22      0         0      
       strlen.obj                      22      0         0      
       strcpy.obj                      20      0         0      
       copy_decompress_none.obj        14      0         0      
       copy_zero_init.obj              12      0         0      
       errno.obj                       0       0         4      
       stkdepth_vars.obj               0       0         4      
       i_div0.obj                      2       0         0      
    +--+-------------------------------+-------+---------+---------+
       Total:                          10334   409       952    
                                                                
    C:\Users\a0227075\newVerify\high_accuracy_68xx_mss\mss\src\sysbios\sysbios.aer4ft
       BIOS.obj                        19579   0         0      
       exc_Exception_asm.obj           308     0         0      
       vim_Hwi_asm.obj                 208     0         0      
       arm_TaskSupport_asm.obj         180     0         0      
       vim_Hwi_asm_switch.obj          152     0         0      
       arm_IntrinsicsSupport_asm.obj   12      0         0      
       tms570_Core_asm.obj             10      0         0      
    +--+-------------------------------+-------+---------+---------+
       Total:                          20449   0         0      
                                                                
    C:\ti\bios_6_73_01_01\packages\ti\targets\arm\rtsarm\lib\auto_init.aer4ft
       auto_init.oer4ft                160     0         0      
    +--+-------------------------------+-------+---------+---------+
       Total:                          160     0         0      
                                                                
    C:\ti\bios_6_73_01_01\packages\ti\targets\arm\rtsarm\lib\boot.aer4ft
       boot.oer4ft                     116     0         0      
    +--+-------------------------------+-------+---------+---------+
       Total:                          116     0         0      
                                                                
       Stack:                          0       0         4096   
       Linker Generated:               0       1086      0      
    +--+-------------------------------+-------+---------+---------+
       Grand Total:                    71309   11654     176488 


LINKER GENERATED COPY TABLES

__TI_cinit_table @ 00014660 records: 5, size/record: 8, table size: 40
	.data: load addr=00014248, load size=000003ea bytes, run addr=08028038, run size=00001130 bytes, compression=lzss
	.bss: load addr=00014640, load size=00000008 bytes, run addr=08024100, run size=00003f38 bytes, compression=zero_init
	.l2data: load addr=00014648, load size=00000008 bytes, run addr=08000000, run size=00014100 bytes, compression=zero_init
	.myFiqStack: load addr=00014650, load size=00000008 bytes, run addr=08029168, run size=00001000 bytes, compression=zero_init
	systemHeap: load addr=00014658, load size=00000008 bytes, run addr=08014100, run size=00010000 bytes, compression=zero_init


LINKER GENERATED HANDLER TABLE

__TI_handler_table @ 00014634 records: 3, size/record: 4, table size: 12
	index: 0, handler: __TI_zero_init
	index: 1, handler: __TI_decompress_lzss
	index: 2, handler: __TI_decompress_none


GLOBAL SYMBOLS: SORTED ALPHABETICALLY BY Name 

address   name                                                                 
-------   ----                                                                 
0000f3d5  C$$EXIT                                                              
0000e00b  C$$IO$$                                                              
0000e735  CLI_MMWaveExtensionHandler                                           
0000b2a9  CLI_MMWaveExtensionHelp                                              
0000ffc9  CLI_MMWaveExtensionInit                                              
00011695  CLI_getMMWaveExtensionConfig                                         
00011259  CLI_getMMWaveExtensionOpenConfig                                     
00009161  CLI_open                                                             
0000f4d1  CLI_write                                                            
000089c5  CRC_computeSignature                                                 
0000f245  CRC_getSignature                                                     
0000ef21  CRC_getTransactionId                                                 
00011629  CRC_initConfigParams                                                 
000045b9  CRC_open                                                             
0000117b  CycleprofilerP_getTimeStamp                                          
000114b7  CycleprofilerP_init                                                  
0000b749  DMA_assignChannel                                                    
000086c5  DMA_clearChannelInterruptFlag                                        
0000dd51  DMA_disableChannel                                                   
000081ad  DMA_disableInterrupt                                                 
0000ddbd  DMA_enableChannel                                                    
00009241  DMA_enableInterrupt                                                  
0000ef75  DMA_freeChannel                                                      
0000a985  DMA_getChannelInterruptFlag                                          
000047b9  DMA_setChannelParams                                                 
0000ec61  ESM_highpriority_FIQ                                                 
0000b7ed  ESM_init                                                             
00010d6d  ESM_lowpriority_IRQ                                                  
0000b151  ESM_processInterrupt                                                 
0000f931  HOSTclose                                                            
0000e251  HOSTlseek                                                            
0000eaf5  HOSTopen                                                             
0000eb51  HOSTread                                                             
0000e2b9  HOSTrename                                                           
0000f975  HOSTunlink                                                           
0000ee19  HOSTwrite                                                            
000114cb  HwiP_Params_init                                                     
0000d401  HwiP_create                                                          
0000ff8d  HwiP_delete                                                          
000028a9  HwiP_disable                                                         
00001e8d  HwiP_disableInterrupt                                                
00009d19  HwiP_restore                                                         
0000b891  MMWave_addBpmChirp                                                   
00009ded  MMWave_addChirp                                                      
0000ae89  MMWave_addProfile                                                    
0000d859  MMWave_config                                                        
00009eb5  MMWave_configBPM                                                     
0000bc71  MMWave_configLink                                                    
00002e79  MMWave_decodeErrorLevel                                              
0000ceed  MMWave_deviceCfgAsyncEvent                                           
0000db85  MMWave_deviceCfgFxn                                                  
0000cf71  MMWave_deviceEventFxn                                                
00003125  MMWave_deviceExecuteFxn                                              
0001163b  MMWave_deviceGetDeviceInfo                                           
00007f95  MMWave_deviceInitFxn                                                 
0000d481  MMWave_deviceOpenFxn                                                 
0000d8cd  MMWave_deviceStartFxn                                                
0000e0b1  MMWave_deviceStopFxn                                                 
00011139  MMWave_deviceSyncFxn                                                 
00011153  MMWave_encodeError                                                   
0000ecb9  MMWave_execute                                                       
0000faa5  MMWave_executeLink                                                   
00009f7d  MMWave_flushCfg                                                      
0000d17d  MMWave_getBpmChirpCfg                                                
0000b3f9  MMWave_getBpmChirpHandle                                             
0000c0bd  MMWave_getChirpCfg                                                   
0000a045  MMWave_getChirpHandle                                                
0000cff5  MMWave_getNumBpmChirp                                                
0000d7e1  MMWave_getNumChirps                                                  
0000cddd  MMWave_getProfileCfg                                                 
0000bd0d  MMWave_getProfileHandle                                              
00009321  MMWave_init                                                          
0000efc9  MMWave_initLink                                                      
0001116d  MMWave_listAdd                                                       
00010d8d  MMWave_listCat                                                       
0000650d  MMWave_listGetHead                                                   
0000668d  MMWave_listGetNext                                                   
00011011  MMWave_listRemove                                                    
000102b3  MMWave_listRemoveNode                                                
0000d079  MMWave_open                                                          
00005edd  MMWave_openLink                                                      
000105bd  MMWave_osalMutexCreate                                               
00011507  MMWave_osalMutexDelete                                               
00011271  MMWave_osalMutexLock                                                 
00005d35  MMWave_osalMutexUnlock                                               
000105e9  MMWave_osalSemCreate                                                 
0001151b  MMWave_osalSemDelete                                                 
00006385  MMWave_osalSemSignal                                                 
00011289  MMWave_osalSemWait                                                   
0000b935  MMWave_start                                                         
000083bd  MMWave_startLink                                                     
0000ea3d  MMWave_stop                                                          
0000de95  MMWave_stopLink                                                      
0000f295  MMWave_sync                                                          
000107fd  Mailbox_Config_init                                                  
0000c605  Mailbox_close                                                        
00013cdc  Mailbox_defaultCfg                                                   
0000d4fd  Mailbox_init                                                         
00003899  Mailbox_open                                                         
000095b5  Mailbox_read                                                         
0000e119  Mailbox_readFlush                                                    
000082b5  Mailbox_write                                                        
0000fe1d  Mailbox_writeReset                                                   
0001164d  MemoryP_ctrlAlloc                                                    
0000e655  MemoryP_ctrlFree                                                     
00002225  MmwDemo_CLIInit                                                      
00006805  MmwDemo_mboxCallback                                                 
00010dad  MmwDemo_mboxWrite                                                    
0000ea99  MmwDemo_mmWaveCtrlTask                                               
00009915  MmwDemo_mssCtrlPathTask                                              
00004f5d  MmwDemo_mssDataPathConfig                                            
0000aba9  MmwDemo_mssDataPathStart                                             
0000e795  MmwDemo_mssDataPathStop                                              
00001665  MmwDemo_mssInitTask                                                  
000116b5  MmwDemo_mssMmwaveConfigCallbackFxn                                   
000087c5  MmwDemo_mssMmwaveEventCallbackFxn                                    
000116c5  MmwDemo_mssMmwaveStartCallbackFxn                                    
000116d5  MmwDemo_mssMmwaveStopCallbackFxn                                     
0000e7f5  MmwDemo_printHeapStats                                               
00005689  MmwDemo_transmitProcessedOutput                                      
0000df01  Pinmux_Set_FuncSel                                                   
0000b4a1  Pinmux_Set_OverrideCtrl                                              
UNDEFED   SHT$$INIT_ARRAY$$Base                                                
UNDEFED   SHT$$INIT_ARRAY$$Limit                                               
0000aaaf  SOC_MPUAreRegionsSeparate                                            
0000aa5b  SOC_MPUDisable                                                       
0000aa8f  SOC_MPUDisableBackgroundRegion                                       
0000aa3d  SOC_MPUEnable                                                        
0000aa79  SOC_MPUEnableBackgroundRegion                                        
0000aaa5  SOC_MPUGetNumberOfRegions                                            
0000aabd  SOC_MPUGetRegion                                                     
0000aac9  SOC_MPUGetRegionBaseAddress                                          
0000aae3  SOC_MPUGetRegionPermission                                           
0000aad9  SOC_MPUGetRegionType                                                 
0000aab7  SOC_MPUSetRegion                                                     
0000aac3  SOC_MPUSetRegionBaseAddress                                          
0000aaed  SOC_MPUSetRegionSizeRegister                                         
0000aacf  SOC_MPUSetRegionTypeAndPermission                                    
0001077d  SOC_SystemISR                                                        
08028d8c  SOC_TranslateAddr_LUT                                                
00002595  SOC_deviceInit                                                       
000102e5  SOC_getDevicePartNumber                                              
0000d1fd  SOC_getDeviceRFFreqScaleFactor                                       
0001102d  SOC_getInAddr_LUTType                                                
00010f2f  SOC_getOutAddr_LUTType                                               
0001010d  SOC_hasDSPCore                                                       
0000c96d  SOC_init                                                             
00010b45  SOC_isMMWaveDSSOperational                                           
00010b69  SOC_isMMWaveMSSOperational                                           
0000f8ed  SOC_resetDMA                                                         
00010141  SOC_setMMWaveDSSLinkState                                            
00010175  SOC_setMMWaveMSSLinkState                                            
0000c9f9  SOC_translateAddress                                                 
0000a29d  SOC_ungateClock                                                      
0000fe59  SOC_unhaltBSS                                                        
00010615  SOC_waitBSSPowerUp                                                   
00003f79  SemaphoreP_Params_init                                               
0000e455  SemaphoreP_create                                                    
0000f6e3  SemaphoreP_delete                                                    
0001165f  SemaphoreP_pend                                                      
0000e6c5  SemaphoreP_post                                                      
0000e6c5  SemaphoreP_postFromClock                                             
0000e6c5  SemaphoreP_postFromISR                                               
00007295  UART_Params_init                                                     
08028f2c  UART_config                                                          
00013c1c  UART_defaultParams                                                   
00010001  UART_init                                                            
000101a9  UART_open                                                            
0000e855  UART_read                                                            
0000f0c5  UART_write                                                           
0000f125  UART_writePolling                                                    
0000ed69  UartSci_closeDMA                                                     
00010d05  UartSci_disableRxDMA                                                 
00011545  UartSci_disableTxDMA                                                 
00010d27  UartSci_enableRxDMA                                                  
00011559  UartSci_enableTxDMA                                                  
0000ca85  UartSci_initiateRxDMA                                                
0000c695  UartSci_initiateTxDMA                                                
00009835  UartSci_isDMAEnabled                                                 
0000add5  UartSci_openDMA                                                      
0001156d  _DebugP_assert                                                       
00000000  __ASM__                                                              
08027c88  __CIOBUF_                                                            
0000006c  __ISA__                                                              
0000007e  __PLAT__                                                             
0802b168  __STACK_END                                                          
00001000  __STACK_SIZE                                                         
000000a2  __TARG__                                                             
00014660  __TI_CINIT_Base                                                      
00014688  __TI_CINIT_Limit                                                     
00014634  __TI_Handler_Table_Base                                              
00014640  __TI_Handler_Table_Limit                                             
0000bb25  __TI_auto_init                                                       
000053bb  __TI_cleanup                                                         
08029098  __TI_cleanup_ptr                                                     
0000c155  __TI_closefile                                                       
0000df6d  __TI_decompress_lzss                                                 
000117e1  __TI_decompress_none                                                 
00009c4d  __TI_doflush                                                         
0802909c  __TI_dtors_ptr                                                       
080290a0  __TI_enable_exit_profile_output                                      
08029068  __TI_ft_end                                                          
ffffffff  __TI_pprof_out_hndl                                                  
000008c5  __TI_printfi                                                         
ffffffff  __TI_prof_data_size                                                  
ffffffff  __TI_prof_data_start                                                 
0000b105  __TI_rd_ok                                                           
0000e00f  __TI_readmsg                                                         
00014248  __TI_static_base__                                                   
08027ea8  __TI_tmpnams                                                         
0000dfd9  __TI_writemsg                                                        
0000b0a1  __TI_wrt_ok                                                          
0000ad15  __TI_zero_init                                                       
000000c9  __TRDR__                                                             
0000aaf3  __aeabi_idiv0                                                        
0000d6ed  __aeabi_memclr                                                       
0000d6ed  __aeabi_memclr4                                                      
0000d6ed  __aeabi_memclr8                                                      
0000be45  __aeabi_memcpy                                                       
0000be45  __aeabi_memcpy4                                                      
0000be45  __aeabi_memcpy8                                                      
0000d6ef  __aeabi_memset                                                       
0000d6ef  __aeabi_memset4                                                      
0000d6ef  __aeabi_memset8                                                      
08029074  __aeabi_stderr                                                       
0802906c  __aeabi_stdin                                                        
08029070  __aeabi_stdout                                                       
0000f424  __aeabi_uidiv                                                        
0000f424  __aeabi_uidivmod                                                     
00002bc0  __aeabi_uldivmod                                                     
ffffffff  __binit__                                                            
ffffffff  __c_args__                                                           
0802a168  __stack                                                              
00011331  _args_main                                                           
0000d940  _c_int00                                                             
00013760  _ctypes_                                                             
08028b78  _device                                                              
08028988  _ftable                                                              
080290bc  _lock                                                                
000115cb  _nop                                                                 
000115c3  _register_lock                                                       
000115bd  _register_unlock                                                     
08028ca4  _stream                                                              
080290c0  _unlock                                                              
0000f3d9  abort                                                                
0000f385  atoi                                                                 
ffffffff  binit                                                                
0000edc1  close                                                                
0000f5b5  copy_in                                                              
000111bb  copysign                                                             
000111bb  copysignl                                                            
08029134  errno                                                                
0000f3e1  exit                                                                 
0000c1bb  fclose                                                               
00009c99  fflush                                                               
0000da29  finddevice                                                           
00005411  fopen                                                                
0000c1ed  fputc                                                                
00007795  fputs                                                                
00011187  free                                                                 
000053e7  freopen                                                              
0000da9d  frexp                                                                
0000da9d  frexpl                                                               
0000e4b9  fseek                                                                
08027ae0  gCLI                                                                 
080284f8  gCLIMMWaveControlCfg                                                 
08028450  gCLIMMWaveExtensionTable                                             
08028428  gCLIMMWaveOpenCfg                                                    
08028420  gCLI_mmwave_freq_scale_factor                                        
08028f74  gCRCRegister                                                         
080290a4  gESMHwCfgAttrs                                                       
08027f48  gEsmMCB                                                              
08028028  gMMWave_DualcoreMCB                                                  
08027da8  gMMWave_MCB                                                          
08028cf4  gMailboxMCB                                                          
08028ff4  gMailboxMssBssHwCfg                                                  
0802900c  gMailboxMssDssHwCfg                                                  
08012000  gMmwL1Scratch                                                        
08000000  gMmwL2                                                               
08024100  gMmwMssMCB                                                           
0802912c  gPinmuxRegs                                                          
08027fb8  gRadarOsal_heapObj                                                   
08028f78  gSOCHwAttrib                                                         
08028f04  gUartSciFxnTable                                                     
08028c4c  gUartSciHwCfg                                                        
0000da57  getdevice                                                            
00013f68  heap0                                                                
00008ea1  ldexp                                                                
00008ea1  ldexpl                                                               
0001089d  lseek                                                                
0000f01d  ltoa                                                                 
0000765d  main                                                                 
08029140  main_func_sp                                                         
0001058f  malloc                                                               
00011081  memccpy                                                              
00010e0d  memchr                                                               
0000be45  memcpy                                                               
0000d6f5  memset                                                               
0000a8c9  open                                                                 
08028030  parmbuf                                                              
080285c4  partInfoStringArray                                                  
0000dbfd  printf                                                               
0000c1ed  putc                                                                 
0000c273  putchar                                                              
000078a5  puts                                                                 
00011581  radarOsal_memDeInit                                                  
00008ac1  radarOsal_memInit                                                    
00010699  remove                                                               
00011595  rlAppendDummy                                                        
00010039  rlAppendSubBlock                                                     
000107a7  rlDeviceGetMmWaveLinkVersion                                         
00010641  rlDeviceGetMssVersion                                                
000112e9  rlDeviceGetRfVersion                                                 
0000f78b  rlDeviceGetVersion                                                   
0000f2e5  rlDeviceIdentifyCmdDir                                               
0000e389  rlDevicePowerOff                                                     
0000cb11  rlDevicePowerOn                                                      
0000d9b5  rlDriverAsyncEventHandler                                            
00011301  rlDriverCalCRC                                                       
0000ec07  rlDriverCalChkSum                                                    
00006071  rlDriverCmdInvoke                                                    
0000714d  rlDriverCmdSendRetry                                                 
00010875  rlDriverConstructInMsg                                               
000054b9  rlDriverConstructOutMsg                                              
0000c3b5  rlDriverDeInit                                                       
0000d2fd  rlDriverExecuteGetApi                                                
0000e181  rlDriverExecuteSetApi                                                
00011319  rlDriverFillPayload                                                  
00007d69  rlDriverGetHandle                                                    
0000bbc5  rlDriverGetPlatformId                                                
0000e1e9  rlDriverHostIrqHandler                                               
000088c5  rlDriverInit                                                         
000115a9  rlDriverIsDeviceMapValid                                             
000093fd  rlDriverMsgCmdReply                                                  
0000583d  rlDriverMsgRead                                                      
0000c449  rlDriverMsgReadCmdCtx                                                
0000cb9d  rlDriverMsgReadSpawnCtx                                              
0000a5c5  rlDriverMsgWrite                                                     
0000f7d5  rlDriverOsiInit                                                      
0000c4dd  rlDriverProcRdMsg                                                    
00008bb9  rlDriverRdVerifyMsg                                                  
00005129  rlDriverRxHdrRead                                                    
0000fb29  rlDriverValidateHdr                                                  
0000f335  rlDriverVerifyCRC                                                    
0000b549  rlDriverWaitForResponse                                              
00010b8d  rlEnableContMode                                                     
000111a1  rlGetRfDieId                                                         
0000fae7  rlGetSubBlock                                                        
0000a4f9  rlGetSubBlockId                                                      
0000afe9  rlGetSubBlockLen                                                     
00009ab5  rlRfCalibDataRestore                                                 
00010ded  rlRfInit                                                             
00010979  rlRfInitCalibConfig                                                  
0000907d  rlRfPhShiftCalibDataRestore                                          
0001099f  rlRfRunTimeCalibConfig                                               
000109c5  rlRfSetCalMonFreqLimitConfig                                         
00010bb1  rlRfSetCalMonTimeUnitConfig                                          
000109eb  rlRfSetDeviceCfg                                                     
00010315  rlSensorStart                                                        
0001066d  rlSensorStop                                                         
00010a11  rlSetAdcOutConfig                                                    
0000b5f1  rlSetAdvFrameConfig                                                  
00010a37  rlSetBpmCommonConfig                                                 
00010a5d  rlSetChannelConfig                                                   
00009b81  rlSetChirpConfig                                                     
00010a83  rlSetContModeConfig                                                  
0000a365  rlSetFrameConfig                                                     
00010bd5  rlSetLowPowerModeConfig                                              
00009689  rlSetMultiBpmChirpConfig                                             
0000af39  rlSetProfileConfig                                                   
08028138  rl_rxMsg                                                             
08028038  rl_txMsg                                                             
00008ea1  scalbn                                                               
00008ea1  scalbnl                                                              
000094d9  setvbuf                                                              
0000e51d  sprintf                                                              
00011439  strchr                                                               
00011349  strcmp                                                               
000115d1  strcpy                                                               
00010d49  strcspn                                                              
0001144f  strlen                                                               
0001006f  strncpy                                                              
000107d1  strspn                                                               
000049a9  strtod                                                               
0000fb69  strtok                                                               
000049a9  strtold                                                              
08028f50  ti_sysbios_BIOS_Module__state__V                                     
000111ef  ti_sysbios_BIOS_RtsGateProxy_Handle__label__S                        
0000ac5d  ti_sysbios_BIOS_RtsGateProxy_enter__E                                
0000b699  ti_sysbios_BIOS_RtsGateProxy_leave__E                                
000118d1  ti_sysbios_BIOS_RtsGateProxy_query__E                                
00010345  ti_sysbios_BIOS_atExitFunc__I                                        
00010bf9  ti_sysbios_BIOS_errorRaiseHook__I                                    
00011465  ti_sysbios_BIOS_exitFunc__I                                          
00011921  ti_sysbios_BIOS_linkedWithIncorrectBootLibrary__E                    
0000ae87  ti_sysbios_BIOS_nullFunc__I                                          
00010c1d  ti_sysbios_BIOS_registerRTSLock__I                                   
00010c41  ti_sysbios_BIOS_removeRTSLock__I                                     
0001109d  ti_sysbios_BIOS_rtsLock__I                                           
00011361  ti_sysbios_BIOS_rtsUnlock__I                                         
000116f1  ti_sysbios_BIOS_setThreadType__E                                     
00010375  ti_sysbios_BIOS_startFunc__I                                         
00011701  ti_sysbios_BIOS_start__E                                             
0000a684  ti_sysbios_family_arm_IntrinsicsSupport_maxbitA__I                   
0000a684  ti_sysbios_family_arm_IntrinsicsSupport_maxbit__E                    
0000b69d  ti_sysbios_family_arm_TaskSupport_Module__startupDone__S             
0000d5f4  ti_sysbios_family_arm_TaskSupport_buildTaskStack                     
00011801  ti_sysbios_family_arm_TaskSupport_checkStack__E                      
00011811  ti_sysbios_family_arm_TaskSupport_getStackAlignment__E               
00011048  ti_sysbios_family_arm_TaskSupport_glue                               
00013f6c  ti_sysbios_family_arm_TaskSupport_stackAlignment__C                  
000103b1  ti_sysbios_family_arm_TaskSupport_start__E                           
00011064  ti_sysbios_family_arm_TaskSupport_swap__E                            
00013f70  ti_sysbios_family_arm_exc_Exception_E_dataAbort__C                   
00013f74  ti_sysbios_family_arm_exc_Exception_E_prefetchAbort__C               
00013f78  ti_sysbios_family_arm_exc_Exception_E_swi__C                         
00013f7c  ti_sysbios_family_arm_exc_Exception_E_undefinedInstruction__C        
08029164  ti_sysbios_family_arm_exc_Exception_Module_State_0_excActive__A      
08029148  ti_sysbios_family_arm_exc_Exception_Module_State_0_excContext__A     
0802914c  ti_sysbios_family_arm_exc_Exception_Module_State_0_excStackBuffers__A
080262e0  ti_sysbios_family_arm_exc_Exception_Module_State_0_excStack_0__A     
08029150  ti_sysbios_family_arm_exc_Exception_Module_State_0_excStack__A       
0001393a  ti_sysbios_family_arm_exc_Exception_Module__id__C                    
08029054  ti_sysbios_family_arm_exc_Exception_Module__state__V                 
00011821  ti_sysbios_family_arm_exc_Exception_Module_startup__E                
000033b1  ti_sysbios_family_arm_exc_Exception_excDumpContext__I                
000099e4  ti_sysbios_family_arm_exc_Exception_excHandlerAsm__I                 
00009a4c  ti_sysbios_family_arm_exc_Exception_excHandlerDataAsm__I             
00006391  ti_sysbios_family_arm_exc_Exception_excHandler__I                    
00013f80  ti_sysbios_family_arm_exc_Exception_excHookFuncs__A                  
00013f84  ti_sysbios_family_arm_exc_Exception_excHookFuncs__C                  
0000e580  ti_sysbios_family_arm_exc_Exception_initCore0__I                     
00013f88  ti_sysbios_family_arm_v7a_Pmu_A_invalidCounterId__C                  
00013f8c  ti_sysbios_family_arm_v7a_Pmu_Module__diagsEnabled__C                
00013f90  ti_sysbios_family_arm_v7a_Pmu_Module__diagsIncluded__C               
00013f94  ti_sysbios_family_arm_v7a_Pmu_Module__diagsMask__C                   
00013f26  ti_sysbios_family_arm_v7a_Pmu_Module__id__C                          
080290b0  ti_sysbios_family_arm_v7a_Pmu_Module__state__V                       
00010e31  ti_sysbios_family_arm_v7a_Pmu_Module_startup__E                      
0000c7b4  ti_sysbios_family_arm_v7a_Pmu_configureCounterI__I                   
0000a501  ti_sysbios_family_arm_v7a_Pmu_configureCounter__E                    
00011710  ti_sysbios_family_arm_v7a_Pmu_disableInterruptI__E                   
00011720  ti_sysbios_family_arm_v7a_Pmu_enableInterruptI__E                    
0000dc64  ti_sysbios_family_arm_v7a_Pmu_getCountI__E                           
0000cc31  ti_sysbios_family_arm_v7a_Pmu_getCount__E                            
00008da8  ti_sysbios_family_arm_v7a_Pmu_getEnabled__E                          
00011730  ti_sysbios_family_arm_v7a_Pmu_getNumCounters__E                      
00011378  ti_sysbios_family_arm_v7a_Pmu_initCounters__I                        
00011740  ti_sysbios_family_arm_v7a_Pmu_startCounterI__E                       
0000c7c1  ti_sysbios_family_arm_v7a_Pmu_startCounter__E                        
00011750  ti_sysbios_family_arm_v7a_Pmu_stopCounterI__E                        
00013f98  ti_sysbios_family_arm_v7r_tms570_Core_E_mismatchedIds__C             
00014210  ti_sysbios_family_arm_v7r_tms570_Core_Module__id__C                  
0000f9c1  ti_sysbios_family_arm_v7r_tms570_Core_Module_startup__E              
0000f185  ti_sysbios_family_arm_v7r_tms570_Core_getId__E                       
00013f9c  ti_sysbios_family_arm_v7r_tms570_Core_id__C                          
00013fa0  ti_sysbios_family_arm_v7r_vim_Hwi_A_badChannelId__C                  
00013fa4  ti_sysbios_family_arm_v7r_vim_Hwi_E_alreadyDefined__C                
00013fa8  ti_sysbios_family_arm_v7r_vim_Hwi_E_badIntNum__C                     
00013fac  ti_sysbios_family_arm_v7r_vim_Hwi_E_phantomInterrupt__C              
00013fb0  ti_sysbios_family_arm_v7r_vim_Hwi_E_undefined__C                     
00013fb4  ti_sysbios_family_arm_v7r_vim_Hwi_E_unsupportedMaskingOption__C      
0000ccc1  ti_sysbios_family_arm_v7r_vim_Hwi_Instance_finalize__E               
00007c51  ti_sysbios_family_arm_v7r_vim_Hwi_Instance_init__E                   
00013fb8  ti_sysbios_family_arm_v7r_vim_Hwi_LD_end__C                          
00013fbc  ti_sysbios_family_arm_v7r_vim_Hwi_LM_begin__C                        
08028788  ti_sysbios_family_arm_v7r_vim_Hwi_Module_State_0_dispatchTable__A    
08029168  ti_sysbios_family_arm_v7r_vim_Hwi_Module_State_0_fiqStack__A         
00013fc0  ti_sysbios_family_arm_v7r_vim_Hwi_Module__diagsEnabled__C            
00013fc4  ti_sysbios_family_arm_v7r_vim_Hwi_Module__diagsIncluded__C           
00013fc8  ti_sysbios_family_arm_v7r_vim_Hwi_Module__diagsMask__C               
00014212  ti_sysbios_family_arm_v7r_vim_Hwi_Module__id__C                      
00014214  ti_sysbios_family_arm_v7r_vim_Hwi_Module__loggerDefined__C           
00013fcc  ti_sysbios_family_arm_v7r_vim_Hwi_Module__loggerFxn1__C              
00013fd0  ti_sysbios_family_arm_v7r_vim_Hwi_Module__loggerFxn8__C              
00013fd4  ti_sysbios_family_arm_v7r_vim_Hwi_Module__loggerObj__C               
080290c4  ti_sysbios_family_arm_v7r_vim_Hwi_Module__root__V                    
00011391  ti_sysbios_family_arm_v7r_vim_Hwi_Module__startupDone__F             
00011391  ti_sysbios_family_arm_v7r_vim_Hwi_Module__startupDone__S             
08028e48  ti_sysbios_family_arm_v7r_vim_Hwi_Module__state__V                   
00008db1  ti_sysbios_family_arm_v7r_vim_Hwi_Module_startup__E                  
00013fd8  ti_sysbios_family_arm_v7r_vim_Hwi_NUM_INTERRUPTS__C                  
00013db0  ti_sysbios_family_arm_v7r_vim_Hwi_Object__DESC__C                    
00013c58  ti_sysbios_family_arm_v7r_vim_Hwi_Object__PARAMS__C                  
00010e51  ti_sysbios_family_arm_v7r_vim_Hwi_Object__delete__S                  
08028eac  ti_sysbios_family_arm_v7r_vim_Hwi_Object__table__V                   
000113a9  ti_sysbios_family_arm_v7r_vim_Hwi_Params__init__S                    
00013b00  ti_sysbios_family_arm_v7r_vim_Hwi_channelMap__A                      
00013fdc  ti_sysbios_family_arm_v7r_vim_Hwi_channelMap__C                      
000110c1  ti_sysbios_family_arm_v7r_vim_Hwi_clearInterrupt__E                  
0000f071  ti_sysbios_family_arm_v7r_vim_Hwi_create                             
0000ba7d  ti_sysbios_family_arm_v7r_vim_Hwi_delete                             
00010e71  ti_sysbios_family_arm_v7r_vim_Hwi_disableInterrupt__E                
00004b91  ti_sysbios_family_arm_v7r_vim_Hwi_dispatchIRQC__I                    
0000c570  ti_sysbios_family_arm_v7r_vim_Hwi_dispatchIRQ__I                     
00010e91  ti_sysbios_family_arm_v7r_vim_Hwi_enableInterrupt__E                 
0000f601  ti_sysbios_family_arm_v7r_vim_Hwi_getStackInfo__E                    
0000bee1  ti_sysbios_family_arm_v7r_vim_Hwi_initIntController__I               
0000fe94  ti_sysbios_family_arm_v7r_vim_Hwi_init__I                            
00013f28  ti_sysbios_family_arm_v7r_vim_Hwi_intReqEnaSet__A                    
00013fe0  ti_sysbios_family_arm_v7r_vim_Hwi_intReqEnaSet__C                    
0000bf81  ti_sysbios_family_arm_v7r_vim_Hwi_mapChannel__I                      
00013fe4  ti_sysbios_family_arm_v7r_vim_Hwi_phantomFunc__C                     
0000e5f1  ti_sysbios_family_arm_v7r_vim_Hwi_phantomIntHandler__I               
00006811  ti_sysbios_family_arm_v7r_vim_Hwi_reconfig__E                        
00011871  ti_sysbios_family_arm_v7r_vim_Hwi_startup__E                         
00013fe8  ti_sysbios_family_arm_v7r_vim_Hwi_swiDisable__C                      
00013fec  ti_sysbios_family_arm_v7r_vim_Hwi_swiRestoreHwi__C                   
00011831  ti_sysbios_family_arm_v7r_vim_Hwi_switchFromBootStack__E             
00013ff0  ti_sysbios_family_arm_v7r_vim_Hwi_taskDisable__C                     
00013ff4  ti_sysbios_family_arm_v7r_vim_Hwi_taskRestoreHwi__C                  
00000000  ti_sysbios_family_arm_v7r_vim_Hwi_vectors                            
fffffdec  ti_sysbios_family_arm_v7r_vim_Hwi_vim                                
00013f38  ti_sysbios_family_arm_v7r_vim_Hwi_wakeEnaSet__A                      
00013ff8  ti_sysbios_family_arm_v7r_vim_Hwi_wakeEnaSet__C                      
0000c2d0  ti_sysbios_family_xxx_Hwi_switchAndRunDispatchC                      
0000c284  ti_sysbios_family_xxx_Hwi_switchAndRunFunc                           
000111d5  ti_sysbios_gates_GateHwi_Handle__label__S                            
00011931  ti_sysbios_gates_GateHwi_Instance_init__E                            
00013d00  ti_sysbios_gates_GateHwi_Module__FXNS__C                             
080290cc  ti_sysbios_gates_GateHwi_Module__root__V                             
00013dd0  ti_sysbios_gates_GateHwi_Object__DESC__C                             
00013eb0  ti_sysbios_gates_GateHwi_Object__PARAMS__C                           
000103e1  ti_sysbios_gates_GateHwi_Object__create__S                           
00010eb1  ti_sysbios_gates_GateHwi_Object__delete__S                           
08029154  ti_sysbios_gates_GateHwi_Object__table__V                            
00011861  ti_sysbios_gates_GateHwi_enter__E                                    
00011881  ti_sysbios_gates_GateHwi_leave__E                                    
000118c1  ti_sysbios_gates_GateHwi_query__E                                    
00013ffc  ti_sysbios_gates_GateMutex_A_badContext__C                           
000111ef  ti_sysbios_gates_GateMutex_Handle__label__S                          
00014000  ti_sysbios_gates_GateMutex_Instance_State_sem__O                     
00011761  ti_sysbios_gates_GateMutex_Instance_finalize__E                      
000110e1  ti_sysbios_gates_GateMutex_Instance_init__E                          
00013d24  ti_sysbios_gates_GateMutex_Module__FXNS__C                           
00014004  ti_sysbios_gates_GateMutex_Module__diagsEnabled__C                   
00014008  ti_sysbios_gates_GateMutex_Module__diagsIncluded__C                  
0001400c  ti_sysbios_gates_GateMutex_Module__diagsMask__C                      
00014216  ti_sysbios_gates_GateMutex_Module__id__C                             
080290d4  ti_sysbios_gates_GateMutex_Module__root__V                           
00013df0  ti_sysbios_gates_GateMutex_Object__DESC__C                           
00013ec8  ti_sysbios_gates_GateMutex_Object__PARAMS__C                         
00010411  ti_sysbios_gates_GateMutex_Object__create__S                         
00010c65  ti_sysbios_gates_GateMutex_Object__delete__S                         
08028dcc  ti_sysbios_gates_GateMutex_Object__table__V                          
0000ac61  ti_sysbios_gates_GateMutex_enter__E                                  
00011101  ti_sysbios_gates_GateMutex_leave__E                                  
000118d1  ti_sysbios_gates_GateMutex_query__E                                  
0000f185  ti_sysbios_hal_Core_CoreProxy_getId__E                               
00014010  ti_sysbios_hal_Hwi_E_stackOverflow__C                                
00011391  ti_sysbios_hal_Hwi_HwiProxy_Module__startupDone__S                   
000113a9  ti_sysbios_hal_Hwi_HwiProxy_Params__init__S                          
000110c1  ti_sysbios_hal_Hwi_HwiProxy_clearInterrupt__E                        
00010e71  ti_sysbios_hal_Hwi_HwiProxy_disableInterrupt__E                      
00010e91  ti_sysbios_hal_Hwi_HwiProxy_enableInterrupt__E                       
0000f601  ti_sysbios_hal_Hwi_HwiProxy_getStackInfo__E                          
00011871  ti_sysbios_hal_Hwi_HwiProxy_startup__E                               
00011831  ti_sysbios_hal_Hwi_HwiProxy_switchFromBootStack__E                   
00014218  ti_sysbios_hal_Hwi_Module__id__C                                     
00011671  ti_sysbios_hal_Hwi_Module_startup__E                                 
080290dc  ti_sysbios_hal_Hwi_Object__table__V                                  
0000fed1  ti_sysbios_hal_Hwi_checkStack                                        
000110c1  ti_sysbios_hal_Hwi_clearInterrupt__E                                 
00010e71  ti_sysbios_hal_Hwi_disableInterrupt__E                               
00010e91  ti_sysbios_hal_Hwi_enableInterrupt__E                                
0000f601  ti_sysbios_hal_Hwi_getStackInfo__E                                   
00010281  ti_sysbios_hal_Hwi_initStack                                         
00011871  ti_sysbios_hal_Hwi_startup__E                                        
00011831  ti_sysbios_hal_Hwi_switchFromBootStack__E                            
00014014  ti_sysbios_heaps_HeapBuf_Instance_State_freeList__O                  
08029158  ti_sysbios_heaps_HeapBuf_Module__state__V                            
00008f91  ti_sysbios_heaps_HeapBuf_Module_startup__E                           
00014018  ti_sysbios_heaps_HeapBuf_Object__count__C                            
00011771  ti_sysbios_heaps_HeapBuf_Object__get__S                              
0001401c  ti_sysbios_heaps_HeapBuf_numConstructedHeaps__C                      
00014020  ti_sysbios_heaps_HeapMem_A_align__C                                  
00014024  ti_sysbios_heaps_HeapMem_A_heapSize__C                               
00014028  ti_sysbios_heaps_HeapMem_A_invalidFree__C                            
0001402c  ti_sysbios_heaps_HeapMem_A_zeroBlock__C                              
00014030  ti_sysbios_heaps_HeapMem_E_memory__C                                 
00011209  ti_sysbios_heaps_HeapMem_Handle__label__S                            
08014100  ti_sysbios_heaps_HeapMem_Instance_State_0_buf__A                     
000072a1  ti_sysbios_heaps_HeapMem_Instance_init__E                            
000111ef  ti_sysbios_heaps_HeapMem_Module_GateProxy_Handle__label__S           
0000bf7d  ti_sysbios_heaps_HeapMem_Module_GateProxy_enter__E                   
0000c01d  ti_sysbios_heaps_HeapMem_Module_GateProxy_leave__E                   
000118d1  ti_sysbios_heaps_HeapMem_Module_GateProxy_query__E                   
00013cb4  ti_sysbios_heaps_HeapMem_Module__FXNS__C                             
00014034  ti_sysbios_heaps_HeapMem_Module__diagsEnabled__C                     
00014038  ti_sysbios_heaps_HeapMem_Module__diagsIncluded__C                    
0001403c  ti_sysbios_heaps_HeapMem_Module__diagsMask__C                        
00014040  ti_sysbios_heaps_HeapMem_Module__gateObj__C                          
0001421a  ti_sysbios_heaps_HeapMem_Module__id__C                               
080290e4  ti_sysbios_heaps_HeapMem_Module__root__V                             
00013e10  ti_sysbios_heaps_HeapMem_Object__DESC__C                             
00013d48  ti_sysbios_heaps_HeapMem_Object__PARAMS__C                           
00014044  ti_sysbios_heaps_HeapMem_Object__count__C                            
00010441  ti_sysbios_heaps_HeapMem_Object__create__S                           
00010ed1  ti_sysbios_heaps_HeapMem_Object__delete__S                           
000115e5  ti_sysbios_heaps_HeapMem_Object__get__S                              
08029024  ti_sysbios_heaps_HeapMem_Object__table__V                            
00003d51  ti_sysbios_heaps_HeapMem_allocUnprotected__E                         
0000e861  ti_sysbios_heaps_HeapMem_alloc__E                                    
00002e81  ti_sysbios_heaps_HeapMem_freeUnprotected__E                          
00010471  ti_sysbios_heaps_HeapMem_free__E                                     
0000f0d1  ti_sysbios_heaps_HeapMem_getStats__E                                 
0000ff11  ti_sysbios_heaps_HeapMem_init__I                                     
00011891  ti_sysbios_heaps_HeapMem_isBlocking__E                               
00014048  ti_sysbios_heaps_HeapMem_reqAlign__C                                 
0001404c  ti_sysbios_knl_Clock_LM_begin__C                                     
00014050  ti_sysbios_knl_Clock_LM_tick__C                                      
00014054  ti_sysbios_knl_Clock_LW_delayed__C                                   
00014058  ti_sysbios_knl_Clock_Module_State_clockQ__O                          
0001405c  ti_sysbios_knl_Clock_Module__diagsEnabled__C                         
00014060  ti_sysbios_knl_Clock_Module__diagsIncluded__C                        
00014064  ti_sysbios_knl_Clock_Module__diagsMask__C                            
0001421c  ti_sysbios_knl_Clock_Module__id__C                                   
0001421e  ti_sysbios_knl_Clock_Module__loggerDefined__C                        
00014068  ti_sysbios_knl_Clock_Module__loggerFxn1__C                           
0001406c  ti_sysbios_knl_Clock_Module__loggerFxn2__C                           
00014070  ti_sysbios_knl_Clock_Module__loggerObj__C                            
08028ed8  ti_sysbios_knl_Clock_Module__state__V                                
00010c91  ti_sysbios_knl_Clock_Module_startup__E                               
00011409  ti_sysbios_knl_Clock_TimerProxy_Module__startupDone__S               
0000cc29  ti_sysbios_knl_Clock_TimerProxy_getMaxTicks__E                       
0000a691  ti_sysbios_knl_Clock_TimerProxy_startup__E                           
000106c5  ti_sysbios_knl_Clock_doTick__I                                       
0000e661  ti_sysbios_knl_Clock_logTick__E                                      
00007521  ti_sysbios_knl_Clock_workFunc__E                                     
00014074  ti_sysbios_knl_Event_A_badContext__C                                 
00014078  ti_sysbios_knl_Event_A_eventInUse__C                                 
0001407c  ti_sysbios_knl_Event_A_nullEventId__C                                
00014080  ti_sysbios_knl_Event_A_nullEventMasks__C                             
00014084  ti_sysbios_knl_Event_A_pendTaskDisabled__C                           
00014088  ti_sysbios_knl_Event_Instance_State_pendQ__O                         
00011601  ti_sysbios_knl_Event_Instance_init__E                                
0001408c  ti_sysbios_knl_Event_LM_pend__C                                      
00014090  ti_sysbios_knl_Event_LM_post__C                                      
00014094  ti_sysbios_knl_Event_Module__diagsEnabled__C                         
00014098  ti_sysbios_knl_Event_Module__diagsIncluded__C                        
0001409c  ti_sysbios_knl_Event_Module__diagsMask__C                            
00014220  ti_sysbios_knl_Event_Module__id__C                                   
00014222  ti_sysbios_knl_Event_Module__loggerDefined__C                        
000140a0  ti_sysbios_knl_Event_Module__loggerFxn4__C                           
000140a4  ti_sysbios_knl_Event_Module__loggerFxn8__C                           
000140a8  ti_sysbios_knl_Event_Module__loggerObj__C                            
080290ec  ti_sysbios_knl_Event_Module__root__V                                 
00013e30  ti_sysbios_knl_Event_Object__DESC__C                                 
00013ee0  ti_sysbios_knl_Event_Object__PARAMS__C                               
000104a1  ti_sysbios_knl_Event_create                                          
00010531  ti_sysbios_knl_Event_pendTimeout__I                                  
00001e91  ti_sysbios_knl_Event_pend__E                                         
00006691  ti_sysbios_knl_Event_post__E                                         
000140ac  ti_sysbios_knl_Idle_funcList__A                                      
00013f48  ti_sysbios_knl_Idle_funcList__C                                      
00011481  ti_sysbios_knl_Idle_loop__E                                          
000108f1  ti_sysbios_knl_Idle_run__E                                           
0000a684  ti_sysbios_knl_Intrinsics_SupportProxy_maxbit__E                     
0000a684  ti_sysbios_knl_Intrinsics_maxbit__E                                  
000118a1  ti_sysbios_knl_Queue_Instance_init__E                                
080290f4  ti_sysbios_knl_Queue_Module__root__V                                 
00013e50  ti_sysbios_knl_Queue_Object__DESC__C                                 
00013ef8  ti_sysbios_knl_Queue_Object__PARAMS__C                               
0000e5e5  ti_sysbios_knl_Queue_Object__get__S                                  
000106f1  ti_sysbios_knl_Queue_construct                                       
0001111d  ti_sysbios_knl_Queue_destruct                                        
000117f1  ti_sysbios_knl_Queue_empty__E                                        
000140b0  ti_sysbios_knl_Semaphore_A_badContext__C                             
000140b4  ti_sysbios_knl_Semaphore_A_noEvents__C                               
000140b8  ti_sysbios_knl_Semaphore_A_overflow__C                               
000140bc  ti_sysbios_knl_Semaphore_A_pendTaskDisabled__C                       
000140c0  ti_sysbios_knl_Semaphore_Instance_State_pendQ__O                     
00011781  ti_sysbios_knl_Semaphore_Instance_finalize__E                        
0000c021  ti_sysbios_knl_Semaphore_Instance_init__E                            
000140c4  ti_sysbios_knl_Semaphore_LM_pend__C                                  
000140c8  ti_sysbios_knl_Semaphore_LM_post__C                                  
000140cc  ti_sysbios_knl_Semaphore_Module__diagsEnabled__C                     
000140d0  ti_sysbios_knl_Semaphore_Module__diagsIncluded__C                    
000140d4  ti_sysbios_knl_Semaphore_Module__diagsMask__C                        
00014224  ti_sysbios_knl_Semaphore_Module__id__C                               
00014226  ti_sysbios_knl_Semaphore_Module__loggerDefined__C                    
000140d8  ti_sysbios_knl_Semaphore_Module__loggerFxn2__C                       
000140dc  ti_sysbios_knl_Semaphore_Module__loggerFxn4__C                       
000140e0  ti_sysbios_knl_Semaphore_Module__loggerObj__C                        
080290fc  ti_sysbios_knl_Semaphore_Module__root__V                             
00013e70  ti_sysbios_knl_Semaphore_Object__DESC__C                             
00013d6c  ti_sysbios_knl_Semaphore_Object__PARAMS__C                           
00010cb5  ti_sysbios_knl_Semaphore_Object__delete__S                           
000113c1  ti_sysbios_knl_Semaphore_Params__init__S                             
000104d1  ti_sysbios_knl_Semaphore_construct                                   
000101dd  ti_sysbios_knl_Semaphore_create                                      
0000cc2d  ti_sysbios_knl_Semaphore_delete                                      
00010ef1  ti_sysbios_knl_Semaphore_destruct                                    
00010561  ti_sysbios_knl_Semaphore_pendTimeout__I                              
000028b1  ti_sysbios_knl_Semaphore_pend__E                                     
00006511  ti_sysbios_knl_Semaphore_post__E                                     
000140e4  ti_sysbios_knl_Swi_LD_end__C                                         
000140e8  ti_sysbios_knl_Swi_LM_begin__C                                       
000140ec  ti_sysbios_knl_Swi_LM_post__C                                        
08028a78  ti_sysbios_knl_Swi_Module_State_0_readyQ__A                          
000140f0  ti_sysbios_knl_Swi_Module__diagsEnabled__C                           
000140f4  ti_sysbios_knl_Swi_Module__diagsIncluded__C                          
000140f8  ti_sysbios_knl_Swi_Module__diagsMask__C                              
00014228  ti_sysbios_knl_Swi_Module__id__C                                     
0001422a  ti_sysbios_knl_Swi_Module__loggerDefined__C                          
000140fc  ti_sysbios_knl_Swi_Module__loggerFxn1__C                             
00014100  ti_sysbios_knl_Swi_Module__loggerFxn4__C                             
00014104  ti_sysbios_knl_Swi_Module__loggerObj__C                              
08028fd8  ti_sysbios_knl_Swi_Module__state__V                                  
00010721  ti_sysbios_knl_Swi_Module_startup__E                                 
00014108  ti_sysbios_knl_Swi_Object__count__C                                  
00011615  ti_sysbios_knl_Swi_Object__get__S                                    
08028e7c  ti_sysbios_knl_Swi_Object__table__V                                  
00011791  ti_sysbios_knl_Swi_disable__E                                        
0000b6a1  ti_sysbios_knl_Swi_post__E                                           
0000ee71  ti_sysbios_knl_Swi_restoreHwi__E                                     
0000f131  ti_sysbios_knl_Swi_runLoop__I                                        
00007d71  ti_sysbios_knl_Swi_run__I                                            
0000e321  ti_sysbios_knl_Swi_schedule__I                                       
0000f191  ti_sysbios_knl_Swi_startup__E                                        
0001410c  ti_sysbios_knl_Task_A_badPriority__C                                 
00014110  ti_sysbios_knl_Task_A_badTaskState__C                                
00014114  ti_sysbios_knl_Task_A_badThreadType__C                               
00014118  ti_sysbios_knl_Task_A_badTimeout__C                                  
0001411c  ti_sysbios_knl_Task_A_noPendElem__C                                  
00014120  ti_sysbios_knl_Task_A_sleepTaskDisabled__C                           
00014124  ti_sysbios_knl_Task_E_spOutOfBounds__C                               
00014128  ti_sysbios_knl_Task_E_stackOverflow__C                               
080272e0  ti_sysbios_knl_Task_Instance_State_0_stack__A                        
00003631  ti_sysbios_knl_Task_Instance_finalize__E                             
000054c1  ti_sysbios_knl_Task_Instance_init__E                                 
0001412c  ti_sysbios_knl_Task_LD_block__C                                      
00014130  ti_sysbios_knl_Task_LD_exit__C                                       
00014134  ti_sysbios_knl_Task_LD_ready__C                                      
00014138  ti_sysbios_knl_Task_LM_sleep__C                                      
0001413c  ti_sysbios_knl_Task_LM_switch__C                                     
0802915c  ti_sysbios_knl_Task_Module_State_0_idleTask__A                       
08028af8  ti_sysbios_knl_Task_Module_State_0_readyQ__A                         
00014140  ti_sysbios_knl_Task_Module_State_inactiveQ__O                        
00014144  ti_sysbios_knl_Task_Module__diagsEnabled__C                          
00014148  ti_sysbios_knl_Task_Module__diagsIncluded__C                         
0001414c  ti_sysbios_knl_Task_Module__diagsMask__C                             
0001422c  ti_sysbios_knl_Task_Module__id__C                                    
0001422e  ti_sysbios_knl_Task_Module__loggerDefined__C                         
00014150  ti_sysbios_knl_Task_Module__loggerFxn2__C                            
00014154  ti_sysbios_knl_Task_Module__loggerFxn4__C                            
00014158  ti_sysbios_knl_Task_Module__loggerObj__C                             
08029104  ti_sysbios_knl_Task_Module__root__V                                  
08028d44  ti_sysbios_knl_Task_Module__state__V                                 
00004d81  ti_sysbios_knl_Task_Module_startup__E                                
00013e90  ti_sysbios_knl_Task_Object__DESC__C                                  
00013bd8  ti_sysbios_knl_Task_Object__PARAMS__C                                
0001415c  ti_sysbios_knl_Task_Object__count__C                                 
000117a1  ti_sysbios_knl_Task_Object__get__S                                   
08028bf0  ti_sysbios_knl_Task_Object__table__V                                 
000113d9  ti_sysbios_knl_Task_Params__init__S                                  
0000b69d  ti_sysbios_knl_Task_SupportProxy_Module__startupDone__S              
00011801  ti_sysbios_knl_Task_SupportProxy_checkStack__E                       
00011811  ti_sysbios_knl_Task_SupportProxy_getStackAlignment__E                
000103b1  ti_sysbios_knl_Task_SupportProxy_start__E                            
00011064  ti_sysbios_knl_Task_SupportProxy_swap__E                             
00014160  ti_sysbios_knl_Task_allBlockedFunc__C                                
0000fa11  ti_sysbios_knl_Task_allBlockedFunction__I                            
0000bbd1  ti_sysbios_knl_Task_blockI__E                                        
00009d21  ti_sysbios_knl_Task_checkStacks__E                                   
0000f64d  ti_sysbios_knl_Task_create                                           
00014164  ti_sysbios_knl_Task_defaultStackHeap__C                              
00014168  ti_sysbios_knl_Task_defaultStackSize__C                              
000117b1  ti_sysbios_knl_Task_disable__E                                       
000113f1  ti_sysbios_knl_Task_enter__I                                         
00009761  ti_sysbios_knl_Task_exit__E                                          
0001416c  ti_sysbios_knl_Task_numConstructedTasks__C                           
0000a431  ti_sysbios_knl_Task_postInit__I                                      
00010ce1  ti_sysbios_knl_Task_restoreHwi__E                                    
00009841  ti_sysbios_knl_Task_schedule__I                                      
000114a1  ti_sysbios_knl_Task_sleepTimeout__I                                  
00003f81  ti_sysbios_knl_Task_sleep__E                                         
0000ad21  ti_sysbios_knl_Task_startCore__E                                     
000118e1  ti_sysbios_knl_Task_startup__E                                       
0000c851  ti_sysbios_knl_Task_unblockI__E                                      
00014170  ti_sysbios_timers_rti_Timer_E_cannotSupport__C                       
0802903c  ti_sysbios_timers_rti_Timer_Module_State_0_device__A                 
0802910c  ti_sysbios_timers_rti_Timer_Module_State_0_handles__A                
08029078  ti_sysbios_timers_rti_Timer_Module_State_0_intFreqs__A               
00014174  ti_sysbios_timers_rti_Timer_Module__diagsEnabled__C                  
00014178  ti_sysbios_timers_rti_Timer_Module__diagsIncluded__C                 
0001417c  ti_sysbios_timers_rti_Timer_Module__diagsMask__C                     
00014230  ti_sysbios_timers_rti_Timer_Module__id__C                            
00011409  ti_sysbios_timers_rti_Timer_Module__startupDone__F                   
00011409  ti_sysbios_timers_rti_Timer_Module__startupDone__S                   
08029088  ti_sysbios_timers_rti_Timer_Module__state__V                         
00006201  ti_sysbios_timers_rti_Timer_Module_startup__E                        
08028e0c  ti_sysbios_timers_rti_Timer_Object__table__V                         
00014232  ti_sysbios_timers_rti_Timer_continueOnSuspend__C                     
000084c1  ti_sysbios_timers_rti_Timer_getFreq__E                               
000118f1  ti_sysbios_timers_rti_Timer_getMaxTicks__E                           
0000d381  ti_sysbios_timers_rti_Timer_initDevice__I                            
00014180  ti_sysbios_timers_rti_Timer_numTimerDevices__C                       
00010751  ti_sysbios_timers_rti_Timer_periodicStub__E                          
0000ff51  ti_sysbios_timers_rti_Timer_setPeriod__E                             
00014184  ti_sysbios_timers_rti_Timer_startupNeeded__C                         
0000a691  ti_sysbios_timers_rti_Timer_startup__E                               
0000fbb1  ti_sysbios_timers_rti_Timer_stop__E                                  
00010699  unlink                                                               
0000ce65  vsnprintf                                                            
000108c5  write                                                                
00014188  xdc_runtime_Assert_E_assertFailed__C                                 
0000e8c1  xdc_runtime_Assert_raise__I                                          
0001418c  xdc_runtime_Core_A_initializedParams__C                              
00014190  xdc_runtime_Core_Module__diagsEnabled__C                             
00014194  xdc_runtime_Core_Module__diagsIncluded__C                            
00014198  xdc_runtime_Core_Module__diagsMask__C                                
00014234  xdc_runtime_Core_Module__id__C                                       
0000f1f1  xdc_runtime_Core_assignLabel__I                                      
0000f6f1  xdc_runtime_Core_assignParams__I                                     
000080a1  xdc_runtime_Core_constructObject__I                                  
000073e1  xdc_runtime_Core_createObject__I                                     
0000d671  xdc_runtime_Core_deleteObject__I                                     
0001419c  xdc_runtime_Error_E_memory__C                                        
08028f98  xdc_runtime_Error_IgnoreBlock                                        
000141a0  xdc_runtime_Error_Module__diagsEnabled__C                            
000141a4  xdc_runtime_Error_Module__diagsIncluded__C                           
000141a8  xdc_runtime_Error_Module__diagsMask__C                               
00014236  xdc_runtime_Error_Module__loggerDefined__C                           
000141ac  xdc_runtime_Error_Module__loggerFxn8__C                              
000141b0  xdc_runtime_Error_Module__loggerObj__C                               
08029166  xdc_runtime_Error_Module__state__V                                   
00011421  xdc_runtime_Error_init__E                                            
00014238  xdc_runtime_Error_maxDepth__C                                        
00005d41  xdc_runtime_Error_policyDefault__E                                   
000141b4  xdc_runtime_Error_policyFxn__C                                       
000141b8  xdc_runtime_Error_policy__C                                          
0000dc71  xdc_runtime_Error_print__E                                           
000141bc  xdc_runtime_Error_raiseHook__C                                       
000141c0  xdc_runtime_IGateProvider_Interface__BASE__C                         
000141c4  xdc_runtime_IHeap_Interface__BASE__C                                 
000141c8  xdc_runtime_IModule_Interface__BASE__C                               
000141cc  xdc_runtime_Log_L_error__C                                           
000111d5  xdc_runtime_Main_Module_GateProxy_Handle__label__S                   
000118c1  xdc_runtime_Main_Module_GateProxy_query__E                           
0001423a  xdc_runtime_Main_Module__id__C                                       
00011209  xdc_runtime_Memory_HeapProxy_Handle__label__S                        
0000f1e5  xdc_runtime_Memory_HeapProxy_alloc__E                                
0000f475  xdc_runtime_Memory_HeapProxy_free__E                                 
0001423c  xdc_runtime_Memory_Module__id__C                                     
08029160  xdc_runtime_Memory_Module__state__V                                  
0000cd51  xdc_runtime_Memory_alloc__E                                          
000141d0  xdc_runtime_Memory_defaultHeapInstance__C                            
000117c1  xdc_runtime_Memory_free__E                                           
08029114  xdc_runtime_Registry_Module__state__V                                
0802911c  xdc_runtime_Startup_Module__state__V                                 
00000001  xdc_runtime_Startup__EXECFXN__C                                      
00000001  xdc_runtime_Startup__RESETFXN__C                                     
000141d4  xdc_runtime_Startup_execImpl__C                                      
0000e6d1  xdc_runtime_Startup_exec__E                                          
00011683  xdc_runtime_Startup_exec__I                                          
00013f50  xdc_runtime_Startup_firstFxns__A                                     
00013f58  xdc_runtime_Startup_firstFxns__C                                     
00013f60  xdc_runtime_Startup_lastFxns__C                                      
000141d8  xdc_runtime_Startup_maxPasses__C                                     
0000afef  xdc_runtime_Startup_reset__I                                         
00011841  xdc_runtime_Startup_rtsDone__E                                       
00013f10  xdc_runtime_Startup_sfxnRts__A                                       
000141dc  xdc_runtime_Startup_sfxnRts__C                                       
00013c88  xdc_runtime_Startup_sfxnTab__A                                       
000141e0  xdc_runtime_Startup_sfxnTab__C                                       
000078d1  xdc_runtime_Startup_startMods__I                                     
00010921  xdc_runtime_SysStd_abort__E                                          
00011851  xdc_runtime_SysStd_exit__E                                           
00011901  xdc_runtime_SysStd_putch__E                                          
00011911  xdc_runtime_SysStd_ready__E                                          
000111d5  xdc_runtime_System_Module_GateProxy_Handle__label__S                 
0000ccbd  xdc_runtime_System_Module_GateProxy_enter__E                         
0000cd4d  xdc_runtime_System_Module_GateProxy_leave__E                         
000118c1  xdc_runtime_System_Module_GateProxy_query__E                         
08028fb8  xdc_runtime_System_Module_State_0_atexitHandlers__A                  
000141e4  xdc_runtime_System_Module__gateObj__C                                
08029124  xdc_runtime_System_Module__state__V                                  
000118b1  xdc_runtime_System_Module_startup__E                                 
00010921  xdc_runtime_System_SupportProxy_abort__E                             
00011851  xdc_runtime_System_SupportProxy_exit__E                              
00011901  xdc_runtime_System_SupportProxy_putch__E                             
00011911  xdc_runtime_System_SupportProxy_ready__E                             
000141e8  xdc_runtime_System_abortFxn__C                                       
0000f3d9  xdc_runtime_System_abortStd__E                                       
00011223  xdc_runtime_System_aprintf__E                                        
00010951  xdc_runtime_System_aprintf_va__F                                     
0000fa61  xdc_runtime_System_atexit__E                                         
00001181  xdc_runtime_System_doPrint__I                                        
000141ec  xdc_runtime_System_exitFxn__C                                        
0000f3e1  xdc_runtime_System_exitStd__E                                        
0000f481  xdc_runtime_System_exit__E                                           
000141f0  xdc_runtime_System_extendFxn__C                                      
000141f4  xdc_runtime_System_maxAtexitHandlers__C                              
00008cb1  xdc_runtime_System_printfExtend__I                                   
0001123d  xdc_runtime_System_printf__E                                         
00010ab1  xdc_runtime_System_printf_va__F                                      
0001423e  xdc_runtime_Text_charCnt__C                                          
00011938  xdc_runtime_Text_charTab__A                                          
000141f8  xdc_runtime_Text_charTab__C                                          
00014240  xdc_runtime_Text_isLoaded__C                                         
000141fc  xdc_runtime_Text_nameEmpty__C                                        
00014200  xdc_runtime_Text_nameStatic__C                                       
00014204  xdc_runtime_Text_nameUnknown__C                                      
00013862  xdc_runtime_Text_nodeTab__A                                          
00014208  xdc_runtime_Text_nodeTab__C                                          
00010501  xdc_runtime_Text_printVisFxn__I                                      
0000e921  xdc_runtime_Text_putLab__E                                           
0000aff1  xdc_runtime_Text_putMod__E                                           
0000ba81  xdc_runtime_Text_putSite__E                                          
00014242  xdc_runtime_Text_registryModsLastId__C                               
00014244  xdc_runtime_Text_unnamedModsLastId__C                                
0000dce1  xdc_runtime_Text_visitRope2__I                                       
0001420c  xdc_runtime_Text_visitRopeFxn__C                                     
000117d1  xdc_runtime_Text_visitRope__I                                        
0000f741  xdc_runtime_Text_xprintf__I                                          


GLOBAL SYMBOLS: SORTED BY Symbol Address 

address   name                                                                 
-------   ----                                                                 
00000000  __ASM__                                                              
00000000  ti_sysbios_family_arm_v7r_vim_Hwi_vectors                            
00000001  xdc_runtime_Startup__EXECFXN__C                                      
00000001  xdc_runtime_Startup__RESETFXN__C                                     
0000006c  __ISA__                                                              
0000007e  __PLAT__                                                             
000000a2  __TARG__                                                             
000000c9  __TRDR__                                                             
000008c5  __TI_printfi                                                         
00001000  __STACK_SIZE                                                         
0000117b  CycleprofilerP_getTimeStamp                                          
00001181  xdc_runtime_System_doPrint__I                                        
00001665  MmwDemo_mssInitTask                                                  
00001e8d  HwiP_disableInterrupt                                                
00001e91  ti_sysbios_knl_Event_pend__E                                         
00002225  MmwDemo_CLIInit                                                      
00002595  SOC_deviceInit                                                       
000028a9  HwiP_disable                                                         
000028b1  ti_sysbios_knl_Semaphore_pend__E                                     
00002bc0  __aeabi_uldivmod                                                     
00002e79  MMWave_decodeErrorLevel                                              
00002e81  ti_sysbios_heaps_HeapMem_freeUnprotected__E                          
00003125  MMWave_deviceExecuteFxn                                              
000033b1  ti_sysbios_family_arm_exc_Exception_excDumpContext__I                
00003631  ti_sysbios_knl_Task_Instance_finalize__E                             
00003899  Mailbox_open                                                         
00003d51  ti_sysbios_heaps_HeapMem_allocUnprotected__E                         
00003f79  SemaphoreP_Params_init                                               
00003f81  ti_sysbios_knl_Task_sleep__E                                         
000045b9  CRC_open                                                             
000047b9  DMA_setChannelParams                                                 
000049a9  strtod                                                               
000049a9  strtold                                                              
00004b91  ti_sysbios_family_arm_v7r_vim_Hwi_dispatchIRQC__I                    
00004d81  ti_sysbios_knl_Task_Module_startup__E                                
00004f5d  MmwDemo_mssDataPathConfig                                            
00005129  rlDriverRxHdrRead                                                    
000053bb  __TI_cleanup                                                         
000053e7  freopen                                                              
00005411  fopen                                                                
000054b9  rlDriverConstructOutMsg                                              
000054c1  ti_sysbios_knl_Task_Instance_init__E                                 
00005689  MmwDemo_transmitProcessedOutput                                      
0000583d  rlDriverMsgRead                                                      
00005d35  MMWave_osalMutexUnlock                                               
00005d41  xdc_runtime_Error_policyDefault__E                                   
00005edd  MMWave_openLink                                                      
00006071  rlDriverCmdInvoke                                                    
00006201  ti_sysbios_timers_rti_Timer_Module_startup__E                        
00006385  MMWave_osalSemSignal                                                 
00006391  ti_sysbios_family_arm_exc_Exception_excHandler__I                    
0000650d  MMWave_listGetHead                                                   
00006511  ti_sysbios_knl_Semaphore_post__E                                     
0000668d  MMWave_listGetNext                                                   
00006691  ti_sysbios_knl_Event_post__E                                         
00006805  MmwDemo_mboxCallback                                                 
00006811  ti_sysbios_family_arm_v7r_vim_Hwi_reconfig__E                        
0000714d  rlDriverCmdSendRetry                                                 
00007295  UART_Params_init                                                     
000072a1  ti_sysbios_heaps_HeapMem_Instance_init__E                            
000073e1  xdc_runtime_Core_createObject__I                                     
00007521  ti_sysbios_knl_Clock_workFunc__E                                     
0000765d  main                                                                 
00007795  fputs                                                                
000078a5  puts                                                                 
000078d1  xdc_runtime_Startup_startMods__I                                     
00007c51  ti_sysbios_family_arm_v7r_vim_Hwi_Instance_init__E                   
00007d69  rlDriverGetHandle                                                    
00007d71  ti_sysbios_knl_Swi_run__I                                            
00007f95  MMWave_deviceInitFxn                                                 
000080a1  xdc_runtime_Core_constructObject__I                                  
000081ad  DMA_disableInterrupt                                                 
000082b5  Mailbox_write                                                        
000083bd  MMWave_startLink                                                     
000084c1  ti_sysbios_timers_rti_Timer_getFreq__E                               
000086c5  DMA_clearChannelInterruptFlag                                        
000087c5  MmwDemo_mssMmwaveEventCallbackFxn                                    
000088c5  rlDriverInit                                                         
000089c5  CRC_computeSignature                                                 
00008ac1  radarOsal_memInit                                                    
00008bb9  rlDriverRdVerifyMsg                                                  
00008cb1  xdc_runtime_System_printfExtend__I                                   
00008da8  ti_sysbios_family_arm_v7a_Pmu_getEnabled__E                          
00008db1  ti_sysbios_family_arm_v7r_vim_Hwi_Module_startup__E                  
00008ea1  ldexp                                                                
00008ea1  ldexpl                                                               
00008ea1  scalbn                                                               
00008ea1  scalbnl                                                              
00008f91  ti_sysbios_heaps_HeapBuf_Module_startup__E                           
0000907d  rlRfPhShiftCalibDataRestore                                          
00009161  CLI_open                                                             
00009241  DMA_enableInterrupt                                                  
00009321  MMWave_init                                                          
000093fd  rlDriverMsgCmdReply                                                  
000094d9  setvbuf                                                              
000095b5  Mailbox_read                                                         
00009689  rlSetMultiBpmChirpConfig                                             
00009761  ti_sysbios_knl_Task_exit__E                                          
00009835  UartSci_isDMAEnabled                                                 
00009841  ti_sysbios_knl_Task_schedule__I                                      
00009915  MmwDemo_mssCtrlPathTask                                              
000099e4  ti_sysbios_family_arm_exc_Exception_excHandlerAsm__I                 
00009a4c  ti_sysbios_family_arm_exc_Exception_excHandlerDataAsm__I             
00009ab5  rlRfCalibDataRestore                                                 
00009b81  rlSetChirpConfig                                                     
00009c4d  __TI_doflush                                                         
00009c99  fflush                                                               
00009d19  HwiP_restore                                                         
00009d21  ti_sysbios_knl_Task_checkStacks__E                                   
00009ded  MMWave_addChirp                                                      
00009eb5  MMWave_configBPM                                                     
00009f7d  MMWave_flushCfg                                                      
0000a045  MMWave_getChirpHandle                                                
0000a29d  SOC_ungateClock                                                      
0000a365  rlSetFrameConfig                                                     
0000a431  ti_sysbios_knl_Task_postInit__I                                      
0000a4f9  rlGetSubBlockId                                                      
0000a501  ti_sysbios_family_arm_v7a_Pmu_configureCounter__E                    
0000a5c5  rlDriverMsgWrite                                                     
0000a684  ti_sysbios_family_arm_IntrinsicsSupport_maxbitA__I                   
0000a684  ti_sysbios_family_arm_IntrinsicsSupport_maxbit__E                    
0000a684  ti_sysbios_knl_Intrinsics_SupportProxy_maxbit__E                     
0000a684  ti_sysbios_knl_Intrinsics_maxbit__E                                  
0000a691  ti_sysbios_knl_Clock_TimerProxy_startup__E                           
0000a691  ti_sysbios_timers_rti_Timer_startup__E                               
0000a8c9  open                                                                 
0000a985  DMA_getChannelInterruptFlag                                          
0000aa3d  SOC_MPUEnable                                                        
0000aa5b  SOC_MPUDisable                                                       
0000aa79  SOC_MPUEnableBackgroundRegion                                        
0000aa8f  SOC_MPUDisableBackgroundRegion                                       
0000aaa5  SOC_MPUGetNumberOfRegions                                            
0000aaaf  SOC_MPUAreRegionsSeparate                                            
0000aab7  SOC_MPUSetRegion                                                     
0000aabd  SOC_MPUGetRegion                                                     
0000aac3  SOC_MPUSetRegionBaseAddress                                          
0000aac9  SOC_MPUGetRegionBaseAddress                                          
0000aacf  SOC_MPUSetRegionTypeAndPermission                                    
0000aad9  SOC_MPUGetRegionType                                                 
0000aae3  SOC_MPUGetRegionPermission                                           
0000aaed  SOC_MPUSetRegionSizeRegister                                         
0000aaf3  __aeabi_idiv0                                                        
0000aba9  MmwDemo_mssDataPathStart                                             
0000ac5d  ti_sysbios_BIOS_RtsGateProxy_enter__E                                
0000ac61  ti_sysbios_gates_GateMutex_enter__E                                  
0000ad15  __TI_zero_init                                                       
0000ad21  ti_sysbios_knl_Task_startCore__E                                     
0000add5  UartSci_openDMA                                                      
0000ae87  ti_sysbios_BIOS_nullFunc__I                                          
0000ae89  MMWave_addProfile                                                    
0000af39  rlSetProfileConfig                                                   
0000afe9  rlGetSubBlockLen                                                     
0000afef  xdc_runtime_Startup_reset__I                                         
0000aff1  xdc_runtime_Text_putMod__E                                           
0000b0a1  __TI_wrt_ok                                                          
0000b105  __TI_rd_ok                                                           
0000b151  ESM_processInterrupt                                                 
0000b2a9  CLI_MMWaveExtensionHelp                                              
0000b3f9  MMWave_getBpmChirpHandle                                             
0000b4a1  Pinmux_Set_OverrideCtrl                                              
0000b549  rlDriverWaitForResponse                                              
0000b5f1  rlSetAdvFrameConfig                                                  
0000b699  ti_sysbios_BIOS_RtsGateProxy_leave__E                                
0000b69d  ti_sysbios_family_arm_TaskSupport_Module__startupDone__S             
0000b69d  ti_sysbios_knl_Task_SupportProxy_Module__startupDone__S              
0000b6a1  ti_sysbios_knl_Swi_post__E                                           
0000b749  DMA_assignChannel                                                    
0000b7ed  ESM_init                                                             
0000b891  MMWave_addBpmChirp                                                   
0000b935  MMWave_start                                                         
0000ba7d  ti_sysbios_family_arm_v7r_vim_Hwi_delete                             
0000ba81  xdc_runtime_Text_putSite__E                                          
0000bb25  __TI_auto_init                                                       
0000bbc5  rlDriverGetPlatformId                                                
0000bbd1  ti_sysbios_knl_Task_blockI__E                                        
0000bc71  MMWave_configLink                                                    
0000bd0d  MMWave_getProfileHandle                                              
0000be45  __aeabi_memcpy                                                       
0000be45  __aeabi_memcpy4                                                      
0000be45  __aeabi_memcpy8                                                      
0000be45  memcpy                                                               
0000bee1  ti_sysbios_family_arm_v7r_vim_Hwi_initIntController__I               
0000bf7d  ti_sysbios_heaps_HeapMem_Module_GateProxy_enter__E                   
0000bf81  ti_sysbios_family_arm_v7r_vim_Hwi_mapChannel__I                      
0000c01d  ti_sysbios_heaps_HeapMem_Module_GateProxy_leave__E                   
0000c021  ti_sysbios_knl_Semaphore_Instance_init__E                            
0000c0bd  MMWave_getChirpCfg                                                   
0000c155  __TI_closefile                                                       
0000c1bb  fclose                                                               
0000c1ed  fputc                                                                
0000c1ed  putc                                                                 
0000c273  putchar                                                              
0000c284  ti_sysbios_family_xxx_Hwi_switchAndRunFunc                           
0000c2d0  ti_sysbios_family_xxx_Hwi_switchAndRunDispatchC                      
0000c3b5  rlDriverDeInit                                                       
0000c449  rlDriverMsgReadCmdCtx                                                
0000c4dd  rlDriverProcRdMsg                                                    
0000c570  ti_sysbios_family_arm_v7r_vim_Hwi_dispatchIRQ__I                     
0000c605  Mailbox_close                                                        
0000c695  UartSci_initiateTxDMA                                                
0000c7b4  ti_sysbios_family_arm_v7a_Pmu_configureCounterI__I                   
0000c7c1  ti_sysbios_family_arm_v7a_Pmu_startCounter__E                        
0000c851  ti_sysbios_knl_Task_unblockI__E                                      
0000c96d  SOC_init                                                             
0000c9f9  SOC_translateAddress                                                 
0000ca85  UartSci_initiateRxDMA                                                
0000cb11  rlDevicePowerOn                                                      
0000cb9d  rlDriverMsgReadSpawnCtx                                              
0000cc29  ti_sysbios_knl_Clock_TimerProxy_getMaxTicks__E                       
0000cc2d  ti_sysbios_knl_Semaphore_delete                                      
0000cc31  ti_sysbios_family_arm_v7a_Pmu_getCount__E                            
0000ccbd  xdc_runtime_System_Module_GateProxy_enter__E                         
0000ccc1  ti_sysbios_family_arm_v7r_vim_Hwi_Instance_finalize__E               
0000cd4d  xdc_runtime_System_Module_GateProxy_leave__E                         
0000cd51  xdc_runtime_Memory_alloc__E                                          
0000cddd  MMWave_getProfileCfg                                                 
0000ce65  vsnprintf                                                            
0000ceed  MMWave_deviceCfgAsyncEvent                                           
0000cf71  MMWave_deviceEventFxn                                                
0000cff5  MMWave_getNumBpmChirp                                                
0000d079  MMWave_open                                                          
0000d17d  MMWave_getBpmChirpCfg                                                
0000d1fd  SOC_getDeviceRFFreqScaleFactor                                       
0000d2fd  rlDriverExecuteGetApi                                                
0000d381  ti_sysbios_timers_rti_Timer_initDevice__I                            
0000d401  HwiP_create                                                          
0000d481  MMWave_deviceOpenFxn                                                 
0000d4fd  Mailbox_init                                                         
0000d5f4  ti_sysbios_family_arm_TaskSupport_buildTaskStack                     
0000d671  xdc_runtime_Core_deleteObject__I                                     
0000d6ed  __aeabi_memclr                                                       
0000d6ed  __aeabi_memclr4                                                      
0000d6ed  __aeabi_memclr8                                                      
0000d6ef  __aeabi_memset                                                       
0000d6ef  __aeabi_memset4                                                      
0000d6ef  __aeabi_memset8                                                      
0000d6f5  memset                                                               
0000d7e1  MMWave_getNumChirps                                                  
0000d859  MMWave_config                                                        
0000d8cd  MMWave_deviceStartFxn                                                
0000d940  _c_int00                                                             
0000d9b5  rlDriverAsyncEventHandler                                            
0000da29  finddevice                                                           
0000da57  getdevice                                                            
0000da9d  frexp                                                                
0000da9d  frexpl                                                               
0000db85  MMWave_deviceCfgFxn                                                  
0000dbfd  printf                                                               
0000dc64  ti_sysbios_family_arm_v7a_Pmu_getCountI__E                           
0000dc71  xdc_runtime_Error_print__E                                           
0000dce1  xdc_runtime_Text_visitRope2__I                                       
0000dd51  DMA_disableChannel                                                   
0000ddbd  DMA_enableChannel                                                    
0000de95  MMWave_stopLink                                                      
0000df01  Pinmux_Set_FuncSel                                                   
0000df6d  __TI_decompress_lzss                                                 
0000dfd9  __TI_writemsg                                                        
0000e00b  C$$IO$$                                                              
0000e00f  __TI_readmsg                                                         
0000e0b1  MMWave_deviceStopFxn                                                 
0000e119  Mailbox_readFlush                                                    
0000e181  rlDriverExecuteSetApi                                                
0000e1e9  rlDriverHostIrqHandler                                               
0000e251  HOSTlseek                                                            
0000e2b9  HOSTrename                                                           
0000e321  ti_sysbios_knl_Swi_schedule__I                                       
0000e389  rlDevicePowerOff                                                     
0000e455  SemaphoreP_create                                                    
0000e4b9  fseek                                                                
0000e51d  sprintf                                                              
0000e580  ti_sysbios_family_arm_exc_Exception_initCore0__I                     
0000e5e5  ti_sysbios_knl_Queue_Object__get__S                                  
0000e5f1  ti_sysbios_family_arm_v7r_vim_Hwi_phantomIntHandler__I               
0000e655  MemoryP_ctrlFree                                                     
0000e661  ti_sysbios_knl_Clock_logTick__E                                      
0000e6c5  SemaphoreP_post                                                      
0000e6c5  SemaphoreP_postFromClock                                             
0000e6c5  SemaphoreP_postFromISR                                               
0000e6d1  xdc_runtime_Startup_exec__E                                          
0000e735  CLI_MMWaveExtensionHandler                                           
0000e795  MmwDemo_mssDataPathStop                                              
0000e7f5  MmwDemo_printHeapStats                                               
0000e855  UART_read                                                            
0000e861  ti_sysbios_heaps_HeapMem_alloc__E                                    
0000e8c1  xdc_runtime_Assert_raise__I                                          
0000e921  xdc_runtime_Text_putLab__E                                           
0000ea3d  MMWave_stop                                                          
0000ea99  MmwDemo_mmWaveCtrlTask                                               
0000eaf5  HOSTopen                                                             
0000eb51  HOSTread                                                             
0000ec07  rlDriverCalChkSum                                                    
0000ec61  ESM_highpriority_FIQ                                                 
0000ecb9  MMWave_execute                                                       
0000ed69  UartSci_closeDMA                                                     
0000edc1  close                                                                
0000ee19  HOSTwrite                                                            
0000ee71  ti_sysbios_knl_Swi_restoreHwi__E                                     
0000ef21  CRC_getTransactionId                                                 
0000ef75  DMA_freeChannel                                                      
0000efc9  MMWave_initLink                                                      
0000f01d  ltoa                                                                 
0000f071  ti_sysbios_family_arm_v7r_vim_Hwi_create                             
0000f0c5  UART_write                                                           
0000f0d1  ti_sysbios_heaps_HeapMem_getStats__E                                 
0000f125  UART_writePolling                                                    
0000f131  ti_sysbios_knl_Swi_runLoop__I                                        
0000f185  ti_sysbios_family_arm_v7r_tms570_Core_getId__E                       
0000f185  ti_sysbios_hal_Core_CoreProxy_getId__E                               
0000f191  ti_sysbios_knl_Swi_startup__E                                        
0000f1e5  xdc_runtime_Memory_HeapProxy_alloc__E                                
0000f1f1  xdc_runtime_Core_assignLabel__I                                      
0000f245  CRC_getSignature                                                     
0000f295  MMWave_sync                                                          
0000f2e5  rlDeviceIdentifyCmdDir                                               
0000f335  rlDriverVerifyCRC                                                    
0000f385  atoi                                                                 
0000f3d5  C$$EXIT                                                              
0000f3d9  abort                                                                
0000f3d9  xdc_runtime_System_abortStd__E                                       
0000f3e1  exit                                                                 
0000f3e1  xdc_runtime_System_exitStd__E                                        
0000f424  __aeabi_uidiv                                                        
0000f424  __aeabi_uidivmod                                                     
0000f475  xdc_runtime_Memory_HeapProxy_free__E                                 
0000f481  xdc_runtime_System_exit__E                                           
0000f4d1  CLI_write                                                            
0000f5b5  copy_in                                                              
0000f601  ti_sysbios_family_arm_v7r_vim_Hwi_getStackInfo__E                    
0000f601  ti_sysbios_hal_Hwi_HwiProxy_getStackInfo__E                          
0000f601  ti_sysbios_hal_Hwi_getStackInfo__E                                   
0000f64d  ti_sysbios_knl_Task_create                                           
0000f6e3  SemaphoreP_delete                                                    
0000f6f1  xdc_runtime_Core_assignParams__I                                     
0000f741  xdc_runtime_Text_xprintf__I                                          
0000f78b  rlDeviceGetVersion                                                   
0000f7d5  rlDriverOsiInit                                                      
0000f8ed  SOC_resetDMA                                                         
0000f931  HOSTclose                                                            
0000f975  HOSTunlink                                                           
0000f9c1  ti_sysbios_family_arm_v7r_tms570_Core_Module_startup__E              
0000fa11  ti_sysbios_knl_Task_allBlockedFunction__I                            
0000fa61  xdc_runtime_System_atexit__E                                         
0000faa5  MMWave_executeLink                                                   
0000fae7  rlGetSubBlock                                                        
0000fb29  rlDriverValidateHdr                                                  
0000fb69  strtok                                                               
0000fbb1  ti_sysbios_timers_rti_Timer_stop__E                                  
0000fe1d  Mailbox_writeReset                                                   
0000fe59  SOC_unhaltBSS                                                        
0000fe94  ti_sysbios_family_arm_v7r_vim_Hwi_init__I                            
0000fed1  ti_sysbios_hal_Hwi_checkStack                                        
0000ff11  ti_sysbios_heaps_HeapMem_init__I                                     
0000ff51  ti_sysbios_timers_rti_Timer_setPeriod__E                             
0000ff8d  HwiP_delete                                                          
0000ffc9  CLI_MMWaveExtensionInit                                              
00010001  UART_init                                                            
00010039  rlAppendSubBlock                                                     
0001006f  strncpy                                                              
0001010d  SOC_hasDSPCore                                                       
00010141  SOC_setMMWaveDSSLinkState                                            
00010175  SOC_setMMWaveMSSLinkState                                            
000101a9  UART_open                                                            
000101dd  ti_sysbios_knl_Semaphore_create                                      
00010281  ti_sysbios_hal_Hwi_initStack                                         
000102b3  MMWave_listRemoveNode                                                
000102e5  SOC_getDevicePartNumber                                              
00010315  rlSensorStart                                                        
00010345  ti_sysbios_BIOS_atExitFunc__I                                        
00010375  ti_sysbios_BIOS_startFunc__I                                         
000103b1  ti_sysbios_family_arm_TaskSupport_start__E                           
000103b1  ti_sysbios_knl_Task_SupportProxy_start__E                            
000103e1  ti_sysbios_gates_GateHwi_Object__create__S                           
00010411  ti_sysbios_gates_GateMutex_Object__create__S                         
00010441  ti_sysbios_heaps_HeapMem_Object__create__S                           
00010471  ti_sysbios_heaps_HeapMem_free__E                                     
000104a1  ti_sysbios_knl_Event_create                                          
000104d1  ti_sysbios_knl_Semaphore_construct                                   
00010501  xdc_runtime_Text_printVisFxn__I                                      
00010531  ti_sysbios_knl_Event_pendTimeout__I                                  
00010561  ti_sysbios_knl_Semaphore_pendTimeout__I                              
0001058f  malloc                                                               
000105bd  MMWave_osalMutexCreate                                               
000105e9  MMWave_osalSemCreate                                                 
00010615  SOC_waitBSSPowerUp                                                   
00010641  rlDeviceGetMssVersion                                                
0001066d  rlSensorStop                                                         
00010699  remove                                                               
00010699  unlink                                                               
000106c5  ti_sysbios_knl_Clock_doTick__I                                       
000106f1  ti_sysbios_knl_Queue_construct                                       
00010721  ti_sysbios_knl_Swi_Module_startup__E                                 
00010751  ti_sysbios_timers_rti_Timer_periodicStub__E                          
0001077d  SOC_SystemISR                                                        
000107a7  rlDeviceGetMmWaveLinkVersion                                         
000107d1  strspn                                                               
000107fd  Mailbox_Config_init                                                  
00010875  rlDriverConstructInMsg                                               
0001089d  lseek                                                                
000108c5  write                                                                
000108f1  ti_sysbios_knl_Idle_run__E                                           
00010921  xdc_runtime_SysStd_abort__E                                          
00010921  xdc_runtime_System_SupportProxy_abort__E                             
00010951  xdc_runtime_System_aprintf_va__F                                     
00010979  rlRfInitCalibConfig                                                  
0001099f  rlRfRunTimeCalibConfig                                               
000109c5  rlRfSetCalMonFreqLimitConfig                                         
000109eb  rlRfSetDeviceCfg                                                     
00010a11  rlSetAdcOutConfig                                                    
00010a37  rlSetBpmCommonConfig                                                 
00010a5d  rlSetChannelConfig                                                   
00010a83  rlSetContModeConfig                                                  
00010ab1  xdc_runtime_System_printf_va__F                                      
00010b45  SOC_isMMWaveDSSOperational                                           
00010b69  SOC_isMMWaveMSSOperational                                           
00010b8d  rlEnableContMode                                                     
00010bb1  rlRfSetCalMonTimeUnitConfig                                          
00010bd5  rlSetLowPowerModeConfig                                              
00010bf9  ti_sysbios_BIOS_errorRaiseHook__I                                    
00010c1d  ti_sysbios_BIOS_registerRTSLock__I                                   
00010c41  ti_sysbios_BIOS_removeRTSLock__I                                     
00010c65  ti_sysbios_gates_GateMutex_Object__delete__S                         
00010c91  ti_sysbios_knl_Clock_Module_startup__E                               
00010cb5  ti_sysbios_knl_Semaphore_Object__delete__S                           
00010ce1  ti_sysbios_knl_Task_restoreHwi__E                                    
00010d05  UartSci_disableRxDMA                                                 
00010d27  UartSci_enableRxDMA                                                  
00010d49  strcspn                                                              
00010d6d  ESM_lowpriority_IRQ                                                  
00010d8d  MMWave_listCat                                                       
00010dad  MmwDemo_mboxWrite                                                    
00010ded  rlRfInit                                                             
00010e0d  memchr                                                               
00010e31  ti_sysbios_family_arm_v7a_Pmu_Module_startup__E                      
00010e51  ti_sysbios_family_arm_v7r_vim_Hwi_Object__delete__S                  
00010e71  ti_sysbios_family_arm_v7r_vim_Hwi_disableInterrupt__E                
00010e71  ti_sysbios_hal_Hwi_HwiProxy_disableInterrupt__E                      
00010e71  ti_sysbios_hal_Hwi_disableInterrupt__E                               
00010e91  ti_sysbios_family_arm_v7r_vim_Hwi_enableInterrupt__E                 
00010e91  ti_sysbios_hal_Hwi_HwiProxy_enableInterrupt__E                       
00010e91  ti_sysbios_hal_Hwi_enableInterrupt__E                                
00010eb1  ti_sysbios_gates_GateHwi_Object__delete__S                           
00010ed1  ti_sysbios_heaps_HeapMem_Object__delete__S                           
00010ef1  ti_sysbios_knl_Semaphore_destruct                                    
00010f2f  SOC_getOutAddr_LUTType                                               
00011011  MMWave_listRemove                                                    
0001102d  SOC_getInAddr_LUTType                                                
00011048  ti_sysbios_family_arm_TaskSupport_glue                               
00011064  ti_sysbios_family_arm_TaskSupport_swap__E                            
00011064  ti_sysbios_knl_Task_SupportProxy_swap__E                             
00011081  memccpy                                                              
0001109d  ti_sysbios_BIOS_rtsLock__I                                           
000110c1  ti_sysbios_family_arm_v7r_vim_Hwi_clearInterrupt__E                  
000110c1  ti_sysbios_hal_Hwi_HwiProxy_clearInterrupt__E                        
000110c1  ti_sysbios_hal_Hwi_clearInterrupt__E                                 
000110e1  ti_sysbios_gates_GateMutex_Instance_init__E                          
00011101  ti_sysbios_gates_GateMutex_leave__E                                  
0001111d  ti_sysbios_knl_Queue_destruct                                        
00011139  MMWave_deviceSyncFxn                                                 
00011153  MMWave_encodeError                                                   
0001116d  MMWave_listAdd                                                       
00011187  free                                                                 
000111a1  rlGetRfDieId                                                         
000111bb  copysign                                                             
000111bb  copysignl                                                            
000111d5  ti_sysbios_gates_GateHwi_Handle__label__S                            
000111d5  xdc_runtime_Main_Module_GateProxy_Handle__label__S                   
000111d5  xdc_runtime_System_Module_GateProxy_Handle__label__S                 
000111ef  ti_sysbios_BIOS_RtsGateProxy_Handle__label__S                        
000111ef  ti_sysbios_gates_GateMutex_Handle__label__S                          
000111ef  ti_sysbios_heaps_HeapMem_Module_GateProxy_Handle__label__S           
00011209  ti_sysbios_heaps_HeapMem_Handle__label__S                            
00011209  xdc_runtime_Memory_HeapProxy_Handle__label__S                        
00011223  xdc_runtime_System_aprintf__E                                        
0001123d  xdc_runtime_System_printf__E                                         
00011259  CLI_getMMWaveExtensionOpenConfig                                     
00011271  MMWave_osalMutexLock                                                 
00011289  MMWave_osalSemWait                                                   
000112e9  rlDeviceGetRfVersion                                                 
00011301  rlDriverCalCRC                                                       
00011319  rlDriverFillPayload                                                  
00011331  _args_main                                                           
00011349  strcmp                                                               
00011361  ti_sysbios_BIOS_rtsUnlock__I                                         
00011378  ti_sysbios_family_arm_v7a_Pmu_initCounters__I                        
00011391  ti_sysbios_family_arm_v7r_vim_Hwi_Module__startupDone__F             
00011391  ti_sysbios_family_arm_v7r_vim_Hwi_Module__startupDone__S             
00011391  ti_sysbios_hal_Hwi_HwiProxy_Module__startupDone__S                   
000113a9  ti_sysbios_family_arm_v7r_vim_Hwi_Params__init__S                    
000113a9  ti_sysbios_hal_Hwi_HwiProxy_Params__init__S                          
000113c1  ti_sysbios_knl_Semaphore_Params__init__S                             
000113d9  ti_sysbios_knl_Task_Params__init__S                                  
000113f1  ti_sysbios_knl_Task_enter__I                                         
00011409  ti_sysbios_knl_Clock_TimerProxy_Module__startupDone__S               
00011409  ti_sysbios_timers_rti_Timer_Module__startupDone__F                   
00011409  ti_sysbios_timers_rti_Timer_Module__startupDone__S                   
00011421  xdc_runtime_Error_init__E                                            
00011439  strchr                                                               
0001144f  strlen                                                               
00011465  ti_sysbios_BIOS_exitFunc__I                                          
00011481  ti_sysbios_knl_Idle_loop__E                                          
000114a1  ti_sysbios_knl_Task_sleepTimeout__I                                  
000114b7  CycleprofilerP_init                                                  
000114cb  HwiP_Params_init                                                     
00011507  MMWave_osalMutexDelete                                               
0001151b  MMWave_osalSemDelete                                                 
00011545  UartSci_disableTxDMA                                                 
00011559  UartSci_enableTxDMA                                                  
0001156d  _DebugP_assert                                                       
00011581  radarOsal_memDeInit                                                  
00011595  rlAppendDummy                                                        
000115a9  rlDriverIsDeviceMapValid                                             
000115bd  _register_unlock                                                     
000115c3  _register_lock                                                       
000115cb  _nop                                                                 
000115d1  strcpy                                                               
000115e5  ti_sysbios_heaps_HeapMem_Object__get__S                              
00011601  ti_sysbios_knl_Event_Instance_init__E                                
00011615  ti_sysbios_knl_Swi_Object__get__S                                    
00011629  CRC_initConfigParams                                                 
0001163b  MMWave_deviceGetDeviceInfo                                           
0001164d  MemoryP_ctrlAlloc                                                    
0001165f  SemaphoreP_pend                                                      
00011671  ti_sysbios_hal_Hwi_Module_startup__E                                 
00011683  xdc_runtime_Startup_exec__I                                          
00011695  CLI_getMMWaveExtensionConfig                                         
000116b5  MmwDemo_mssMmwaveConfigCallbackFxn                                   
000116c5  MmwDemo_mssMmwaveStartCallbackFxn                                    
000116d5  MmwDemo_mssMmwaveStopCallbackFxn                                     
000116f1  ti_sysbios_BIOS_setThreadType__E                                     
00011701  ti_sysbios_BIOS_start__E                                             
00011710  ti_sysbios_family_arm_v7a_Pmu_disableInterruptI__E                   
00011720  ti_sysbios_family_arm_v7a_Pmu_enableInterruptI__E                    
00011730  ti_sysbios_family_arm_v7a_Pmu_getNumCounters__E                      
00011740  ti_sysbios_family_arm_v7a_Pmu_startCounterI__E                       
00011750  ti_sysbios_family_arm_v7a_Pmu_stopCounterI__E                        
00011761  ti_sysbios_gates_GateMutex_Instance_finalize__E                      
00011771  ti_sysbios_heaps_HeapBuf_Object__get__S                              
00011781  ti_sysbios_knl_Semaphore_Instance_finalize__E                        
00011791  ti_sysbios_knl_Swi_disable__E                                        
000117a1  ti_sysbios_knl_Task_Object__get__S                                   
000117b1  ti_sysbios_knl_Task_disable__E                                       
000117c1  xdc_runtime_Memory_free__E                                           
000117d1  xdc_runtime_Text_visitRope__I                                        
000117e1  __TI_decompress_none                                                 
000117f1  ti_sysbios_knl_Queue_empty__E                                        
00011801  ti_sysbios_family_arm_TaskSupport_checkStack__E                      
00011801  ti_sysbios_knl_Task_SupportProxy_checkStack__E                       
00011811  ti_sysbios_family_arm_TaskSupport_getStackAlignment__E               
00011811  ti_sysbios_knl_Task_SupportProxy_getStackAlignment__E                
00011821  ti_sysbios_family_arm_exc_Exception_Module_startup__E                
00011831  ti_sysbios_family_arm_v7r_vim_Hwi_switchFromBootStack__E             
00011831  ti_sysbios_hal_Hwi_HwiProxy_switchFromBootStack__E                   
00011831  ti_sysbios_hal_Hwi_switchFromBootStack__E                            
00011841  xdc_runtime_Startup_rtsDone__E                                       
00011851  xdc_runtime_SysStd_exit__E                                           
00011851  xdc_runtime_System_SupportProxy_exit__E                              
00011861  ti_sysbios_gates_GateHwi_enter__E                                    
00011871  ti_sysbios_family_arm_v7r_vim_Hwi_startup__E                         
00011871  ti_sysbios_hal_Hwi_HwiProxy_startup__E                               
00011871  ti_sysbios_hal_Hwi_startup__E                                        
00011881  ti_sysbios_gates_GateHwi_leave__E                                    
00011891  ti_sysbios_heaps_HeapMem_isBlocking__E                               
000118a1  ti_sysbios_knl_Queue_Instance_init__E                                
000118b1  xdc_runtime_System_Module_startup__E                                 
000118c1  ti_sysbios_gates_GateHwi_query__E                                    
000118c1  xdc_runtime_Main_Module_GateProxy_query__E                           
000118c1  xdc_runtime_System_Module_GateProxy_query__E                         
000118d1  ti_sysbios_BIOS_RtsGateProxy_query__E                                
000118d1  ti_sysbios_gates_GateMutex_query__E                                  
000118d1  ti_sysbios_heaps_HeapMem_Module_GateProxy_query__E                   
000118e1  ti_sysbios_knl_Task_startup__E                                       
000118f1  ti_sysbios_timers_rti_Timer_getMaxTicks__E                           
00011901  xdc_runtime_SysStd_putch__E                                          
00011901  xdc_runtime_System_SupportProxy_putch__E                             
00011911  xdc_runtime_SysStd_ready__E                                          
00011911  xdc_runtime_System_SupportProxy_ready__E                             
00011921  ti_sysbios_BIOS_linkedWithIncorrectBootLibrary__E                    
00011931  ti_sysbios_gates_GateHwi_Instance_init__E                            
00011938  xdc_runtime_Text_charTab__A                                          
00013760  _ctypes_                                                             
00013862  xdc_runtime_Text_nodeTab__A                                          
0001393a  ti_sysbios_family_arm_exc_Exception_Module__id__C                    
00013b00  ti_sysbios_family_arm_v7r_vim_Hwi_channelMap__A                      
00013bd8  ti_sysbios_knl_Task_Object__PARAMS__C                                
00013c1c  UART_defaultParams                                                   
00013c58  ti_sysbios_family_arm_v7r_vim_Hwi_Object__PARAMS__C                  
00013c88  xdc_runtime_Startup_sfxnTab__A                                       
00013cb4  ti_sysbios_heaps_HeapMem_Module__FXNS__C                             
00013cdc  Mailbox_defaultCfg                                                   
00013d00  ti_sysbios_gates_GateHwi_Module__FXNS__C                             
00013d24  ti_sysbios_gates_GateMutex_Module__FXNS__C                           
00013d48  ti_sysbios_heaps_HeapMem_Object__PARAMS__C                           
00013d6c  ti_sysbios_knl_Semaphore_Object__PARAMS__C                           
00013db0  ti_sysbios_family_arm_v7r_vim_Hwi_Object__DESC__C                    
00013dd0  ti_sysbios_gates_GateHwi_Object__DESC__C                             
00013df0  ti_sysbios_gates_GateMutex_Object__DESC__C                           
00013e10  ti_sysbios_heaps_HeapMem_Object__DESC__C                             
00013e30  ti_sysbios_knl_Event_Object__DESC__C                                 
00013e50  ti_sysbios_knl_Queue_Object__DESC__C                                 
00013e70  ti_sysbios_knl_Semaphore_Object__DESC__C                             
00013e90  ti_sysbios_knl_Task_Object__DESC__C                                  
00013eb0  ti_sysbios_gates_GateHwi_Object__PARAMS__C                           
00013ec8  ti_sysbios_gates_GateMutex_Object__PARAMS__C                         
00013ee0  ti_sysbios_knl_Event_Object__PARAMS__C                               
00013ef8  ti_sysbios_knl_Queue_Object__PARAMS__C                               
00013f10  xdc_runtime_Startup_sfxnRts__A                                       
00013f26  ti_sysbios_family_arm_v7a_Pmu_Module__id__C                          
00013f28  ti_sysbios_family_arm_v7r_vim_Hwi_intReqEnaSet__A                    
00013f38  ti_sysbios_family_arm_v7r_vim_Hwi_wakeEnaSet__A                      
00013f48  ti_sysbios_knl_Idle_funcList__C                                      
00013f50  xdc_runtime_Startup_firstFxns__A                                     
00013f58  xdc_runtime_Startup_firstFxns__C                                     
00013f60  xdc_runtime_Startup_lastFxns__C                                      
00013f68  heap0                                                                
00013f6c  ti_sysbios_family_arm_TaskSupport_stackAlignment__C                  
00013f70  ti_sysbios_family_arm_exc_Exception_E_dataAbort__C                   
00013f74  ti_sysbios_family_arm_exc_Exception_E_prefetchAbort__C               
00013f78  ti_sysbios_family_arm_exc_Exception_E_swi__C                         
00013f7c  ti_sysbios_family_arm_exc_Exception_E_undefinedInstruction__C        
00013f80  ti_sysbios_family_arm_exc_Exception_excHookFuncs__A                  
00013f84  ti_sysbios_family_arm_exc_Exception_excHookFuncs__C                  
00013f88  ti_sysbios_family_arm_v7a_Pmu_A_invalidCounterId__C                  
00013f8c  ti_sysbios_family_arm_v7a_Pmu_Module__diagsEnabled__C                
00013f90  ti_sysbios_family_arm_v7a_Pmu_Module__diagsIncluded__C               
00013f94  ti_sysbios_family_arm_v7a_Pmu_Module__diagsMask__C                   
00013f98  ti_sysbios_family_arm_v7r_tms570_Core_E_mismatchedIds__C             
00013f9c  ti_sysbios_family_arm_v7r_tms570_Core_id__C                          
00013fa0  ti_sysbios_family_arm_v7r_vim_Hwi_A_badChannelId__C                  
00013fa4  ti_sysbios_family_arm_v7r_vim_Hwi_E_alreadyDefined__C                
00013fa8  ti_sysbios_family_arm_v7r_vim_Hwi_E_badIntNum__C                     
00013fac  ti_sysbios_family_arm_v7r_vim_Hwi_E_phantomInterrupt__C              
00013fb0  ti_sysbios_family_arm_v7r_vim_Hwi_E_undefined__C                     
00013fb4  ti_sysbios_family_arm_v7r_vim_Hwi_E_unsupportedMaskingOption__C      
00013fb8  ti_sysbios_family_arm_v7r_vim_Hwi_LD_end__C                          
00013fbc  ti_sysbios_family_arm_v7r_vim_Hwi_LM_begin__C                        
00013fc0  ti_sysbios_family_arm_v7r_vim_Hwi_Module__diagsEnabled__C            
00013fc4  ti_sysbios_family_arm_v7r_vim_Hwi_Module__diagsIncluded__C           
00013fc8  ti_sysbios_family_arm_v7r_vim_Hwi_Module__diagsMask__C               
00013fcc  ti_sysbios_family_arm_v7r_vim_Hwi_Module__loggerFxn1__C              
00013fd0  ti_sysbios_family_arm_v7r_vim_Hwi_Module__loggerFxn8__C              
00013fd4  ti_sysbios_family_arm_v7r_vim_Hwi_Module__loggerObj__C               
00013fd8  ti_sysbios_family_arm_v7r_vim_Hwi_NUM_INTERRUPTS__C                  
00013fdc  ti_sysbios_family_arm_v7r_vim_Hwi_channelMap__C                      
00013fe0  ti_sysbios_family_arm_v7r_vim_Hwi_intReqEnaSet__C                    
00013fe4  ti_sysbios_family_arm_v7r_vim_Hwi_phantomFunc__C                     
00013fe8  ti_sysbios_family_arm_v7r_vim_Hwi_swiDisable__C                      
00013fec  ti_sysbios_family_arm_v7r_vim_Hwi_swiRestoreHwi__C                   
00013ff0  ti_sysbios_family_arm_v7r_vim_Hwi_taskDisable__C                     
00013ff4  ti_sysbios_family_arm_v7r_vim_Hwi_taskRestoreHwi__C                  
00013ff8  ti_sysbios_family_arm_v7r_vim_Hwi_wakeEnaSet__C                      
00013ffc  ti_sysbios_gates_GateMutex_A_badContext__C                           
00014000  ti_sysbios_gates_GateMutex_Instance_State_sem__O                     
00014004  ti_sysbios_gates_GateMutex_Module__diagsEnabled__C                   
00014008  ti_sysbios_gates_GateMutex_Module__diagsIncluded__C                  
0001400c  ti_sysbios_gates_GateMutex_Module__diagsMask__C                      
00014010  ti_sysbios_hal_Hwi_E_stackOverflow__C                                
00014014  ti_sysbios_heaps_HeapBuf_Instance_State_freeList__O                  
00014018  ti_sysbios_heaps_HeapBuf_Object__count__C                            
0001401c  ti_sysbios_heaps_HeapBuf_numConstructedHeaps__C                      
00014020  ti_sysbios_heaps_HeapMem_A_align__C                                  
00014024  ti_sysbios_heaps_HeapMem_A_heapSize__C                               
00014028  ti_sysbios_heaps_HeapMem_A_invalidFree__C                            
0001402c  ti_sysbios_heaps_HeapMem_A_zeroBlock__C                              
00014030  ti_sysbios_heaps_HeapMem_E_memory__C                                 
00014034  ti_sysbios_heaps_HeapMem_Module__diagsEnabled__C                     
00014038  ti_sysbios_heaps_HeapMem_Module__diagsIncluded__C                    
0001403c  ti_sysbios_heaps_HeapMem_Module__diagsMask__C                        
00014040  ti_sysbios_heaps_HeapMem_Module__gateObj__C                          
00014044  ti_sysbios_heaps_HeapMem_Object__count__C                            
00014048  ti_sysbios_heaps_HeapMem_reqAlign__C                                 
0001404c  ti_sysbios_knl_Clock_LM_begin__C                                     
00014050  ti_sysbios_knl_Clock_LM_tick__C                                      
00014054  ti_sysbios_knl_Clock_LW_delayed__C                                   
00014058  ti_sysbios_knl_Clock_Module_State_clockQ__O                          
0001405c  ti_sysbios_knl_Clock_Module__diagsEnabled__C                         
00014060  ti_sysbios_knl_Clock_Module__diagsIncluded__C                        
00014064  ti_sysbios_knl_Clock_Module__diagsMask__C                            
00014068  ti_sysbios_knl_Clock_Module__loggerFxn1__C                           
0001406c  ti_sysbios_knl_Clock_Module__loggerFxn2__C                           
00014070  ti_sysbios_knl_Clock_Module__loggerObj__C                            
00014074  ti_sysbios_knl_Event_A_badContext__C                                 
00014078  ti_sysbios_knl_Event_A_eventInUse__C                                 
0001407c  ti_sysbios_knl_Event_A_nullEventId__C                                
00014080  ti_sysbios_knl_Event_A_nullEventMasks__C                             
00014084  ti_sysbios_knl_Event_A_pendTaskDisabled__C                           
00014088  ti_sysbios_knl_Event_Instance_State_pendQ__O                         
0001408c  ti_sysbios_knl_Event_LM_pend__C                                      
00014090  ti_sysbios_knl_Event_LM_post__C                                      
00014094  ti_sysbios_knl_Event_Module__diagsEnabled__C                         
00014098  ti_sysbios_knl_Event_Module__diagsIncluded__C                        
0001409c  ti_sysbios_knl_Event_Module__diagsMask__C                            
000140a0  ti_sysbios_knl_Event_Module__loggerFxn4__C                           
000140a4  ti_sysbios_knl_Event_Module__loggerFxn8__C                           
000140a8  ti_sysbios_knl_Event_Module__loggerObj__C                            
000140ac  ti_sysbios_knl_Idle_funcList__A                                      
000140b0  ti_sysbios_knl_Semaphore_A_badContext__C                             
000140b4  ti_sysbios_knl_Semaphore_A_noEvents__C                               
000140b8  ti_sysbios_knl_Semaphore_A_overflow__C                               
000140bc  ti_sysbios_knl_Semaphore_A_pendTaskDisabled__C                       
000140c0  ti_sysbios_knl_Semaphore_Instance_State_pendQ__O                     
000140c4  ti_sysbios_knl_Semaphore_LM_pend__C                                  
000140c8  ti_sysbios_knl_Semaphore_LM_post__C                                  
000140cc  ti_sysbios_knl_Semaphore_Module__diagsEnabled__C                     
000140d0  ti_sysbios_knl_Semaphore_Module__diagsIncluded__C                    
000140d4  ti_sysbios_knl_Semaphore_Module__diagsMask__C                        
000140d8  ti_sysbios_knl_Semaphore_Module__loggerFxn2__C                       
000140dc  ti_sysbios_knl_Semaphore_Module__loggerFxn4__C                       
000140e0  ti_sysbios_knl_Semaphore_Module__loggerObj__C                        
000140e4  ti_sysbios_knl_Swi_LD_end__C                                         
000140e8  ti_sysbios_knl_Swi_LM_begin__C                                       
000140ec  ti_sysbios_knl_Swi_LM_post__C                                        
000140f0  ti_sysbios_knl_Swi_Module__diagsEnabled__C                           
000140f4  ti_sysbios_knl_Swi_Module__diagsIncluded__C                          
000140f8  ti_sysbios_knl_Swi_Module__diagsMask__C                              
000140fc  ti_sysbios_knl_Swi_Module__loggerFxn1__C                             
00014100  ti_sysbios_knl_Swi_Module__loggerFxn4__C                             
00014104  ti_sysbios_knl_Swi_Module__loggerObj__C                              
00014108  ti_sysbios_knl_Swi_Object__count__C                                  
0001410c  ti_sysbios_knl_Task_A_badPriority__C                                 
00014110  ti_sysbios_knl_Task_A_badTaskState__C                                
00014114  ti_sysbios_knl_Task_A_badThreadType__C                               
00014118  ti_sysbios_knl_Task_A_badTimeout__C                                  
0001411c  ti_sysbios_knl_Task_A_noPendElem__C                                  
00014120  ti_sysbios_knl_Task_A_sleepTaskDisabled__C                           
00014124  ti_sysbios_knl_Task_E_spOutOfBounds__C                               
00014128  ti_sysbios_knl_Task_E_stackOverflow__C                               
0001412c  ti_sysbios_knl_Task_LD_block__C                                      
00014130  ti_sysbios_knl_Task_LD_exit__C                                       
00014134  ti_sysbios_knl_Task_LD_ready__C                                      
00014138  ti_sysbios_knl_Task_LM_sleep__C                                      
0001413c  ti_sysbios_knl_Task_LM_switch__C                                     
00014140  ti_sysbios_knl_Task_Module_State_inactiveQ__O                        
00014144  ti_sysbios_knl_Task_Module__diagsEnabled__C                          
00014148  ti_sysbios_knl_Task_Module__diagsIncluded__C                         
0001414c  ti_sysbios_knl_Task_Module__diagsMask__C                             
00014150  ti_sysbios_knl_Task_Module__loggerFxn2__C                            
00014154  ti_sysbios_knl_Task_Module__loggerFxn4__C                            
00014158  ti_sysbios_knl_Task_Module__loggerObj__C                             
0001415c  ti_sysbios_knl_Task_Object__count__C                                 
00014160  ti_sysbios_knl_Task_allBlockedFunc__C                                
00014164  ti_sysbios_knl_Task_defaultStackHeap__C                              
00014168  ti_sysbios_knl_Task_defaultStackSize__C                              
0001416c  ti_sysbios_knl_Task_numConstructedTasks__C                           
00014170  ti_sysbios_timers_rti_Timer_E_cannotSupport__C                       
00014174  ti_sysbios_timers_rti_Timer_Module__diagsEnabled__C                  
00014178  ti_sysbios_timers_rti_Timer_Module__diagsIncluded__C                 
0001417c  ti_sysbios_timers_rti_Timer_Module__diagsMask__C                     
00014180  ti_sysbios_timers_rti_Timer_numTimerDevices__C                       
00014184  ti_sysbios_timers_rti_Timer_startupNeeded__C                         
00014188  xdc_runtime_Assert_E_assertFailed__C                                 
0001418c  xdc_runtime_Core_A_initializedParams__C                              
00014190  xdc_runtime_Core_Module__diagsEnabled__C                             
00014194  xdc_runtime_Core_Module__diagsIncluded__C                            
00014198  xdc_runtime_Core_Module__diagsMask__C                                
0001419c  xdc_runtime_Error_E_memory__C                                        
000141a0  xdc_runtime_Error_Module__diagsEnabled__C                            
000141a4  xdc_runtime_Error_Module__diagsIncluded__C                           
000141a8  xdc_runtime_Error_Module__diagsMask__C                               
000141ac  xdc_runtime_Error_Module__loggerFxn8__C                              
000141b0  xdc_runtime_Error_Module__loggerObj__C                               
000141b4  xdc_runtime_Error_policyFxn__C                                       
000141b8  xdc_runtime_Error_policy__C                                          
000141bc  xdc_runtime_Error_raiseHook__C                                       
000141c0  xdc_runtime_IGateProvider_Interface__BASE__C                         
000141c4  xdc_runtime_IHeap_Interface__BASE__C                                 
000141c8  xdc_runtime_IModule_Interface__BASE__C                               
000141cc  xdc_runtime_Log_L_error__C                                           
000141d0  xdc_runtime_Memory_defaultHeapInstance__C                            
000141d4  xdc_runtime_Startup_execImpl__C                                      
000141d8  xdc_runtime_Startup_maxPasses__C                                     
000141dc  xdc_runtime_Startup_sfxnRts__C                                       
000141e0  xdc_runtime_Startup_sfxnTab__C                                       
000141e4  xdc_runtime_System_Module__gateObj__C                                
000141e8  xdc_runtime_System_abortFxn__C                                       
000141ec  xdc_runtime_System_exitFxn__C                                        
000141f0  xdc_runtime_System_extendFxn__C                                      
000141f4  xdc_runtime_System_maxAtexitHandlers__C                              
000141f8  xdc_runtime_Text_charTab__C                                          
000141fc  xdc_runtime_Text_nameEmpty__C                                        
00014200  xdc_runtime_Text_nameStatic__C                                       
00014204  xdc_runtime_Text_nameUnknown__C                                      
00014208  xdc_runtime_Text_nodeTab__C                                          
0001420c  xdc_runtime_Text_visitRopeFxn__C                                     
00014210  ti_sysbios_family_arm_v7r_tms570_Core_Module__id__C                  
00014212  ti_sysbios_family_arm_v7r_vim_Hwi_Module__id__C                      
00014214  ti_sysbios_family_arm_v7r_vim_Hwi_Module__loggerDefined__C           
00014216  ti_sysbios_gates_GateMutex_Module__id__C                             
00014218  ti_sysbios_hal_Hwi_Module__id__C                                     
0001421a  ti_sysbios_heaps_HeapMem_Module__id__C                               
0001421c  ti_sysbios_knl_Clock_Module__id__C                                   
0001421e  ti_sysbios_knl_Clock_Module__loggerDefined__C                        
00014220  ti_sysbios_knl_Event_Module__id__C                                   
00014222  ti_sysbios_knl_Event_Module__loggerDefined__C                        
00014224  ti_sysbios_knl_Semaphore_Module__id__C                               
00014226  ti_sysbios_knl_Semaphore_Module__loggerDefined__C                    
00014228  ti_sysbios_knl_Swi_Module__id__C                                     
0001422a  ti_sysbios_knl_Swi_Module__loggerDefined__C                          
0001422c  ti_sysbios_knl_Task_Module__id__C                                    
0001422e  ti_sysbios_knl_Task_Module__loggerDefined__C                         
00014230  ti_sysbios_timers_rti_Timer_Module__id__C                            
00014232  ti_sysbios_timers_rti_Timer_continueOnSuspend__C                     
00014234  xdc_runtime_Core_Module__id__C                                       
00014236  xdc_runtime_Error_Module__loggerDefined__C                           
00014238  xdc_runtime_Error_maxDepth__C                                        
0001423a  xdc_runtime_Main_Module__id__C                                       
0001423c  xdc_runtime_Memory_Module__id__C                                     
0001423e  xdc_runtime_Text_charCnt__C                                          
00014240  xdc_runtime_Text_isLoaded__C                                         
00014242  xdc_runtime_Text_registryModsLastId__C                               
00014244  xdc_runtime_Text_unnamedModsLastId__C                                
00014248  __TI_static_base__                                                   
00014634  __TI_Handler_Table_Base                                              
00014640  __TI_Handler_Table_Limit                                             
00014660  __TI_CINIT_Base                                                      
00014688  __TI_CINIT_Limit                                                     
08000000  gMmwL2                                                               
08012000  gMmwL1Scratch                                                        
08014100  ti_sysbios_heaps_HeapMem_Instance_State_0_buf__A                     
08024100  gMmwMssMCB                                                           
080262e0  ti_sysbios_family_arm_exc_Exception_Module_State_0_excStack_0__A     
080272e0  ti_sysbios_knl_Task_Instance_State_0_stack__A                        
08027ae0  gCLI                                                                 
08027c88  __CIOBUF_                                                            
08027da8  gMMWave_MCB                                                          
08027ea8  __TI_tmpnams                                                         
08027f48  gEsmMCB                                                              
08027fb8  gRadarOsal_heapObj                                                   
08028028  gMMWave_DualcoreMCB                                                  
08028030  parmbuf                                                              
08028038  rl_txMsg                                                             
08028138  rl_rxMsg                                                             
08028420  gCLI_mmwave_freq_scale_factor                                        
08028428  gCLIMMWaveOpenCfg                                                    
08028450  gCLIMMWaveExtensionTable                                             
080284f8  gCLIMMWaveControlCfg                                                 
080285c4  partInfoStringArray                                                  
08028788  ti_sysbios_family_arm_v7r_vim_Hwi_Module_State_0_dispatchTable__A    
08028988  _ftable                                                              
08028a78  ti_sysbios_knl_Swi_Module_State_0_readyQ__A                          
08028af8  ti_sysbios_knl_Task_Module_State_0_readyQ__A                         
08028b78  _device                                                              
08028bf0  ti_sysbios_knl_Task_Object__table__V                                 
08028c4c  gUartSciHwCfg                                                        
08028ca4  _stream                                                              
08028cf4  gMailboxMCB                                                          
08028d44  ti_sysbios_knl_Task_Module__state__V                                 
08028d8c  SOC_TranslateAddr_LUT                                                
08028dcc  ti_sysbios_gates_GateMutex_Object__table__V                          
08028e0c  ti_sysbios_timers_rti_Timer_Object__table__V                         
08028e48  ti_sysbios_family_arm_v7r_vim_Hwi_Module__state__V                   
08028e7c  ti_sysbios_knl_Swi_Object__table__V                                  
08028eac  ti_sysbios_family_arm_v7r_vim_Hwi_Object__table__V                   
08028ed8  ti_sysbios_knl_Clock_Module__state__V                                
08028f04  gUartSciFxnTable                                                     
08028f2c  UART_config                                                          
08028f50  ti_sysbios_BIOS_Module__state__V                                     
08028f74  gCRCRegister                                                         
08028f78  gSOCHwAttrib                                                         
08028f98  xdc_runtime_Error_IgnoreBlock                                        
08028fb8  xdc_runtime_System_Module_State_0_atexitHandlers__A                  
08028fd8  ti_sysbios_knl_Swi_Module__state__V                                  
08028ff4  gMailboxMssBssHwCfg                                                  
0802900c  gMailboxMssDssHwCfg                                                  
08029024  ti_sysbios_heaps_HeapMem_Object__table__V                            
0802903c  ti_sysbios_timers_rti_Timer_Module_State_0_device__A                 
08029054  ti_sysbios_family_arm_exc_Exception_Module__state__V                 
08029068  __TI_ft_end                                                          
0802906c  __aeabi_stdin                                                        
08029070  __aeabi_stdout                                                       
08029074  __aeabi_stderr                                                       
08029078  ti_sysbios_timers_rti_Timer_Module_State_0_intFreqs__A               
08029088  ti_sysbios_timers_rti_Timer_Module__state__V                         
08029098  __TI_cleanup_ptr                                                     
0802909c  __TI_dtors_ptr                                                       
080290a0  __TI_enable_exit_profile_output                                      
080290a4  gESMHwCfgAttrs                                                       
080290b0  ti_sysbios_family_arm_v7a_Pmu_Module__state__V                       
080290bc  _lock                                                                
080290c0  _unlock                                                              
080290c4  ti_sysbios_family_arm_v7r_vim_Hwi_Module__root__V                    
080290cc  ti_sysbios_gates_GateHwi_Module__root__V                             
080290d4  ti_sysbios_gates_GateMutex_Module__root__V                           
080290dc  ti_sysbios_hal_Hwi_Object__table__V                                  
080290e4  ti_sysbios_heaps_HeapMem_Module__root__V                             
080290ec  ti_sysbios_knl_Event_Module__root__V                                 
080290f4  ti_sysbios_knl_Queue_Module__root__V                                 
080290fc  ti_sysbios_knl_Semaphore_Module__root__V                             
08029104  ti_sysbios_knl_Task_Module__root__V                                  
0802910c  ti_sysbios_timers_rti_Timer_Module_State_0_handles__A                
08029114  xdc_runtime_Registry_Module__state__V                                
0802911c  xdc_runtime_Startup_Module__state__V                                 
08029124  xdc_runtime_System_Module__state__V                                  
0802912c  gPinmuxRegs                                                          
08029134  errno                                                                
08029140  main_func_sp                                                         
08029148  ti_sysbios_family_arm_exc_Exception_Module_State_0_excContext__A     
0802914c  ti_sysbios_family_arm_exc_Exception_Module_State_0_excStackBuffers__A
08029150  ti_sysbios_family_arm_exc_Exception_Module_State_0_excStack__A       
08029154  ti_sysbios_gates_GateHwi_Object__table__V                            
08029158  ti_sysbios_heaps_HeapBuf_Module__state__V                            
0802915c  ti_sysbios_knl_Task_Module_State_0_idleTask__A                       
08029160  xdc_runtime_Memory_Module__state__V                                  
08029164  ti_sysbios_family_arm_exc_Exception_Module_State_0_excActive__A      
08029166  xdc_runtime_Error_Module__state__V                                   
08029168  ti_sysbios_family_arm_v7r_vim_Hwi_Module_State_0_fiqStack__A         
0802a168  __stack                                                              
0802b168  __STACK_END                                                          
fffffdec  ti_sysbios_family_arm_v7r_vim_Hwi_vim                                
ffffffff  __TI_pprof_out_hndl                                                  
ffffffff  __TI_prof_data_size                                                  
ffffffff  __TI_prof_data_start                                                 
ffffffff  __binit__                                                            
ffffffff  __c_args__                                                           
ffffffff  binit                                                                
UNDEFED   SHT$$INIT_ARRAY$$Base                                                
UNDEFED   SHT$$INIT_ARRAY$$Limit                                               

[916 symbols]
